 ssp

 Timestamp is 4b4c73cc (Tue Jan 12 22:06:20 2010)

 Preferred load address is 00400000

 Start         Length     Name                   Class
 0001:00000000 001dd708H .text                   CODE
 0001:001dd708 0000022bH .text$AFX_AUX           CODE
 0001:001dd933 000009caH .text$AFX_CMNCTL        CODE
 0001:001de2fd 00000093H .text$AFX_COL1          CODE
 0001:001de390 000004c7H .text$AFX_COL2          CODE
 0001:001de857 00005593H .text$AFX_CORE1         CODE
 0001:001e3dea 00000a94H .text$AFX_CORE2         CODE
 0001:001e487e 00000899H .text$AFX_CORE3         CODE
 0001:001e5117 0000038aH .text$AFX_CORE4         CODE
 0001:001e54a1 00000069H .text$AFX_INET          CODE
 0001:001e550a 00001ce4H .text$AFX_INIT          CODE
 0001:001e71ee 00000538H .text$AFX_OLE1          CODE
 0001:001e7726 0000018cH .text$AFX_OLE2          CODE
 0001:001e78b2 000001dbH .text$AFX_OLE3          CODE
 0001:001e7a8d 00000ba6H .text$AFX_OLE4          CODE
 0001:001e8633 00000000H .text$AFX_OLE5          CODE
 0001:001e8633 000001fbH .text$AFX_TERM          CODE
 0001:001e8830 000168afH .text$x                 CODE
 0002:00000000 00000884H .idata$5                DATA
 0002:00000888 0005690dH .rdata                  DATA
 0002:00057198 0000126cH .rdata$r                DATA
 0002:00058408 00016eb0H .xdata$x                DATA
 0002:0006f2b8 00000118H .idata$2                DATA
 0002:0006f3d0 00000014H .idata$3                DATA
 0002:0006f3e4 00000884H .idata$4                DATA
 0002:0006fc68 000023ccH .idata$6                DATA
 0002:00072034 00000000H .edata                  DATA
 0003:00000000 00000004H .CRT$XCA                DATA
 0003:00000004 0000002cH .CRT$XCC                DATA
 0003:00000030 00000014H .CRT$XCL                DATA
 0003:00000044 000000a4H .CRT$XCU                DATA
 0003:000000e8 00000004H .CRT$XCZ                DATA
 0003:000000ec 00000004H .CRT$XIA                DATA
 0003:000000f0 0000000cH .CRT$XIC                DATA
 0003:000000fc 00000004H .CRT$XIY                DATA
 0003:00000100 00000004H .CRT$XIZ                DATA
 0003:00000104 00000004H .CRT$XLA                DATA
 0003:00000108 00000004H .CRT$XLZ                DATA
 0003:0000010c 00000004H .CRT$XPA                DATA
 0003:00000110 00000008H .CRT$XPX                DATA
 0003:00000118 00000004H .CRT$XPZ                DATA
 0003:0000011c 00000004H .CRT$XTA                DATA
 0003:00000120 00000004H .CRT$XTB                DATA
 0003:00000124 00000004H .CRT$XTZ                DATA
 0003:00000130 0000f5c4H .data                   DATA
 0003:0000f6f8 0000bd10H .bss                    DATA
 0004:00000000 00000004H .tls                    DATA
 0004:00000004 00001150H .tls$                   DATA
 0004:00001154 00000004H .tls$ZZZ                DATA
 0005:00000000 0000133cH .rsrc$01                DATA
 0005:00001340 000196f0H .rsrc$02                DATA

  Address         Publics by Value              Rva+Base     Lib:Object

 0001:00000000       ??0CAboutDlg@@QAE@XZ       00401000 f   AboutDlg.obj
 0001:000000b0       ??_GCFont@@UAEPAXI@Z       004010b0 f i AboutDlg.obj
 0001:000000b0       ??_ECFont@@UAEPAXI@Z       004010b0 f i AboutDlg.obj
 0001:000000e0       ??1CFont@@UAE@XZ           004010e0 f i AboutDlg.obj
 0001:00000120       ??_GCGdiObject@@UAEPAXI@Z  00401120 f i AboutDlg.obj
 0001:00000120       ??_ECGdiObject@@UAEPAXI@Z  00401120 f i AboutDlg.obj
 0001:00000150       ??1CGdiObject@@UAE@XZ      00401150 f i AboutDlg.obj
 0001:00000190       ?BeginModalState@CWnd@@UAEXXZ 00401190 f i AboutDlg.obj
 0001:000001a0       ?EndModalState@CWnd@@UAEXXZ 004011a0 f i AboutDlg.obj
 0001:000001b0       ??_ECStatic@@UAEPAXI@Z     004011b0 f i AboutDlg.obj
 0001:000001b0       ??_GCStatic@@UAEPAXI@Z     004011b0 f i AboutDlg.obj
 0001:000001e0       ??_ECEdit@@UAEPAXI@Z       004011e0 f i AboutDlg.obj
 0001:000001e0       ??_GCEdit@@UAEPAXI@Z       004011e0 f i AboutDlg.obj
 0001:00000210       ??_ECAboutDlg@@UAEPAXI@Z   00401210 f i AboutDlg.obj
 0001:00000210       ??_GCAboutDlg@@UAEPAXI@Z   00401210 f i AboutDlg.obj
 0001:00000240       ??1CAboutDlg@@UAE@XZ       00401240 f i AboutDlg.obj
 0001:000002c0       ?DoDataExchange@CAboutDlg@@MAEXPAVCDataExchange@@@Z 004012c0 f   AboutDlg.obj
 0001:00000300       ?GetMessageMap@CAboutDlg@@MBEPBUAFX_MSGMAP@@XZ 00401300 f   AboutDlg.obj
 0001:00000310       ?OnOK@CAboutDlg@@MAEXXZ    00401310 f   AboutDlg.obj
 0001:00000320       ?OnInitDialog@CAboutDlg@@MAEHXZ 00401320 f   AboutDlg.obj
 0001:00000ca0       ?OnCreate@CAboutDlg@@IAEHPAUtagCREATESTRUCTA@@@Z 00401ca0 f   AboutDlg.obj
 0001:00000d90       ??1JLibPNG@@QAE@XZ         00401d90 f i AboutDlg.obj
 0001:00000da0       ?OnPaint@CAboutDlg@@IAEXXZ 00401da0 f   AboutDlg.obj
 0001:00000e20       ?OnDestroy@CAboutDlg@@IAEXXZ 00401e20 f   AboutDlg.obj
 0001:00000e50       ?OnCtlColor@CAboutDlg@@IAEPAUHBRUSH__@@PAVCDC@@PAVCWnd@@I@Z 00401e50 f   AboutDlg.obj
 0001:00000ed0       ?OnAboutUrlClick@CAboutDlg@@IAEXXZ 00401ed0 f   AboutDlg.obj
 0001:00000ee0       ?OnSetCursor@CAboutDlg@@IAEHPAVCWnd@@II@Z 00401ee0 f   AboutDlg.obj
 0001:00000f10       ??0?$JArray@D@@QAE@K@Z     00401f10 f i AboutDlg.obj
 0001:00000f70       ?Last@?$JArray@D@@QAEAADXZ 00401f70 f i AboutDlg.obj
 0001:00000f90       ?Realloc@?$JArray@D@@QAE_NK@Z 00401f90 f i AboutDlg.obj
 0001:00001020       ?Add@?$JArray@D@@QAEAADXZ  00402020 f i AboutDlg.obj
 0001:000010e0       ??0CCalendarWnd@@QAE@XZ    004020e0 f   CalendarWnd.obj
 0001:00001170       ??1CSimpleMenu@@QAE@XZ     00402170 f i CalendarWnd.obj
 0001:00001180       ??_ECCalendarWnd@@UAEPAXI@Z 00402180 f i CalendarWnd.obj
 0001:00001180       ??_GCCalendarWnd@@UAEPAXI@Z 00402180 f i CalendarWnd.obj
 0001:000011b0       ??1CCalendarWnd@@UAE@XZ    004021b0 f   CalendarWnd.obj
 0001:00001240       ?GetMessageMap@CCalendarWnd@@MBEPBUAFX_MSGMAP@@XZ 00402240 f   CalendarWnd.obj
 0001:00001250       ?OnCreate@CCalendarWnd@@IAEHPAUtagCREATESTRUCTA@@@Z 00402250 f   CalendarWnd.obj
 0001:00001390       ?SelectCell@CCalendarWnd@@AAEHAAVCPoint@@@Z 00402390 f   CalendarWnd.obj
 0001:00001440       ?OnLButtonDown@CCalendarWnd@@IAEXIVCPoint@@@Z 00402440 f   CalendarWnd.obj
 0001:00001480       ?OnLButtonDblClk@CCalendarWnd@@IAEXIVCPoint@@@Z 00402480 f   CalendarWnd.obj
 0001:000014d0       ?MakeAndSelectMenu@CCalendarWnd@@AAEHHHH@Z 004024d0 f   CalendarWnd.obj
 0001:000015a0       ?SetMonth@CCalendarWnd@@AAEXHH@Z 004025a0 f   CalendarWnd.obj
 0001:000015e0       ?OnLButtonUp@CCalendarWnd@@IAEXIVCPoint@@@Z 004025e0 f   CalendarWnd.obj
 0001:000016d0       ?OnRButtonUp@CCalendarWnd@@IAEXIVCPoint@@@Z 004026d0 f   CalendarWnd.obj
 0001:000017c0       ?OnKeyDown@CCalendarWnd@@IAEXIII@Z 004027c0 f   CalendarWnd.obj
 0001:000018b0       ?OnMouseMove@CCalendarWnd@@IAEXIVCPoint@@@Z 004028b0 f   CalendarWnd.obj
 0001:00001a00       ?OnPaint@CCalendarWnd@@IAEXXZ 00402a00 f   CalendarWnd.obj
 0001:00001a60       ?OnMenuClose@CCalendarWnd@@IAEXXZ 00402a60 f   CalendarWnd.obj
 0001:00001a70       ?OnMenuEdit@CCalendarWnd@@IAEXXZ 00402a70 f   CalendarWnd.obj
 0001:00001a80       ?OnMenuNext@CCalendarWnd@@IAEXXZ 00402a80 f   CalendarWnd.obj
 0001:00001a90       ?OnMenuPrev@CCalendarWnd@@IAEXXZ 00402a90 f   CalendarWnd.obj
 0001:00001aa0       ?MoveMonth@CCalendarWnd@@QAEXH@Z 00402aa0 f   CalendarWnd.obj
 0001:00001af0       ?OnMouseWheel@CCalendarWnd@@IAEHIFVCPoint@@@Z 00402af0 f   CalendarWnd.obj
 0001:00001b30       ?UpdateWindowSize@CCalendarWnd@@QAEXXZ 00402b30 f   CalendarWnd.obj
 0001:00001b50       ?UpdateSkinMenu@CCalendarWnd@@QAEXXZ 00402b50 f   CalendarWnd.obj
 0001:00001cc0       ?UpdateSensorMenu@CCalendarWnd@@QAEXXZ 00402cc0 f   CalendarWnd.obj
 0001:00001d80       ?OnCommand@CCalendarWnd@@MAEHIJ@Z 00402d80 f   CalendarWnd.obj
 0001:00001f20       ?DoPostSchedule@CCalendarWnd@@QAEXPAVSPScheduleSensorProp@@PAVSPScheduleEntry@@@Z 00402f20 f   CalendarWnd.obj
 0001:00001f40       ?OnMenuReadevent@CCalendarWnd@@IAEXXZ 00402f40 f   CalendarWnd.obj
 0001:00001f50       ?OnMenuTodaysschedule@CCalendarWnd@@IAEXXZ 00402f50 f   CalendarWnd.obj
 0001:00001f70       ?TimerExec@CCalendarWnd@@QAEXPAVSPGhost@@AAU_SYSTEMTIME@@@Z 00402f70 f   CalendarWnd.obj
 0001:00002040       ?OnMenuTopmost@CCalendarWnd@@IAEXXZ 00403040 f   CalendarWnd.obj
 0001:000020d0       ?OnMenuDelete@CCalendarWnd@@IAEXXZ 004030d0 f   CalendarWnd.obj
 0001:00002140       ?OnMenuDeleteMonth@CCalendarWnd@@IAEXXZ 00403140 f   CalendarWnd.obj
 0001:00002180       ?OnMenuDeleteYear@CCalendarWnd@@IAEXXZ 00403180 f   CalendarWnd.obj
 0001:000021b0       ?OnDestroy@CCalendarWnd@@IAEXXZ 004031b0 f   CalendarWnd.obj
 0001:00002220       ?SaveWindowPos@CCalendarWnd@@AAEXXZ 00403220 f   CalendarWnd.obj
 0001:00002240       ?ShowScheduleSetting@CCalendarWnd@@AAEXXZ 00403240 f   CalendarWnd.obj
 0001:000022f0       ??3CObject@@SGXPAX@Z       004032f0 f i CalendarWnd.obj
 0001:00002310       ?OnMenuCenter@CCalendarWnd@@IAEXXZ 00403310 f   CalendarWnd.obj
 0001:00002330       ?OnDrawItem@CCalendarWnd@@IAEXHPAUtagDRAWITEMSTRUCT@@@Z 00403330 f   CalendarWnd.obj
 0001:00002370       ?OnMeasureItem@CCalendarWnd@@IAEXHPAUtagMEASUREITEMSTRUCT@@@Z 00403370 f   CalendarWnd.obj
 0001:000023b0       ??0CCharBodyWnd@@QAE@XZ    004033b0 f   CharBodyWnd.obj
 0001:00002410       ??_GCCharBodyWnd@@UAEPAXI@Z 00403410 f i CharBodyWnd.obj
 0001:00002410       ??_ECCharBodyWnd@@UAEPAXI@Z 00403410 f i CharBodyWnd.obj
 0001:00002440       ??1CCharBodyWnd@@UAE@XZ    00403440 f   CharBodyWnd.obj
 0001:000024a0       ?GetMessageMap@CCharBodyWnd@@MBEPBUAFX_MSGMAP@@XZ 004034a0 f   CharBodyWnd.obj
 0001:000024b0       ?OnLButtonDblClk@CCharBodyWnd@@IAEXIVCPoint@@@Z 004034b0 f   CharBodyWnd.obj
 0001:000024e0       ?OnMouseMove@CCharBodyWnd@@IAEXIVCPoint@@@Z 004034e0 f   CharBodyWnd.obj
 0001:00002510       ?WindowProc@CCharBodyWnd@@MAEJIIJ@Z 00403510 f   CharBodyWnd.obj
 0001:00002560       ?GetDefaultWndPosX@CCharBodyWnd@@UAEHAAJAAVJRect@@1AAVJPoint@@@Z 00403560 f   CharBodyWnd.obj
 0001:00002620       ?SetCharWndProp@CCharBodyWnd@@QAEXHPAVCSakuraWnd@@@Z 00403620 f   CharBodyWnd.obj
 0001:00002650       ?OnDestroy@CCharBodyWnd@@IAEXXZ 00403650 f   CharBodyWnd.obj
 0001:00002650       ?OnDestroy@CKeroWnd@@IAEXXZ 00403650 f   CharBodyWnd.obj
 0001:00002670       ??_ECCharBodyWnd@@WDM@AEPAXI@Z 00403670 f i CharBodyWnd.obj
 0001:00002860       ??0CCharWndCode@@QAE@XZ    00403860 f   CharWndCode.obj
 0001:00002a90       ??_GCCharWndCode@@UAEPAXI@Z 00403a90 f i CharWndCode.obj
 0001:00002a90       ??_ECCharWndCode@@UAEPAXI@Z 00403a90 f i CharWndCode.obj
 0001:00002ac0       ??1CCharWndCode@@UAE@XZ    00403ac0 f   CharWndCode.obj
 0001:00002b80       ?CCWC_Initialize@CCharWndCode@@IAEXXZ 00403b80 f   CharWndCode.obj
 0001:00002e40       ?CCWC_Destroy@CCharWndCode@@IAEXXZ 00403e40 f   CharWndCode.obj
 0001:00002ff0       ?InitWndMenu@CCharWndCode@@QAEXXZ 00403ff0 f   CharWndCode.obj
 0001:00003060       ?ResetMenuState@CCharWndCode@@QAEXXZ 00404060 f   CharWndCode.obj
 0001:00003070       ?CWGetCursorPos@CCharWndCode@@IBEXAAVJPoint@@@Z 00404070 f   CharWndCode.obj
 0001:000030d0       ?CCWC_OnMouseMove@CCharWndCode@@IAEHIAAVCPoint@@@Z 004040d0 f   CharWndCode.obj
 0001:00003640       ?SendGestureEvent@CCharWndCode@@AAEHPAGABUtagPOINT@@0H@Z 00404640 f   CharWndCode.obj
 0001:000037d0       ??_ESPModuleEvent@@UAEPAXI@Z 004047d0 f i CharWndCode.obj
 0001:000037d0       ??_GSPModuleEvent@@UAEPAXI@Z 004047d0 f i CharWndCode.obj
 0001:00003800       ??_ESPShioriEvent@@UAEPAXI@Z 00404800 f i CharWndCode.obj
 0001:00003800       ??_GSPShioriEvent@@UAEPAXI@Z 00404800 f i CharWndCode.obj
 0001:00003830       ?CCWC_OnMouseDoubleClick@CCharWndCode@@IAEHJJ@Z 00404830 f   CharWndCode.obj
 0001:000038e0       ?CCWC_PreTranslateMessage@CCharWndCode@@IAEHAAUtagMSG@@@Z 004048e0 f   CharWndCode.obj
 0001:00003970       ?CCWC_WindowProc@CCharWndCode@@IAEHIIJAAJ@Z 00404970 f   CharWndCode.obj
 0001:00003a60       ?OnCWPaint@CCharWndCode@@IAEHIJAAJ@Z 00404a60 f   CharWndCode.obj
 0001:00003ad0       ?OnCWPrintClient@CCharWndCode@@IAEHIJAAJ@Z 00404ad0 f   CharWndCode.obj
 0001:00003b00       ?OnCWEraseBkgnd@CCharWndCode@@IAEHIJAAJ@Z 00404b00 f   CharWndCode.obj
 0001:00003b20       ?OnCWMouseWheel@CCharWndCode@@IAEHIJAAJ@Z 00404b20 f   CharWndCode.obj
 0001:00003bf0       ?OnCWHScroll@CCharWndCode@@IAEHIJAAJ@Z 00404bf0 f   CharWndCode.obj
 0001:00003ca0       ?OnCWVScroll@CCharWndCode@@IAEHIJAAJ@Z 00404ca0 f   CharWndCode.obj
 0001:00003d50       ?OnCWMove@CCharWndCode@@IAEHIJAAJ@Z 00404d50 f   CharWndCode.obj
 0001:00003de0       ?OnCWMButtonDown@CCharWndCode@@IAEHIJAAJ@Z 00404de0 f   CharWndCode.obj
 0001:00003e70       ?OnCWMButtonUp@CCharWndCode@@IAEHIJAAJ@Z 00404e70 f   CharWndCode.obj
 0001:00003f10       ?OnCWRButtonDoubleClick@CCharWndCode@@IAEHIJAAJ@Z 00404f10 f   CharWndCode.obj
 0001:00003f90       ?OnCWMButtonDoubleClick@CCharWndCode@@IAEHIJAAJ@Z 00404f90 f   CharWndCode.obj
 0001:00004010       ?OnCWSetCursor@CCharWndCode@@IAEHIJAAJ@Z 00405010 f   CharWndCode.obj
 0001:000040a0       ?OnCWLButtonDown@CCharWndCode@@IAEHIJAAJ@Z 004050a0 f   CharWndCode.obj
 0001:00004190       ?OnCWLButtonUp@CCharWndCode@@IAEHIJAAJ@Z 00405190 f   CharWndCode.obj
 0001:000042b0       ?OnCWRButtonDown@CCharWndCode@@IAEHIJAAJ@Z 004052b0 f   CharWndCode.obj
 0001:00004410       ?OnCWRButtonUp@CCharWndCode@@IAEHIJAAJ@Z 00405410 f   CharWndCode.obj
 0001:00004500       ?OnCWContextMenu@CCharWndCode@@IAEHIJAAJ@Z 00405500 f   CharWndCode.obj
 0001:00004760       ?ShowContextMenu@CCharWndCode@@IAEXXZ 00405760 f   CharWndCode.obj
 0001:000047b0       ?OnCWKeyDown@CCharWndCode@@IAEHIJAAJ@Z 004057b0 f   CharWndCode.obj
 0001:00004810       ?ProcessKeyDown@CCharWndCode@@IAEXIJ@Z 00405810 f   CharWndCode.obj
 0001:00004a20       ?OnCWDisplayChange@CCharWndCode@@IAEHIJAAJ@Z 00405a20 f   CharWndCode.obj
 0001:00004a50       ?OnCWDrawItem@CCharWndCode@@IAEHIJAAJ@Z 00405a50 f   CharWndCode.obj
 0001:00004ab0       ?OnCWMeasureItem@CCharWndCode@@IAEHIJAAJ@Z 00405ab0 f   CharWndCode.obj
 0001:00004ae0       ?OnCWDropFiles@CCharWndCode@@IAEHIJAAJ@Z 00405ae0 f   CharWndCode.obj
 0001:00004bb0       ?OnCWGetMinMaxInfo@CCharWndCode@@IAEHIJAAJ@Z 00405bb0 f   CharWndCode.obj
 0001:00004c10       ?OnCWMenuSelect@CCharWndCode@@IAEHIJAAJ@Z 00405c10 f   CharWndCode.obj
 0001:00004d80       ?OnCWTimer@CCharWndCode@@IAEHIJAAJ@Z 00405d80 f   CharWndCode.obj
 0001:00004ec0       ?OnCWMouseLeave@CCharWndCode@@IAEHIJAAJ@Z 00405ec0 f   CharWndCode.obj
 0001:00004f70       ?OnCWNotify@CCharWndCode@@IAEHIJAAJ@Z 00405f70 f   CharWndCode.obj
 0001:00004fb0       ?ProcessThumbnail@CCharWndCode@@IAEXI@Z 00405fb0 f   CharWndCode.obj
 0001:000052b0       ?ModifyMenuWithTable@CCharWndCode@@IAEXPAVSPMenuItem@@PBUtagSPMENUMODIFYTABLE@@I@Z 004062b0 f   CharWndCode.obj
 0001:000055d0       ?UpdateMessageWndPos@CCharWndCode@@QAEXXZ 004065d0 f   CharWndCode.obj
 0001:00005600       ?UpdateWndRecommendation@CCharWndCode@@UAEXXZ 00406600 f   CharWndCode.obj
 0001:000057a0       ?ModifyPopupMenu@CCharWndCode@@MAEXXZ 004067a0 f   CharWndCode.obj
 0001:00005aa0       ?ModifyPopupMenuEnableStateChar@CCharWndCode@@AAEX_N@Z 00406aa0 f   CharWndCode.obj
 0001:00005c10       ?CCWC_OnCommand@CCharWndCode@@IAEHIJ@Z 00406c10 f   CharWndCode.obj
 0001:00005fe0       ?CCWC_OnSSPSysMsg@CCharWndCode@@IAEHIJ@Z 00406fe0 f   CharWndCode.obj
 0001:00006270       ?GetDefaultWndPosX@CCharWndCode@@MAEHAAJAAVJRect@@1AAVJPoint@@@Z 00407270 f   CharWndCode.obj
 0001:00006320       ?GetDefaultWndPosXImpl@CCharWndCode@@AAEHPBGAAJAAVJRect@@2AAVJPoint@@@Z 00407320 f   CharWndCode.obj
 0001:00006490       ?GetDefaultWndPosY@CCharWndCode@@MAEHAAJAAVJRect@@1AAVJPoint@@@Z 00407490 f   CharWndCode.obj
 0001:00006540       ?GetDefaultWndPosYImpl@CCharWndCode@@AAEHPBGAAJAAVJRect@@2AAVJPoint@@@Z 00407540 f   CharWndCode.obj
 0001:000066b0       ?UpdateWndSize@CCharWndCode@@QAEXIHH@Z 004076b0 f   CharWndCode.obj
 0001:00006a40       ?UpdateBindMenu@CCharWndCode@@QAEXXZ 00407a40 f   CharWndCode.obj
 0001:000070b0       ?UpdateBindMenuCheck@CCharWndCode@@QAEXXZ 004080b0 f   CharWndCode.obj
 0001:00007140       ?MouseDragStartEnd@CCharWndCode@@AAEXAAVJPoint@@PAG_N@Z 00408140 f   CharWndCode.obj
 0001:00007270       ?MouseDragFadeExec@CCharWndCode@@AAEX_N@Z 00408270 f   CharWndCode.obj
 0001:000072e0       ?ToolTipDispInfo@CCharWndCode@@AAE_NAAUtagNMTTDISPINFOA@@@Z 004082e0 f   CharWndCode.obj
 0001:000075e0       ?ToolTipActivate@CCharWndCode@@AAEX_N@Z 004085e0 f   CharWndCode.obj
 0001:00007680       ?Size@?$JArray@D@@QBEKXZ   00408680 f i CharWndCode.obj
 0001:000076a0       ?Size@?$JArray@G@@QBEKXZ   004086a0 f i CharWndCode.obj
 0001:000076c0       ?Add@?$JArray@PAX@@QAEXPBQAXJ@Z 004086c0 f i CharWndCode.obj
 0001:000077c0       ?Add@?$JArray@K@@QAEAAKXZ  004087c0 f i CharWndCode.obj
 0001:000077c0       ?Add@?$JArray@PAX@@QAEAAPAXXZ 004087c0 f i CharWndCode.obj
 0001:000078a0       ?Realloc@?$JArray@G@@QAE_NK@Z 004088a0 f i CharWndCode.obj
 0001:00007940       ?Add@?$JArray@G@@QAEAAGXZ  00408940 f i CharWndCode.obj
 0001:00007a10       ??0CDeveloperSettingDlg@@QAE@PAVCWnd@@@Z 00408a10 f   DeveloperSetting.obj
 0001:00007b10       ??_ECComboBox@@UAEPAXI@Z   00408b10 f i DeveloperSetting.obj
 0001:00007b10       ??_GCComboBox@@UAEPAXI@Z   00408b10 f i DeveloperSetting.obj
 0001:00007b40       ??_GCDeveloperSettingDlg@@UAEPAXI@Z 00408b40 f i DeveloperSetting.obj
 0001:00007b40       ??_ECDeveloperSettingDlg@@UAEPAXI@Z 00408b40 f i DeveloperSetting.obj
 0001:00007b70       ??1CDeveloperSettingDlg@@UAE@XZ 00408b70 f i DeveloperSetting.obj
 0001:00007c00       ?DoDataExchange@CDeveloperSettingDlg@@MAEXPAVCDataExchange@@@Z 00408c00 f   DeveloperSetting.obj
 0001:00007c60       ?GetMessageMap@CDeveloperSettingDlg@@MBEPBUAFX_MSGMAP@@XZ 00408c60 f   DeveloperSetting.obj
 0001:00007c70       ?OnInitDialog@CDeveloperSettingDlg@@MAEHXZ 00408c70 f   DeveloperSetting.obj
 0001:000080e0       ?OnDestroy@CDeveloperSettingDlg@@IAEXXZ 004090e0 f   DeveloperSetting.obj
 0001:00008220       ?OnEnableChangeFmoName@CDeveloperSettingDlg@@IAEXXZ 00409220 f   DeveloperSetting.obj
 0001:000082a0       ?OnChangeFmoName@CDeveloperSettingDlg@@IAEXXZ 004092a0 f   DeveloperSetting.obj
 0001:000082f0       ?OnUpdateDefChange@CDeveloperSettingDlg@@IAEXXZ 004092f0 f   DeveloperSetting.obj
 0001:000083b0       ?OnSetDirDrop@CDeveloperSettingDlg@@IAEXXZ 004093b0 f   DeveloperSetting.obj
 0001:000083d0       ?OnNarpathRadio@CDeveloperSettingDlg@@IAEXXZ 004093d0 f   DeveloperSetting.obj
 0001:00008430       ?OnNarPathUserAsk@CDeveloperSettingDlg@@IAEXXZ 00409430 f   DeveloperSetting.obj
 0001:00008510       ?OnUpdateBackupfiles@CDeveloperSettingDlg@@IAEXXZ 00409510 f   DeveloperSetting.obj
 0001:00008530       ?OnUpdateIgnoreReadonly@CDeveloperSettingDlg@@IAEXXZ 00409530 f   DeveloperSetting.obj
 0001:00008550       ?OnHideSurfaceError@CDeveloperSettingDlg@@IAEXXZ 00409550 f   DeveloperSetting.obj
 0001:00008580       ?OnChangeNarPath@CDeveloperSettingDlg@@IAEXXZ 00409580 f   DeveloperSetting.obj
 0001:000085d0       ?OnNarDefault@CDeveloperSettingDlg@@IAEXXZ 004095d0 f   DeveloperSetting.obj
 0001:000086d0       ?OnNarBrowse@CDeveloperSettingDlg@@IAEXXZ 004096d0 f   DeveloperSetting.obj
 0001:000087b0       ?OnSakuraMutex@CDeveloperSettingDlg@@IAEXXZ 004097b0 f   DeveloperSetting.obj
 0001:000087e0       ?OnDisableVanish@CDeveloperSettingDlg@@IAEXXZ 004097e0 f   DeveloperSetting.obj
 0001:00008810       ?OnDisableLock@CDeveloperSettingDlg@@IAEXXZ 00409810 f   DeveloperSetting.obj
 0001:00008830       ?OnTortoiseSVN@CDeveloperSettingDlg@@IAEXXZ 00409830 f   DeveloperSetting.obj
 0001:00008850       ?OnSelchangeNotifyError@CDeveloperSettingDlg@@IAEXXZ 00409850 f   DeveloperSetting.obj
 0001:00008890       ??0CDevPalette@@QAE@PAVCWnd@@@Z 00409890 f   DevPalette.obj
 0001:000088c0       ??_GCDirectoryDrop@@UAEPAXI@Z 004098c0 f i DevPalette.obj
 0001:000088c0       ??_ECDevPalette@@UAEPAXI@Z 004098c0 f i DevPalette.obj
 0001:000088c0       ??_ECDirectoryDrop@@UAEPAXI@Z 004098c0 f i DevPalette.obj
 0001:000088c0       ??_GCDevPalette@@UAEPAXI@Z 004098c0 f i DevPalette.obj
 0001:000088f0       ??1CDevPalette@@UAE@XZ     004098f0 f i DevPalette.obj
 0001:000088f0       ??1CDirectoryDrop@@UAE@XZ  004098f0 f i DevPalette.obj
 0001:00008900       ?GetMessageMap@CDevPalette@@MBEPBUAFX_MSGMAP@@XZ 00409900 f   DevPalette.obj
 0001:00008910       ?OnCancel@CDevPalette@@MAEXXZ 00409910 f   DevPalette.obj
 0001:00008910       ?OnClose@CDevPalette@@IAEXXZ 00409910 f   DevPalette.obj
 0001:00008930       ?SetGhost@CDevPalette@@QAEXPAVCSakuraWnd@@@Z 00409930 f   DevPalette.obj
 0001:00008950       ?OnInitDialog@CDevPalette@@MAEHXZ 00409950 f   DevPalette.obj
 0001:00008b10       ?OnDestroy@CDevPalette@@IAEXXZ 00409b10 f   DevPalette.obj
 0001:00008b40       ?OnOpenScript@CDevPalette@@IAEXXZ 00409b40 f   DevPalette.obj
 0001:00008b70       ?OnOpenSurfacetest@CDevPalette@@IAEXXZ 00409b70 f   DevPalette.obj
 0001:00008ba0       ?OnOpenErrorlog@CDevPalette@@IAEXXZ 00409ba0 f   DevPalette.obj
 0001:00008bc0       ?OnShowHitRect@CDevPalette@@IAEXXZ 00409bc0 f   DevPalette.obj
 0001:00008c50       ?OnBalloonTest@CDevPalette@@IAEXXZ 00409c50 f   DevPalette.obj
 0001:00008ca0       ??0SPShioriEventResult@@QAE@PBG@Z 00409ca0 f i DevPalette.obj
 0001:00008cc0       ?OnAdjustSerikoWait@CDevPalette@@IAEXXZ 00409cc0 f   DevPalette.obj
 0001:00008e20       ??1CStdInput@@UAE@XZ       00409e20 f i DevPalette.obj
 0001:00008e90       ?OnShioriLog@CDevPalette@@IAEXXZ 00409e90 f   DevPalette.obj
 0001:00008ed0       ?OnExecReload@CDevPalette@@IAEXXZ 00409ed0 f   DevPalette.obj
 0001:000090e0       ??1CWaitCursor@@QAE@XZ     0040a0e0 f i DevPalette.obj
 0001:000090f0       ?OnDummyUpdate@CDevPalette@@IAEXXZ 0040a0f0 f   DevPalette.obj
 0001:00009130       ?OnChangeSender@CDevPalette@@IAEXXZ 0040a130 f   DevPalette.obj
 0001:00009320       ?OnExecOpen@CDevPalette@@IAEXXZ 0040a320 f   DevPalette.obj
 0001:00009520       ??0CDirectoryDrop@@QAE@PAVCWnd@@@Z 0040a520 f   DirectoryDrop.obj
 0001:00009550       ?DoDataExchange@CDevPalette@@MAEXPAVCDataExchange@@@Z 0040a550 f   DirectoryDrop.obj
 0001:00009550       ?DoDataExchange@CDirectoryDrop@@MAEXPAVCDataExchange@@@Z 0040a550 f   DirectoryDrop.obj
 0001:00009560       ?GetMessageMap@CDirectoryDrop@@MBEPBUAFX_MSGMAP@@XZ 0040a560 f   DirectoryDrop.obj
 0001:00009570       ?OnOK@CDirectoryDrop@@MAEXXZ 0040a570 f   DirectoryDrop.obj
 0001:000095c0       ?OnCancel@CDirectoryDrop@@MAEXXZ 0040a5c0 f   DirectoryDrop.obj
 0001:000095e0       ?OnInitDialog@CDirectoryDrop@@MAEHXZ 0040a5e0 f   DirectoryDrop.obj
 0001:00009650       ??0CDirServPropDlg@@QAE@PAVCWnd@@@Z 0040a650 f   DirServPropDlg.obj
 0001:00009730       ??_GCDirServPropDlg@@UAEPAXI@Z 0040a730 f i DirServPropDlg.obj
 0001:00009730       ??_ECDirServPropDlg@@UAEPAXI@Z 0040a730 f i DirServPropDlg.obj
 0001:00009760       ??1CDirServPropDlg@@UAE@XZ 0040a760 f i DirServPropDlg.obj
 0001:000097f0       ?DoDataExchange@CDirServPropDlg@@MAEXPAVCDataExchange@@@Z 0040a7f0 f   DirServPropDlg.obj
 0001:00009860       ?GetMessageMap@CDirServPropDlg@@MBEPBUAFX_MSGMAP@@XZ 0040a860 f   DirServPropDlg.obj
 0001:00009870       ?OnOK@CDirServPropDlg@@MAEXXZ 0040a870 f   DirServPropDlg.obj
 0001:00009ad0       ?OnInitDialog@CDirServPropDlg@@MAEHXZ 0040aad0 f   DirServPropDlg.obj
 0001:00009b80       ?CreateObject@CDispDlg@@SGPAVCObject@@XZ 0040ab80 f   DispDlg.obj
 0001:00009be0       ?GetRuntimeClass@CDispDlg@@UBEPAUCRuntimeClass@@XZ 0040abe0 f   DispDlg.obj
 0001:00009bf0       ??0CDispDlg@@QAE@PAVCWnd@@@Z 0040abf0 f   DispDlg.obj
 0001:00009d40       ??_GCSpinButtonCtrl@@UAEPAXI@Z 0040ad40 f i DispDlg.obj
 0001:00009d40       ??_ECSpinButtonCtrl@@UAEPAXI@Z 0040ad40 f i DispDlg.obj
 0001:00009d70       ??_GCSliderCtrl@@UAEPAXI@Z 0040ad70 f i DispDlg.obj
 0001:00009d70       ??_ECSliderCtrl@@UAEPAXI@Z 0040ad70 f i DispDlg.obj
 0001:00009da0       ??_GCDispDlg@@UAEPAXI@Z    0040ada0 f i DispDlg.obj
 0001:00009da0       ??_ECDispDlg@@UAEPAXI@Z    0040ada0 f i DispDlg.obj
 0001:00009dd0       ??1CDispDlg@@UAE@XZ        0040add0 f i DispDlg.obj
 0001:00009ec0       ?DoDataExchange@CDispDlg@@MAEXPAVCDataExchange@@@Z 0040aec0 f   DispDlg.obj
 0001:00009fa0       ?GetMessageMap@CDispDlg@@MBEPBUAFX_MSGMAP@@XZ 0040afa0 f   DispDlg.obj
 0001:00009fb0       ?OnInitDialog@CDispDlg@@MAEHXZ 0040afb0 f   DispDlg.obj
 0001:0000a2b0       ?OnHScroll@CDispDlg@@IAEXIIPAVCScrollBar@@@Z 0040b2b0 f   DispDlg.obj
 0001:0000a4d0       ?UpdateLWinConfigEnabled@CDispDlg@@IAEXXZ 0040b4d0 f   DispDlg.obj
 0001:0000a530       ?OnLayered@CDispDlg@@IAEXXZ 0040b530 f   DispDlg.obj
 0001:0000a570       ?OnCrossfader@CDispDlg@@IAEXXZ 0040b570 f   DispDlg.obj
 0001:0000a5b0       ?OnExtendMenuWidthClick@CDispDlg@@IAEXXZ 0040b5b0 f   DispDlg.obj
 0001:0000a5e0       ?OnDontSetCursorClick@CDispDlg@@IAEXXZ 0040b5e0 f   DispDlg.obj
 0001:0000a620       ?OnChangeDesktopOffset@CDispDlg@@IAEXXZ 0040b620 f   DispDlg.obj
 0001:0000a680       ?OnShowThumbnail@CDispDlg@@IAEXXZ 0040b680 f   DispDlg.obj
 0001:0000a6c0       ?OnCreateSubmenu@CDispDlg@@IAEXXZ 0040b6c0 f   DispDlg.obj
 0001:0000a6f0       ?OnChangeMenuLimit@CDispDlg@@IAEXXZ 0040b6f0 f   DispDlg.obj
 0001:0000a760       ?OnDestroy@CDispDlg@@IAEXXZ 0040b760 f   DispDlg.obj
 0001:0000a880       ?OnChangeHistoryLimit@CDispDlg@@IAEXXZ 0040b880 f   DispDlg.obj
 0001:0000a8e0       ?OnChangeMenuHeight@CDispDlg@@IAEXXZ 0040b8e0 f   DispDlg.obj
 0001:0000a950       ?OnDragdrop@CDispDlg@@IAEXXZ 0040b950 f   DispDlg.obj
 0001:0000a980       ?OnFlip3d@CDispDlg@@IAEXXZ 0040b980 f   DispDlg.obj
 0001:0000aaa0       ?GetItemCheck@CDlgUtil@@SIJPAUHWND__@@H@Z 0040baa0 f   DlgUtil.obj
 0001:0000aad0       ?SetItemCheck@CDlgUtil@@SI_NPAUHWND__@@HH@Z 0040bad0 f   DlgUtil.obj
 0001:0000ab10       ?EnableItem@CDlgUtil@@SI_NPAUHWND__@@HH@Z 0040bb10 f   DlgUtil.obj
 0001:0000ab70       ?SetFocusItem@CDlgUtil@@SI_NPAUHWND__@@H@Z 0040bb70 f   DlgUtil.obj
 0001:0000abb0       ?GetItemRect@CDlgUtil@@SI_NPAUHWND__@@HAAUtagRECT@@@Z 0040bbb0 f   DlgUtil.obj
 0001:0000abe0       ?ModifyStyle@CDlgUtil@@SI_NPAUHWND__@@HKK@Z 0040bbe0 f   DlgUtil.obj
 0001:0000ac40       ?GetText@CDlgUtil@@SI_NPAUHWND__@@AAVJWString@@@Z 0040bc40 f   DlgUtil.obj
 0001:0000ad80       ?SetText@CDlgUtil@@SI_NPAUHWND__@@PBG@Z 0040bd80 f   DlgUtil.obj
 0001:0000ae90       ?CreateObject@CExtAppDlg@@SGPAVCObject@@XZ 0040be90 f   ExtAppDlg.obj
 0001:0000aef0       ?GetRuntimeClass@CExtAppDlg@@UBEPAUCRuntimeClass@@XZ 0040bef0 f   ExtAppDlg.obj
 0001:0000af00       ??0CExtAppDlg@@QAE@PAVCWnd@@@Z 0040bf00 f   ExtAppDlg.obj
 0001:0000afb0       ??_ECExtAppDlg@@UAEPAXI@Z  0040bfb0 f i ExtAppDlg.obj
 0001:0000afb0       ??_GCExtAppDlg@@UAEPAXI@Z  0040bfb0 f i ExtAppDlg.obj
 0001:0000afe0       ??1CExtAppDlg@@UAE@XZ      0040bfe0 f i ExtAppDlg.obj
 0001:0000b060       ?DoDataExchange@CExtAppDlg@@MAEXPAVCDataExchange@@@Z 0040c060 f   ExtAppDlg.obj
 0001:0000b0c0       ?GetMessageMap@CExtAppDlg@@MBEPBUAFX_MSGMAP@@XZ 0040c0c0 f   ExtAppDlg.obj
 0001:0000b0d0       ?ChoiceExeFile@CExtAppDlg@@AAEHAAVJString@@PAD@Z 0040c0d0 f   ExtAppDlg.obj
 0001:0000b1d0       ?OnRefBrowser@CExtAppDlg@@IAEXXZ 0040c1d0 f   ExtAppDlg.obj
 0001:0000b230       ?OnRefFiler@CExtAppDlg@@IAEXXZ 0040c230 f   ExtAppDlg.obj
 0001:0000b290       ?OnRefMailer@CExtAppDlg@@IAEXXZ 0040c290 f   ExtAppDlg.obj
 0001:0000b2f0       ?OnInitDialog@CExtAppDlg@@MAEHXZ 0040c2f0 f   ExtAppDlg.obj
 0001:0000b3b0       ?OnChangeDefaultBrowser@CExtAppDlg@@IAEXXZ 0040c3b0 f   ExtAppDlg.obj
 0001:0000b410       ?OnChangeDefaultFiler@CExtAppDlg@@IAEXXZ 0040c410 f   ExtAppDlg.obj
 0001:0000b460       ?OnChangeDefaultMailer@CExtAppDlg@@IAEXXZ 0040c460 f   ExtAppDlg.obj
 0001:0000b4c0       ?OnChangeDefaultMailerArg@CExtAppDlg@@IAEXXZ 0040c4c0 f   ExtAppDlg.obj
 0001:0000b520       ??0CFolderDlg@@QAE@PAVCWnd@@@Z 0040c520 f   FolderDlg.obj
 0001:0000b5d0       ??_ECFolderDlg@@UAEPAXI@Z  0040c5d0 f i FolderDlg.obj
 0001:0000b5d0       ??_GCFolderDlg@@UAEPAXI@Z  0040c5d0 f i FolderDlg.obj
 0001:0000b600       ??1CFolderDlg@@UAE@XZ      0040c600 f i FolderDlg.obj
 0001:0000b680       ?DoDataExchange@CFolderDlg@@MAEXPAVCDataExchange@@@Z 0040c680 f   FolderDlg.obj
 0001:0000b6e0       ?GetMessageMap@CFolderDlg@@MBEPBUAFX_MSGMAP@@XZ 0040c6e0 f   FolderDlg.obj
 0001:0000b6f0       ?OnInitDialog@CFolderDlg@@MAEHXZ 0040c6f0 f   FolderDlg.obj
 0001:0000b710       ?OnGhostEdit@CFolderDlg@@IAEXXZ 0040c710 f   FolderDlg.obj
 0001:0000b860       ??1SPStaticStringArrayW@@QAE@XZ 0040c860 f i FolderDlg.obj
 0001:0000b900       ??1SPDataPathList@@QAE@XZ  0040c900 f i FolderDlg.obj
 0001:0000b970       ??1CFolderEditDlg@@UAE@XZ  0040c970 f i FolderDlg.obj
 0001:0000ba30       ?OnBalloonEdit@CFolderDlg@@IAEXXZ 0040ca30 f   FolderDlg.obj
 0001:0000ba70       ?OnHeadlineEdit@CFolderDlg@@IAEXXZ 0040ca70 f   FolderDlg.obj
 0001:0000bab0       ?OnPluginEdit@CFolderDlg@@IAEXXZ 0040cab0 f   FolderDlg.obj
 0001:0000baf0       ?UpdateNum@CFolderDlg@@IAEXXZ 0040caf0 f   FolderDlg.obj
 0001:0000bba0       ?OnGhostReload@CFolderDlg@@IAEXXZ 0040cba0 f   FolderDlg.obj
 0001:0000bbd0       ?OnBalloonReload@CFolderDlg@@IAEXXZ 0040cbd0 f   FolderDlg.obj
 0001:0000bc00       ?OnHeadlineReload@CFolderDlg@@IAEXXZ 0040cc00 f   FolderDlg.obj
 0001:0000bc30       ?OnPluginReload@CFolderDlg@@IAEXXZ 0040cc30 f   FolderDlg.obj
 0001:0000bc60       ??0CFolderEditDlg@@QAE@PAVCWnd@@@Z 0040cc60 f   FolderEditDlg.obj
 0001:0000bd40       ??_ECListCtrl@@UAEPAXI@Z   0040cd40 f i FolderEditDlg.obj
 0001:0000bd40       ??_GCListCtrl@@UAEPAXI@Z   0040cd40 f i FolderEditDlg.obj
 0001:0000bd70       ??0SPStaticStringArrayW@@QAE@XZ 0040cd70 f i FolderEditDlg.obj
 0001:0000bdd0       ??_ECFolderEditDlg@@UAEPAXI@Z 0040cdd0 f i FolderEditDlg.obj
 0001:0000bdd0       ??_GCFolderEditDlg@@UAEPAXI@Z 0040cdd0 f i FolderEditDlg.obj
 0001:0000be00       ?DoDataExchange@CFolderEditDlg@@MAEXPAVCDataExchange@@@Z 0040ce00 f   FolderEditDlg.obj
 0001:0000be20       ?GetMessageMap@CFolderEditDlg@@MBEPBUAFX_MSGMAP@@XZ 0040ce20 f   FolderEditDlg.obj
 0001:0000be30       ?OnInitDialog@CFolderEditDlg@@MAEHXZ 0040ce30 f   FolderEditDlg.obj
 0001:0000bff0       ?OnDestroy@CFolderEditDlg@@IAEXXZ 0040cff0 f   FolderEditDlg.obj
 0001:0000c010       ?UpdateList@CFolderEditDlg@@IAEXXZ 0040d010 f   FolderEditDlg.obj
 0001:0000c4e0       ??0JString@@QAE@XZ         0040d4e0 f i FolderEditDlg.obj
 0001:0000c6a0       ?GetListSel@CFolderEditDlg@@IAEHXZ 0040d6a0 f   FolderEditDlg.obj
 0001:0000c6e0       ?SetListSel@CFolderEditDlg@@IAEXH@Z 0040d6e0 f   FolderEditDlg.obj
 0001:0000c720       ?OnOK@CFolderEditDlg@@MAEXXZ 0040d720 f   FolderEditDlg.obj
 0001:0000c770       ?OnCancel@CFolderEditDlg@@MAEXXZ 0040d770 f   FolderEditDlg.obj
 0001:0000c790       ?OnFolderModify@CFolderEditDlg@@IAEXXZ 0040d790 f   FolderEditDlg.obj
 0001:0000c910       ?OnFolderAdd@CFolderEditDlg@@IAEXXZ 0040d910 f   FolderEditDlg.obj
 0001:0000ca00       ?OnFolderEdit@CFolderEditDlg@@IAEXXZ 0040da00 f   FolderEditDlg.obj
 0001:0000cbe0       ?OnFolderDel@CFolderEditDlg@@IAEXXZ 0040dbe0 f   FolderEditDlg.obj
 0001:0000cc30       ?OnDblclkFolderList@CFolderEditDlg@@IAEXPAUtagNMHDR@@PAJ@Z 0040dc30 f   FolderEditDlg.obj
 0001:0000ccc0       ?OnDropFiles@CFolderEditDlg@@IAEXPAUHDROP__@@@Z 0040dcc0 f   FolderEditDlg.obj
 0001:0000cd90       ??1SPMultiFile@@QAE@XZ     0040dd90 f i FolderEditDlg.obj
 0001:0000cdf0       ?OnFolderUp@CFolderEditDlg@@IAEXXZ 0040ddf0 f   FolderEditDlg.obj
 0001:0000ce40       ?OnFolderDn@CFolderEditDlg@@IAEXXZ 0040de40 f   FolderEditDlg.obj
 0001:0000cea0       ?UpdateButtonState@CFolderEditDlg@@IAEXXZ 0040dea0 f   FolderEditDlg.obj
 0001:0000d080       ?OnItemChangedFolderList@CFolderEditDlg@@IAEXPAUtagNMHDR@@PAJ@Z 0040e080 f   FolderEditDlg.obj
 0001:0000d0c0       ?OnEndLabelEditFolderList@CFolderEditDlg@@IAEXPAUtagNMHDR@@PAJ@Z 0040e0c0 f   FolderEditDlg.obj
 0001:0000d1d0       ?Realloc@?$JArray@PAX@@QAE_NK@Z 0040e1d0 f i FolderEditDlg.obj
 0001:0000d1d0       ?Realloc@?$JArray@J@@QAE_NK@Z 0040e1d0 f i FolderEditDlg.obj
 0001:0000d1d0       ?Realloc@?$JArray@K@@QAE_NK@Z 0040e1d0 f i FolderEditDlg.obj
 0001:0000d280       ??0CGhostDlg@@QAE@PAVCWnd@@@Z 0040e280 f   GhostDlg.obj
 0001:0000d3a0       ??_ECGhostDlg@@UAEPAXI@Z   0040e3a0 f i GhostDlg.obj
 0001:0000d3a0       ??_GCGhostDlg@@UAEPAXI@Z   0040e3a0 f i GhostDlg.obj
 0001:0000d3d0       ??1CGhostDlg@@UAE@XZ       0040e3d0 f i GhostDlg.obj
 0001:0000d4b0       ?DoDataExchange@CGhostDlg@@MAEXPAVCDataExchange@@@Z 0040e4b0 f   GhostDlg.obj
 0001:0000d550       ?GetMessageMap@CGhostDlg@@MBEPBUAFX_MSGMAP@@XZ 0040e550 f   GhostDlg.obj
 0001:0000d560       ?OnInitDialog@CGhostDlg@@MAEHXZ 0040e560 f   GhostDlg.obj
 0001:0000d9f0       ?OnCacheEnable@CGhostDlg@@IAEXXZ 0040e9f0 f   GhostDlg.obj
 0001:0000da40       ?OnChangeCacheDuration@CGhostDlg@@IAEXXZ 0040ea40 f   GhostDlg.obj
 0001:0000daa0       ?OnChangeCacheNum@CGhostDlg@@IAEXXZ 0040eaa0 f   GhostDlg.obj
 0001:0000db00       ?UpdateEnabled@CGhostDlg@@IAEXXZ 0040eb00 f   GhostDlg.obj
 0001:0000dbb0       ?OnRandomGhostBoot@CGhostDlg@@IAEXXZ 0040ebb0 f   GhostDlg.obj
 0001:0000dbe0       ?OnNoMenuModify@CGhostDlg@@IAEXXZ 0040ebe0 f   GhostDlg.obj
 0001:0000dc30       ?OnAutoChangeEnable@CGhostDlg@@IAEXXZ 0040ec30 f   GhostDlg.obj
 0001:0000dc80       ?OnAutoChangeRadio@CGhostDlg@@IAEXXZ 0040ec80 f   GhostDlg.obj
 0001:0000dcc0       ?OnChangeAutoChangeDuration@CGhostDlg@@IAEXXZ 0040ecc0 f   GhostDlg.obj
 0001:0000dd20       ?OnNoTalkMinimize@CGhostDlg@@IAEXXZ 0040ed20 f   GhostDlg.obj
 0001:0000dd60       ?OnSelchangeUpdatecheckMethod@CGhostDlg@@IAEXXZ 0040ed60 f   GhostDlg.obj
 0001:0000dd90       ?OnSelchangeStrictUpdateKey@CGhostDlg@@IAEXXZ 0040ed90 f   GhostDlg.obj
 0001:0000ddd0       ?OnStrictUpdate@CGhostDlg@@IAEXXZ 0040edd0 f   GhostDlg.obj
 0001:0000de10       ?OnMikire@CGhostDlg@@IAEXXZ 0040ee10 f   GhostDlg.obj
 0001:0000de40       ?OnKasanari@CGhostDlg@@IAEXXZ 0040ee40 f   GhostDlg.obj
 0001:0000de70       ?OnUpdateCheckOther@CGhostDlg@@IAEXXZ 0040ee70 f   GhostDlg.obj
 0001:0000de90       ??0CGhostExtDlg@@QAE@PAVCWnd@@@Z 0040ee90 f   GhostExtDlg.obj
 0001:0000df00       ??_GCProgressCtrl@@UAEPAXI@Z 0040ef00 f i GhostExtDlg.obj
 0001:0000df00       ??_ECProgressCtrl@@UAEPAXI@Z 0040ef00 f i GhostExtDlg.obj
 0001:0000df30       ??_ECGhostExtDlg@@UAEPAXI@Z 0040ef30 f i GhostExtDlg.obj
 0001:0000df30       ??_GCGhostExtDlg@@UAEPAXI@Z 0040ef30 f i GhostExtDlg.obj
 0001:0000df60       ??1CGhostExtDlg@@UAE@XZ    0040ef60 f i GhostExtDlg.obj
 0001:0000dfb0       ?DoDataExchange@CGhostExtDlg@@MAEXPAVCDataExchange@@@Z 0040efb0 f   GhostExtDlg.obj
 0001:0000dfd0       ?GetMessageMap@CGhostExtDlg@@MBEPBUAFX_MSGMAP@@XZ 0040efd0 f   GhostExtDlg.obj
 0001:0000dfe0       ?OnInitDialog@CGhostExtDlg@@MAEHXZ 0040efe0 f   GhostExtDlg.obj
 0001:0000e1a0       ?OnTopmost@CGhostExtDlg@@IAEXXZ 0040f1a0 f   GhostExtDlg.obj
 0001:0000e1d0       ?OnDefinedSurfaceOnly@CGhostExtDlg@@IAEXXZ 0040f1d0 f   GhostExtDlg.obj
 0001:0000e200       ?OnIgnoreMove@CGhostExtDlg@@IAEXXZ 0040f200 f   GhostExtDlg.obj
 0001:0000e230       ?OnSound@CGhostExtDlg@@IAEXXZ 0040f230 f   GhostExtDlg.obj
 0001:0000e260       ?OnBalloonmove@CGhostExtDlg@@IAEXXZ 0040f260 f   GhostExtDlg.obj
 0001:0000e290       ?OnForceAlignRadio@CGhostExtDlg@@IAEXXZ 0040f290 f   GhostExtDlg.obj
 0001:0000e2e0       ?OnDeactivate@CGhostExtDlg@@IAEXXZ 0040f2e0 f   GhostExtDlg.obj
 0001:0000e310       ?OnActivate@CGhostExtDlg@@IAEXXZ 0040f310 f   GhostExtDlg.obj
 0001:0000e380       ?OnDestroy@CGhostExtDlg@@IAEXXZ 0040f380 f   GhostExtDlg.obj
 0001:0000e420       ?OnReset@CGhostExtDlg@@IAEXXZ 0040f420 f   GhostExtDlg.obj
 0001:0000e450       ?ThreadProc@CGhostExtDlg@@QAEXXZ 0040f450 f   GhostExtDlg.obj
 0001:0000ead0       ??0JWString@@QAE@XZ        0040fad0 f i GhostExtDlg.obj
 0001:0000eb60       ??1JHash@@QAE@XZ           0040fb60 f i GhostExtDlg.obj
 0001:0000eb70       ??0SPSimpleEncode@@QAE@XZ  0040fb70 f i GhostExtDlg.obj
 0001:0000eb80       ??1SPSettings@@QAE@XZ      0040fb80 f i GhostExtDlg.obj
 0001:0000ec20       ??0CGhostHelperWnd@@QAE@XZ 0040fc20 f   GhostHelperWnd.obj
 0001:0000ecc0       ??_GCGhostHelperWnd@@UAEPAXI@Z 0040fcc0 f i GhostHelperWnd.obj
 0001:0000ecc0       ??_ECGhostHelperWnd@@UAEPAXI@Z 0040fcc0 f i GhostHelperWnd.obj
 0001:0000ecf0       ??1CGhostHelperWnd@@UAE@XZ 0040fcf0 f   GhostHelperWnd.obj
 0001:0000ed70       ?GetMessageMap@CGhostHelperWnd@@MBEPBUAFX_MSGMAP@@XZ 0040fd70 f   GhostHelperWnd.obj
 0001:0000ed80       ?OnSSPSysMsg@CGhostHelperWnd@@IAEJIJ@Z 0040fd80 f   GhostHelperWnd.obj
 0001:0000ee00       ?FindDevNameFromFile@CGhostHelperWnd@@AAEPBDPAD@Z 0040fe00 f   GhostHelperWnd.obj
 0001:0000eff0       ?MCIPlayFile@CGhostHelperWnd@@AAEHPAVSPMCIPlayerDesc@@@Z 0040fff0 f   GhostHelperWnd.obj
 0001:0000f0c0       ?MCINotifyError@CGhostHelperWnd@@AAEXPAGKPAVSPMCIPlayerDesc@@@Z 004100c0 f   GhostHelperWnd.obj
 0001:0000f210       ?OnMCIExecute@CGhostHelperWnd@@IAEJIJ@Z 00410210 f   GhostHelperWnd.obj
 0001:0000f620       ?OnMCINotify@CGhostHelperWnd@@IAEJIJ@Z 00410620 f   GhostHelperWnd.obj
 0001:0000f870       ?MCIStopAll@CGhostHelperWnd@@AAEXXZ 00410870 f   GhostHelperWnd.obj
 0001:0000f8e0       ?MCIPlayCDTrack@CGhostHelperWnd@@AAEHII@Z 004108e0 f   GhostHelperWnd.obj
 0001:0000f9c0       ?MCIDoAll@CGhostHelperWnd@@AAEXI@Z 004109c0 f   GhostHelperWnd.obj
 0001:0000fa00       ?OnDestroy@CGhostHelperWnd@@IAEXXZ 00410a00 f   GhostHelperWnd.obj
 0001:0000fa20       ??0CGhostProfile@@QAE@PAVCWnd@@@Z 00410a20 f   GhostProfile.obj
 0001:0000fb40       ??1SPControlAdjuster@@QAE@XZ 00410b40 f i GhostProfile.obj
 0001:0000fba0       ??0SPProp@@QAE@XZ          00410ba0 f i GhostProfile.obj
 0001:0000fcf0       ??1SPProp@@UAE@XZ          00410cf0 f i GhostProfile.obj
 0001:0000fda0       ??_GCGhostProfile@@UAEPAXI@Z 00410da0 f i GhostProfile.obj
 0001:0000fda0       ??_ECGhostProfile@@UAEPAXI@Z 00410da0 f i GhostProfile.obj
 0001:0000fdd0       ??_ESPProp@@UAEPAXI@Z      00410dd0 f i GhostProfile.obj
 0001:0000fe30       ??1CGhostProfile@@UAE@XZ   00410e30 f   GhostProfile.obj
 0001:0000ff10       ?DoDataExchange@CGhostProfile@@MAEXPAVCDataExchange@@@Z 00410f10 f   GhostProfile.obj
 0001:0000ff70       ?GetMessageMap@CGhostProfile@@MBEPBUAFX_MSGMAP@@XZ 00410f70 f   GhostProfile.obj
 0001:0000ff80       ?OnInitDialog@CGhostProfile@@MAEHXZ 00410f80 f   GhostProfile.obj
 0001:000100b0       ?InitData@CGhostProfile@@AAEXXZ 004110b0 f   GhostProfile.obj
 0001:000100f0       ?OnClose@CGhostProfile@@IAEXXZ 004110f0 f   GhostProfile.obj
 0001:000100f0       ?OnOK@CGhostProfile@@MAEXXZ 004110f0 f   GhostProfile.obj
 0001:00010110       ?OnEditchangeProfileKind@CGhostProfile@@IAEXXZ 00411110 f   GhostProfile.obj
 0001:00010140       ?SetGhost@CGhostProfile@@QAEHPAVSPGhost@@@Z 00411140 f   GhostProfile.obj
 0001:00010390       ?SetPropA@CGhostProfile@@QAEHPAVSPProp@@@Z 00411390 f   GhostProfile.obj
 0001:00010500       ?LoadData@CGhostProfile@@AAEXH@Z 00411500 f   GhostProfile.obj
 0001:00010700       ?LoadReadme@CGhostProfile@@AAEHPADAAVJString@@@Z 00411700 f   GhostProfile.obj
 0001:00010a50       ??1JStream@@UAE@XZ         00411a50 f i GhostProfile.obj
 0001:00010a70       ?Open@JStream@@UAEHPAVJStreamObject@@PBDH@Z 00411a70 f i GhostProfile.obj
 0001:00010ab0       ?OpenW@JStream@@UAEHPAVJStreamObject@@PBGH@Z 00411ab0 f i GhostProfile.obj
 0001:00010af0       ?Open@JStream@@UAEHPBDH@Z  00411af0 f i GhostProfile.obj
 0001:00010b20       ?OpenW@JStream@@UAEHPBGH@Z 00411b20 f i GhostProfile.obj
 0001:00010b50       ?AttachStream@JStream@@UAEXPAVJStreamObject@@@Z 00411b50 f i GhostProfile.obj
 0001:00010b80       ?DetachStream@JStream@@UAEPAVJStreamObject@@XZ 00411b80 f i GhostProfile.obj
 0001:00010b90       ?Close@JStream@@UAEXXZ     00411b90 f i GhostProfile.obj
 0001:00010ba0       ?Read@JStream@@UAEEXZ      00411ba0 f i GhostProfile.obj
 0001:00010bd0       ?Read@JStream@@UAEKPAXK@Z  00411bd0 f i GhostProfile.obj
 0001:00010c10       ?Write@JStream@@UAEKE@Z    00411c10 f i GhostProfile.obj
 0001:00010c40       ?Write@JStream@@UAEKPAXK@Z 00411c40 f i GhostProfile.obj
 0001:00010c80       ?Seek@JStream@@UAEHJH@Z    00411c80 f i GhostProfile.obj
 0001:00010cb0       ?Length@JStream@@UAEKXZ    00411cb0 f i GhostProfile.obj
 0001:00010cc0       ?Pos@JStream@@UAEKXZ       00411cc0 f i GhostProfile.obj
 0001:00010cd0       ?OnWrite@JStream@@UAEXPAEK@Z 00411cd0 f i GhostProfile.obj
 0001:00010cd0       ?OnRead@JStream@@UAEXPAEK@Z 00411cd0 f i GhostProfile.obj
 0001:00010ce0       ??_EJStream@@UAEPAXI@Z     00411ce0 f i GhostProfile.obj
 0001:00010ce0       ??_GJStream@@UAEPAXI@Z     00411ce0 f i GhostProfile.obj
 0001:00010d10       ??1JMappedStream@@UAE@XZ   00411d10 f i GhostProfile.obj
 0001:00010d70       ?AttachStream@JMappedStream@@EAEXPAVJStreamObject@@@Z 00411d70 f i GhostProfile.obj
 0001:00010d70       ?SetAlphaPlane@JSurface@@UAEXPBE@Z 00411d70 f i GhostProfile.obj
 0001:00010d70       ?ExitInstance@JThreadLoop@@UAEXH@Z 00411d70 f i GhostProfile.obj
 0001:00010d70       ?DoDataExchange@CWnd@@MAEXPAVCDataExchange@@@Z 00411d70 f i GhostProfile.obj
 0001:00010d70       ?Serialize@CObject@@UAEXAAVCArchive@@@Z 00411d70 f i GhostProfile.obj
 0001:00010d80       ?Open@JMappedStream@@EAEHPAVJStreamObject@@PBDH@Z 00411d80 f i GhostProfile.obj
 0001:00010d80       ?OpenW@JMappedStream@@EAEHPAVJStreamObject@@PBGH@Z 00411d80 f i GhostProfile.obj
 0001:00010d90       ?Write@JMappedStream@@EAEKPAXK@Z 00411d90 f i GhostProfile.obj
 0001:00010d90       ?Compare@JList@@UAEHPAV1@H@Z 00411d90 f i GhostProfile.obj
 0001:00010d90       ?GetIntensity@JSurface@@UAEJJJ@Z 00411d90 f i GhostProfile.obj
 0001:00010d90       ?GetPixelIndex@JSurface@@UAEKJJ@Z 00411d90 f i GhostProfile.obj
 0001:00010da0       ?Read@JMappedStream@@UAEEXZ 00411da0 f i GhostProfile.obj
 0001:00010dc0       ?Length@JMappedStream@@UAEKXZ 00411dc0 f i GhostProfile.obj
 0001:00010dd0       ?Pos@JMappedStream@@UAEKXZ 00411dd0 f i GhostProfile.obj
 0001:00010de0       ??_GJMappedStream@@UAEPAXI@Z 00411de0 f i GhostProfile.obj
 0001:00010de0       ??_EJMappedStream@@UAEPAXI@Z 00411de0 f i GhostProfile.obj
 0001:00010e10       ?OnCraftmanURLClick@CGhostProfile@@IAEXXZ 00411e10 f   GhostProfile.obj
 0001:00010ea0       ?OnSetCursor@CGhostProfile@@IAEHPAVCWnd@@II@Z 00411ea0 f   GhostProfile.obj
 0001:00010ed0       ?OnCtlColor@CGhostProfile@@IAEPAUHBRUSH__@@PAVCDC@@PAVCWnd@@I@Z 00411ed0 f   GhostProfile.obj
 0001:00010f50       ?OnSize@CGhostProfile@@IAEXIHH@Z 00411f50 f   GhostProfile.obj
 0001:00010f90       ??0?$JArray@G@@QAE@K@Z     00411f90 f i GhostProfile.obj
 0001:00011000       ??0CGhostTimeWnd@@QAE@XZ   00412000 f   GhostTimeWnd.obj
 0001:00011040       ??_ECGhostTimeWnd@@UAEPAXI@Z 00412040 f i GhostTimeWnd.obj
 0001:00011040       ??_GCGhostTimeWnd@@UAEPAXI@Z 00412040 f i GhostTimeWnd.obj
 0001:00011070       ??1CGhostTimeWnd@@UAE@XZ   00412070 f   GhostTimeWnd.obj
 0001:00011100       ?GetMessageMap@CGhostTimeWnd@@MBEPBUAFX_MSGMAP@@XZ 00412100 f   GhostTimeWnd.obj
 0001:00011110       ?CreateMe@CGhostTimeWnd@@QAEHXZ 00412110 f   GhostTimeWnd.obj
 0001:000112b0       ?OnCreate@CGhostTimeWnd@@IAEHPAUtagCREATESTRUCTA@@@Z 004122b0 f   GhostTimeWnd.obj
 0001:000112f0       ?OnPaint@CGhostTimeWnd@@IAEXXZ 004122f0 f   GhostTimeWnd.obj
 0001:00011370       ?DrawBackBuffer@CGhostTimeWnd@@AAEXXZ 00412370 f   GhostTimeWnd.obj
 0001:000123c0       ??_GCPen@@UAEPAXI@Z        004133c0 f i GhostTimeWnd.obj
 0001:000123c0       ??_ECPen@@UAEPAXI@Z        004133c0 f i GhostTimeWnd.obj
 0001:000123f0       ??1CPen@@UAE@XZ            004133f0 f i GhostTimeWnd.obj
 0001:00012430       ??1CBrush@@UAE@XZ          00413430 f i GhostTimeWnd.obj
 0001:000124d0       ?SaveBackBuffer@CGhostTimeWnd@@AAEXXZ 004134d0 f   GhostTimeWnd.obj
 0001:000125b0       ?OnKeyDown@CGhostTimeWnd@@IAEXIII@Z 004135b0 f   GhostTimeWnd.obj
 0001:00012690       ?WindowProc@CGhostTimeWnd@@MAEJIIJ@Z 00413690 f   GhostTimeWnd.obj
 0001:00012730       ?OnEraseBkgnd@CCalendarWnd@@IAEHPAVCDC@@@Z 00413730 f   GhostTimeWnd.obj
 0001:00012730       ?OnEraseBkgnd@CGhostTimeWnd@@IAEHPAVCDC@@@Z 00413730 f   GhostTimeWnd.obj
 0001:00012730       ?OnEraseBkgnd@CMessageWnd@@IAEHPAVCDC@@@Z 00413730 f   GhostTimeWnd.obj
 0001:00012740       ?OnDestroy@CGhostTimeWnd@@IAEXXZ 00413740 f   GhostTimeWnd.obj
 0001:00012790       ?GetHitTestID@CGhostTimeWnd@@AAEKXZ 00413790 f   GhostTimeWnd.obj
 0001:00012820       ?AdjustRect@CGhostTimeWnd@@AAEXAAUtagRECT@@@Z 00413820 f   GhostTimeWnd.obj
 0001:00012850       ?GetMaxPage@CGhostTimeWnd@@AAEJXZ 00413850 f   GhostTimeWnd.obj
 0001:00012880       ?MovePage@CGhostTimeWnd@@AAEXH@Z 00413880 f   GhostTimeWnd.obj
 0001:000128d0       ?OnLButtonUp@CGhostTimeWnd@@IAEXIVCPoint@@@Z 004138d0 f   GhostTimeWnd.obj
 0001:00012950       ?OnNcRButtonUp@CGhostTimeWnd@@IAEXIVCPoint@@@Z 00413950 f   GhostTimeWnd.obj
 0001:00012fa0       ?GetRankingHitTest@CGhostTimeWnd@@AAEJXZ 00413fa0 f   GhostTimeWnd.obj
 0001:00013020       ?PreTranslateMessage@CGhostTimeWnd@@UAEHPAUtagMSG@@@Z 00414020 f   GhostTimeWnd.obj
 0001:00013060       ?ProcessShortcut@CGhostTimeWnd@@AAEHI@Z 00414060 f   GhostTimeWnd.obj
 0001:000130b0       ?Realloc@?$JArray@VJRect@@@@QAE_NK@Z 004140b0 f i GhostTimeWnd.obj
 0001:00013150       ?Realloc@?$JArray@UtagCTW_GHOSTTIMEDATA@@@@QAE_NK@Z 00414150 f i GhostTimeWnd.obj
 0001:00013200       ??0CHelperMainWnd@@QAE@XZ  00414200 f   HelperMainWnd.obj
 0001:00013220       ??_GCHelperMainWnd@@UAEPAXI@Z 00414220 f i HelperMainWnd.obj
 0001:00013220       ??_ECHelperMainWnd@@UAEPAXI@Z 00414220 f i HelperMainWnd.obj
 0001:00013250       ??1CHelperMainWnd@@UAE@XZ  00414250 f   HelperMainWnd.obj
 0001:00013260       ?GetMessageMap@CHelperMainWnd@@MBEPBUAFX_MSGMAP@@XZ 00414260 f   HelperMainWnd.obj
 0001:00013270       ?OnClose@CHelperMainWnd@@IAEXXZ 00414270 f   HelperMainWnd.obj
 0001:00013300       ?ProcessSSF@CHelperMainWnd@@AAEXPAVJString@@@Z 00414300 f   HelperMainWnd.obj
 0001:00013390       ?ProcessDownload@CHelperMainWnd@@AAEXPAVSPDownloadInfo@@@Z 00414390 f   HelperMainWnd.obj
 0001:00013620       ?DownloadProc@CHelperMainWnd@@CAXPAXPCH@Z 00414620 f   HelperMainWnd.obj
 0001:00013e30       ?SPCNotify@SPCmdListener@@MAE_NKPAPAXK@Z 00414e30 f i HelperMainWnd.obj
 0001:00013e40       ??_GSPCmdListener@@UAEPAXI@Z 00414e40 f i HelperMainWnd.obj
 0001:00013e40       ??_ESPCmdListener@@UAEPAXI@Z 00414e40 f i HelperMainWnd.obj
 0001:00013e70       ??1SPCmdListener@@UAE@XZ   00414e70 f i HelperMainWnd.obj
 0001:00013ed0       ??1JSocket@@QAE@XZ         00414ed0 f i HelperMainWnd.obj
 0001:00013f70       ??1SPHttp@@QAE@XZ          00414f70 f i HelperMainWnd.obj
 0001:000140f0       ?SPCNotify@SPGhostBreakClass@@UAE_NKPAPAXK@Z 004150f0 f i HelperMainWnd.obj
 0001:00014130       ??_GSPGhostBreakClass@@UAEPAXI@Z 00415130 f i HelperMainWnd.obj
 0001:00014130       ??_ESPGhostBreakClass@@UAEPAXI@Z 00415130 f i HelperMainWnd.obj
 0001:00014160       ??1SPGhostBreakClass@@UAE@XZ 00415160 f i HelperMainWnd.obj
 0001:000141c0       ?DownloadProcAutoDiscovery@CHelperMainWnd@@CIHPAVSPDownloadInfo@@@Z 004151c0 f   HelperMainWnd.obj
 0001:00014830       ??0SPCmdListener@@QAE@XZ   00415830 f i HelperMainWnd.obj
 0001:00014850       ?DownloadProcRSS@CHelperMainWnd@@CIHPAVSPDownloadInfo@@@Z 00415850 f   HelperMainWnd.obj
 0001:00014950       ?DownloadProcRSSReal@CHelperMainWnd@@CIHPAVSPDownloadInfo@@AAVSPInstallEvent@@_N@Z 00415950 f   HelperMainWnd.obj
 0001:00015a30       ?DownloadProcSSF@CHelperMainWnd@@CIXPAVSPDownloadInfo@@AAVJString@@@Z 00416a30 f   HelperMainWnd.obj
 0001:00015a40       ?DownloadProcNar@CHelperMainWnd@@CIXPAVSPDownloadInfo@@AAVJString@@@Z 00416a40 f   HelperMainWnd.obj
 0001:00015a50       ?DownloadProcNarSSF@CHelperMainWnd@@CIXPAVSPDownloadInfo@@AAVJString@@PBG@Z 00416a50 f   HelperMainWnd.obj
 0001:000164d0       ?OnSSPSysMsg@CHelperMainWnd@@IAEJIJ@Z 004174d0 f   HelperMainWnd.obj
 0001:00016560       ?OnMainWindowCreateFinished@CHelperMainWnd@@QAEXXZ 00417560 f   HelperMainWnd.obj
 0001:00016620       ?OnCreate@CHelperMainWnd@@IAEHPAUtagCREATESTRUCTA@@@Z 00417620 f   HelperMainWnd.obj
 0001:00016650       ?ShowProgressWindow@CHelperMainWnd@@AAEXPBG@Z 00417650 f   HelperMainWnd.obj
 0001:000167a0       ?ShowThumbnailWindow@CHelperMainWnd@@AAEXPBD@Z 004177a0 f   HelperMainWnd.obj
 0001:00016bd0       ?WindowProc@CHelperMainWnd@@MAEJIIJ@Z 00417bd0 f   HelperMainWnd.obj
 0001:00016c30       ?OnPaint@CHelperMainWnd@@IAEXXZ 00417c30 f   HelperMainWnd.obj
 0001:00016cd0       ?Alloc@?$JArray@D@@QAE_NK@Z 00417cd0 f i HelperMainWnd.obj
 0001:00016d70       ??0?$JPtrArray@PAVSPMultiFileEntry@@@@QAE@J@Z 00417d70 f i HelperMainWnd.obj
 0001:00016de0       ??_ESPGhostLoaderInfo@@AAEPAXI@Z 00417de0 f i HelperMainWnd.obj
 0001:00016e40       ?CreateObject@CHelperThread@@SGPAVCObject@@XZ 00417e40 f   HelperThread.obj
 0001:00016ea0       ?GetRuntimeClass@CHelperThread@@UBEPAUCRuntimeClass@@XZ 00417ea0 f   HelperThread.obj
 0001:00016eb0       ??0CHelperThread@@QAE@XZ   00417eb0 f   HelperThread.obj
 0001:00016ee0       ??_ECHelperThread@@UAEPAXI@Z 00417ee0 f i HelperThread.obj
 0001:00016ee0       ??_GCHelperThread@@UAEPAXI@Z 00417ee0 f i HelperThread.obj
 0001:00016f10       ??1CHelperThread@@UAE@XZ   00417f10 f   HelperThread.obj
 0001:00016f30       ?InitInstance@CHelperThread@@UAEHXZ 00417f30 f   HelperThread.obj
 0001:00017030       ?ExitInstance@CHelperThread@@UAEHXZ 00418030 f   HelperThread.obj
 0001:00017060       ?WaitForThreadBoot@CHelperThread@@QAEXXZ 00418060 f   HelperThread.obj
 0001:00017090       ?GetMessageMap@CHelperThread@@MBEPBUAFX_MSGMAP@@XZ 00418090 f   HelperThread.obj
 0001:000170a0       ??0CImageListEx@@QAE@XZ    004180a0 f   ImageListEx.obj
 0001:000170c0       ??_GCImageListEx@@UAEPAXI@Z 004180c0 f i ImageListEx.obj
 0001:000170c0       ??_ECImageListEx@@UAEPAXI@Z 004180c0 f i ImageListEx.obj
 0001:000170f0       ??1CImageListEx@@UAE@XZ    004180f0 f   ImageListEx.obj
 0001:00017100       ?CreateEx@CImageListEx@@QAEHIHHK@Z 00418100 f   ImageListEx.obj
 0001:00017200       ??_GCBitmap@@UAEPAXI@Z     00418200 f i ImageListEx.obj
 0001:00017200       ??_ECBitmap@@UAEPAXI@Z     00418200 f i ImageListEx.obj
 0001:00017230       ??1CBitmap@@UAE@XZ         00418230 f i ImageListEx.obj
 0001:00017270       ??0CInputDropTarget@@QAE@XZ 00418270 f   InputDropTarget.obj
 0001:00017290       ??_GCInputDropTarget@@UAEPAXI@Z 00418290 f i InputDropTarget.obj
 0001:00017290       ??_ECInputDropTarget@@UAEPAXI@Z 00418290 f i InputDropTarget.obj
 0001:000172c0       ??1CInputDropTarget@@UAE@XZ 004182c0 f   InputDropTarget.obj
 0001:000172d0       ?OnDragEnter@CInputDropTarget@@UAEKPAVCWnd@@PAVCOleDataObject@@KVCPoint@@@Z 004182d0 f   InputDropTarget.obj
 0001:00017300       ?OnDragOver@CInputDropTarget@@UAEKPAVCWnd@@PAVCOleDataObject@@KVCPoint@@@Z 00418300 f   InputDropTarget.obj
 0001:00017330       ?OnDrop@CInputDropTarget@@UAEHPAVCWnd@@PAVCOleDataObject@@KVCPoint@@@Z 00418330 f   InputDropTarget.obj
 0001:00017390       ?RegisterMe@CInputDropTarget@@QAEHPAVCWnd@@@Z 00418390 f   InputDropTarget.obj
 0001:000173c0       ??0CInputEdit@@QAE@XZ      004183c0 f   InputEdit.obj
 0001:000173e0       ??_GCInputEdit@@UAEPAXI@Z  004183e0 f i InputEdit.obj
 0001:000173e0       ??_ECInputEdit@@UAEPAXI@Z  004183e0 f i InputEdit.obj
 0001:00017410       ??1CInputEdit@@UAE@XZ      00418410 f   InputEdit.obj
 0001:00017470       ?GetMessageMap@CInputEdit@@MBEPBUAFX_MSGMAP@@XZ 00418470 f   InputEdit.obj
 0001:00017480       ?Create@CInputEdit@@QAEHKABUtagRECT@@PAVCWnd@@I@Z 00418480 f   InputEdit.obj
 0001:00017510       ?DestroyWindow@CInputEdit@@UAEHXZ 00418510 f   InputEdit.obj
 0001:00017530       ?OnAccelClose@CInputEdit@@IAEXXZ 00418530 f   InputEdit.obj
 0001:00017550       ?SetText@CInputEdit@@QAEXPBG@Z 00418550 f   InputEdit.obj
 0001:00017570       ?SetSel@CInputEdit@@QAEXJJ@Z 00418570 f   InputEdit.obj
 0001:00017590       ?GetSel@CInputEdit@@QAEXAAJ0@Z 00418590 f   InputEdit.obj
 0001:000175b0       ?SetPasswordChar@CInputEdit@@QAEXG@Z 004185b0 f   InputEdit.obj
 0001:000175e0       ?PreTranslateMessage@CInputEdit@@UAEHPAUtagMSG@@@Z 004185e0 f   InputEdit.obj
 0001:00017670       ??0SPDynLoad@@QAE@PBD@Z    00418670 f i InputWnd.obj
 0001:00017750       ??1SPDynLoad@@QAE@XZ       00418750 f i InputWnd.obj
 0001:000177a0       ??0CInputWnd@@QAE@XZ       004187a0 f   InputWnd.obj
 0001:00017940       ??_GCInputWnd@@UAEPAXI@Z   00418940 f i InputWnd.obj
 0001:00017940       ??_ECInputWnd@@UAEPAXI@Z   00418940 f i InputWnd.obj
 0001:00017970       ??1CInputWnd@@UAE@XZ       00418970 f   InputWnd.obj
 0001:00017ab0       ??1SPCmdNotifier@@QAE@XZ   00418ab0 f i InputWnd.obj
 0001:00017b50       ?GetMessageMap@CInputWnd@@MBEPBUAFX_MSGMAP@@XZ 00418b50 f   InputWnd.obj
 0001:00017b60       ?OnCreate@CInputWnd@@IAEHPAUtagCREATESTRUCTA@@@Z 00418b60 f   InputWnd.obj
 0001:00017ba0       ?CreateMe@CInputWnd@@QAEHPAVCSakuraWnd@@@Z 00418ba0 f   InputWnd.obj
 0001:00017d30       ?SetInfo@CInputWnd@@QAEXPAVSPInputWndDispInfo@@@Z 00418d30 f   InputWnd.obj
 0001:00018820       ??_ECButton@@UAEPAXI@Z     00419820 f i InputWnd.obj
 0001:00018820       ??_GCButton@@UAEPAXI@Z     00419820 f i InputWnd.obj
 0001:00018850       ??_GCDateTimeCtrl@@UAEPAXI@Z 00419850 f i InputWnd.obj
 0001:00018850       ??_ECDateTimeCtrl@@UAEPAXI@Z 00419850 f i InputWnd.obj
 0001:00018880       ??_ECIPAddressCtrl@@UAEPAXI@Z 00419880 f i InputWnd.obj
 0001:00018880       ??_GCIPAddressCtrl@@UAEPAXI@Z 00419880 f i InputWnd.obj
 0001:000188b0       ?SetAutoComplete@CInputWnd@@AAE_NPAVCInputEdit@@@Z 004198b0 f   InputWnd.obj
 0001:00018b30       ?GetButtonText@CInputWnd@@AAEPADXZ 00419b30 f   InputWnd.obj
 0001:00018b70       ?GetInputRect@CInputWnd@@AAEXAAVJExtent@@@Z 00419b70 f   InputWnd.obj
 0001:00018c00       ?ToRect@JExtent@@QBE?AVJRect@@XZ 00419c00 f i InputWnd.obj
 0001:00018c20       ?AdjustInputRect@CInputWnd@@AAEXXZ 00419c20 f   InputWnd.obj
 0001:00018dc0       ?OnUserInput@CInputWnd@@AAEHXZ 00419dc0 f   InputWnd.obj
 0001:00018de0       ?OnNotifyInput@CInputWnd@@AAEHPAG@Z 00419de0 f   InputWnd.obj
 0001:00018e10       ?OnNotifyInputCancel@CInputWnd@@AAEHPAG@Z 00419e10 f   InputWnd.obj
 0001:00018f10       ?OnNotifyInputReal@CInputWnd@@AAEHPAG@Z 00419f10 f   InputWnd.obj
 0001:00019000       ?SetBalloon@CInputWnd@@QAEHPAVSPBalloon@@@Z 0041a000 f   InputWnd.obj
 0001:000194c0       ?OnLButtonDown@CInputWnd@@IAEXIVCPoint@@@Z 0041a4c0 f   InputWnd.obj
 0001:00019500       ?OnLButtonUp@CInputWnd@@IAEXIVCPoint@@@Z 0041a500 f   InputWnd.obj
 0001:00019590       ?OnLButtonDblClk@CInputWnd@@IAEXIVCPoint@@@Z 0041a590 f   InputWnd.obj
 0001:000195e0       ?OnCloseButton@CInputWnd@@IAEXXZ 0041a5e0 f   InputWnd.obj
 0001:00019610       ?OnButtonPushed@CInputWnd@@IAEXXZ 0041a610 f   InputWnd.obj
 0001:00019680       ?Execute@CInputWnd@@AAEXXZ 0041a680 f   InputWnd.obj
 0001:000196a0       ?ExecuteReal@CInputWnd@@AAEXXZ 0041a6a0 f   InputWnd.obj
 0001:00019910       ?Buffer@JWString@@QAEPAGXZ 0041a910 f i InputWnd.obj
 0001:00019920       ?OnMouseMove@CInputWnd@@IAEXIVCPoint@@@Z 0041a920 f   InputWnd.obj
 0001:00019990       ?OnSetFocus@CInputWnd@@IAEXPAVCWnd@@@Z 0041a990 f   InputWnd.obj
 0001:000199c0       ?OnTimer@CInputWnd@@IAEXI@Z 0041a9c0 f   InputWnd.obj
 0001:00019a20       ?GetInputText@CInputWnd@@QAEPAGXZ 0041aa20 f   InputWnd.obj
 0001:00019be0       ?DestroyControls@CInputWnd@@AAEXXZ 0041abe0 f   InputWnd.obj
 0001:00019c70       ?OnDestroy@CInputWnd@@IAEXXZ 0041ac70 f   InputWnd.obj
 0001:00019c90       ?PostNcDestroy@CInputWnd@@MAEXXZ 0041ac90 f   InputWnd.obj
 0001:00019d40       ?OnCtlColor@CInputWnd@@IAEPAUHBRUSH__@@PAVCDC@@PAVCWnd@@I@Z 0041ad40 f   InputWnd.obj
 0001:00019da0       ?OnDrawItem@CInputWnd@@IAEXHPAUtagDRAWITEMSTRUCT@@@Z 0041ada0 f   InputWnd.obj
 0001:0001a150       ?OnRButtonUp@CInputWnd@@IAEXIVCPoint@@@Z 0041b150 f   InputWnd.obj
 0001:0001a1a0       ?OnClose@CInputWnd@@IAEXXZ 0041b1a0 f   InputWnd.obj
 0001:0001a1c0       ?PreTranslateMessage@CInputWnd@@UAEHPAUtagMSG@@@Z 0041b1c0 f   InputWnd.obj
 0001:0001a250       ?OnEraseBkgnd@CInputWnd@@IAEHPAVCDC@@@Z 0041b250 f   InputWnd.obj
 0001:0001a2a0       ?OnCommand@CInputWnd@@MAEHIJ@Z 0041b2a0 f   InputWnd.obj
 0001:0001a400       ??0CInternationalSettingDlg@@QAE@PAVCWnd@@@Z 0041b400 f   InternationalSettingDlg.obj
 0001:0001a480       ??_GCInternationalSettingDlg@@UAEPAXI@Z 0041b480 f i InternationalSettingDlg.obj
 0001:0001a480       ??_ECInternationalSettingDlg@@UAEPAXI@Z 0041b480 f i InternationalSettingDlg.obj
 0001:0001a4b0       ??1CInternationalSettingDlg@@UAE@XZ 0041b4b0 f i InternationalSettingDlg.obj
 0001:0001a510       ?DoDataExchange@CInternationalSettingDlg@@MAEXPAVCDataExchange@@@Z 0041b510 f   InternationalSettingDlg.obj
 0001:0001a550       ?GetMessageMap@CInternationalSettingDlg@@MBEPBUAFX_MSGMAP@@XZ 0041b550 f   InternationalSettingDlg.obj
 0001:0001a560       ?OnInitDialog@CInternationalSettingDlg@@MAEHXZ 0041b560 f   InternationalSettingDlg.obj
 0001:0001a5b0       ?SelectFont@CInternationalSettingDlg@@AAEHAAVJWString@@AAHPBDH@Z 0041b5b0 f   InternationalSettingDlg.obj
 0001:0001a900       ?DispUpdate@CInternationalSettingDlg@@AAEXAAVJWString@@AAHAAVCStatic@@H@Z 0041b900 f   InternationalSettingDlg.obj
 0001:0001aa50       ?OnFontMenuChoice@CInternationalSettingDlg@@IAEXXZ 0041ba50 f   InternationalSettingDlg.obj
 0001:0001aaa0       ?OnFontMenuDefault@CInternationalSettingDlg@@IAEXXZ 0041baa0 f   InternationalSettingDlg.obj
 0001:0001aaf0       ?OnFontBalloonChoice@CInternationalSettingDlg@@IAEXXZ 0041baf0 f   InternationalSettingDlg.obj
 0001:0001abb0       ?OnFontBalloonDefault@CInternationalSettingDlg@@IAEXXZ 0041bbb0 f   InternationalSettingDlg.obj
 0001:0001ac70       ?CreateObject@CIPMessengerSettingDlg@@SGPAVCObject@@XZ 0041bc70 f   IPMessengerSettingDlg.obj
 0001:0001acd0       ?GetRuntimeClass@CIPMessengerSettingDlg@@UBEPAUCRuntimeClass@@XZ 0041bcd0 f   IPMessengerSettingDlg.obj
 0001:0001ace0       ??0CIPMessengerSettingDlg@@QAE@PAVCWnd@@@Z 0041bce0 f   IPMessengerSettingDlg.obj
 0001:0001ad90       ??_GCIPMessengerSettingDlg@@UAEPAXI@Z 0041bd90 f i IPMessengerSettingDlg.obj
 0001:0001ad90       ??_ECIPMessengerSettingDlg@@UAEPAXI@Z 0041bd90 f i IPMessengerSettingDlg.obj
 0001:0001adc0       ??1CIPMessengerSettingDlg@@UAE@XZ 0041bdc0 f i IPMessengerSettingDlg.obj
 0001:0001ae40       ?DoDataExchange@CIPMessengerSettingDlg@@MAEXPAVCDataExchange@@@Z 0041be40 f   IPMessengerSettingDlg.obj
 0001:0001ae90       ?GetMessageMap@CIPMessengerSettingDlg@@MBEPBUAFX_MSGMAP@@XZ 0041be90 f   IPMessengerSettingDlg.obj
 0001:0001aea0       ?OnChangeIpmsgport@CIPMessengerSettingDlg@@IAEXXZ 0041bea0 f   IPMessengerSettingDlg.obj
 0001:0001af70       ?OnIpmessenger@CIPMessengerSettingDlg@@IAEXXZ 0041bf70 f   IPMessengerSettingDlg.obj
 0001:0001afe0       ?OnUseDialup@CIPMessengerSettingDlg@@IAEXXZ 0041bfe0 f   IPMessengerSettingDlg.obj
 0001:0001b020       ?OnBroadcastAdd@CIPMessengerSettingDlg@@IAEXXZ 0041c020 f   IPMessengerSettingDlg.obj
 0001:0001b080       ?OnBroadcastDel@CIPMessengerSettingDlg@@IAEXXZ 0041c080 f   IPMessengerSettingDlg.obj
 0001:0001b0c0       ?OnBroadcastInit@CIPMessengerSettingDlg@@IAEXXZ 0041c0c0 f   IPMessengerSettingDlg.obj
 0001:0001b0f0       ?UpdateBroadcastList@CIPMessengerSettingDlg@@IAEXXZ 0041c0f0 f   IPMessengerSettingDlg.obj
 0001:0001b310       ?OnInitDialog@CIPMessengerSettingDlg@@MAEHXZ 0041c310 f   IPMessengerSettingDlg.obj
 0001:0001b440       ?UpdateEnabled@CIPMessengerSettingDlg@@QAEXH@Z 0041c440 f   IPMessengerSettingDlg.obj
 0001:0001b480       ?GetListSel@CIPMessengerSettingDlg@@IAEJXZ 0041c480 f   IPMessengerSettingDlg.obj
 0001:0001b4c0       ?OnDestroy@CIPMessengerSettingDlg@@IAEXXZ 0041c4c0 f   IPMessengerSettingDlg.obj
 0001:0001b4e0       ??0CKeroWnd@@QAE@XZ        0041c4e0 f   KeroWnd.obj
 0001:0001b550       ??_ECKeroWnd@@UAEPAXI@Z    0041c550 f i KeroWnd.obj
 0001:0001b550       ??_GCKeroWnd@@UAEPAXI@Z    0041c550 f i KeroWnd.obj
 0001:0001b580       ??1CKeroWnd@@UAE@XZ        0041c580 f   KeroWnd.obj
 0001:0001b5e0       ?GetMessageMap@CKeroWnd@@MBEPBUAFX_MSGMAP@@XZ 0041c5e0 f   KeroWnd.obj
 0001:0001b5f0       ?OnCreate@CKeroWnd@@IAEHPAUtagCREATESTRUCTA@@@Z 0041c5f0 f   KeroWnd.obj
 0001:0001b5f0       ?OnCreate@CCharBodyWnd@@IAEHPAUtagCREATESTRUCTA@@@Z 0041c5f0 f   KeroWnd.obj
 0001:0001b620       ?OnLButtonDblClk@CKeroWnd@@IAEXIVCPoint@@@Z 0041c620 f   KeroWnd.obj
 0001:0001b660       ?OnMouseMove@CKeroWnd@@IAEXIVCPoint@@@Z 0041c660 f   KeroWnd.obj
 0001:0001b690       ?GetDefaultWndPosX@CKeroWnd@@UAEHAAJAAVJRect@@1AAVJPoint@@@Z 0041c690 f   KeroWnd.obj
 0001:0001b7b0       ?WindowProc@CKeroWnd@@MAEJIIJ@Z 0041c7b0 f   KeroWnd.obj
 0001:0001b800       ?PreTranslateMessage@CSakuraWnd@@UAEHPAUtagMSG@@@Z 0041c800 f   KeroWnd.obj
 0001:0001b800       ?PreTranslateMessage@CCharBodyWnd@@UAEHPAUtagMSG@@@Z 0041c800 f   KeroWnd.obj
 0001:0001b800       ?PreTranslateMessage@CKeroWnd@@UAEHPAUtagMSG@@@Z 0041c800 f   KeroWnd.obj
 0001:0001b830       ??_ECKeroWnd@@WDM@AEPAXI@Z 0041c830 f i KeroWnd.obj
 0001:0001b840       ??0CListDialog@@QAE@PAVCWnd@@@Z 0041c840 f   ListDialog.obj
 0001:0001ba10       ??_ECListDialog@@UAEPAXI@Z 0041ca10 f i ListDialog.obj
 0001:0001ba10       ??_GCListDialog@@UAEPAXI@Z 0041ca10 f i ListDialog.obj
 0001:0001ba40       ??1CListDialog@@UAE@XZ     0041ca40 f i ListDialog.obj
 0001:0001bb60       ?DoDataExchange@CListDialog@@MAEXPAVCDataExchange@@@Z 0041cb60 f   ListDialog.obj
 0001:0001bb80       ?GetMessageMap@CListDialog@@MBEPBUAFX_MSGMAP@@XZ 0041cb80 f   ListDialog.obj
 0001:0001bb90       ?OnInitDialog@CListDialog@@MAEHXZ 0041cb90 f   ListDialog.obj
 0001:0001bf40       ?SetListMode@CListDialog@@QAEXPAVCSakuraWnd@@H@Z 0041cf40 f   ListDialog.obj
 0001:0001bfb0       ?IsAutoClose@CListDialog@@AAE_NXZ 0041cfb0 f   ListDialog.obj
 0001:0001bfd0       ?OnPropAutoclose@CListDialog@@IAEXXZ 0041cfd0 f   ListDialog.obj
 0001:0001c010       ?UpdateAutoCloseCheck@CListDialog@@AAEXXZ 0041d010 f   ListDialog.obj
 0001:0001c050       ?GetTypeText@CListDialog@@AAEXPADJ@Z 0041d050 f   ListDialog.obj
 0001:0001c0b0       ?OnDblclkDlist@CListDialog@@IAEXPAUtagNMHDR@@PAJ@Z 0041d0b0 f   ListDialog.obj
 0001:0001c110       ?ShowListContextMenu@CListDialog@@AAEX_N@Z 0041d110 f   ListDialog.obj
 0001:0001c280       ?SetListNum@CListDialog@@AAEXI@Z 0041d280 f   ListDialog.obj
 0001:0001c310       ?InitListColumn@CListDialog@@AAEXXZ 0041d310 f   ListDialog.obj
 0001:0001c460       ?InitOneItem@CListDialog@@AAEXPAVSPProp@@IAAVJString@@@Z 0041d460 f   ListDialog.obj
 0001:0001c610       ?InitList@CListDialog@@AAEXH@Z 0041d610 f   ListDialog.obj
 0001:0001cc30       ?SetExplorerTitle@CListDialog@@AAEXXZ 0041dc30 f   ListDialog.obj
 0001:0001cce0       ?GetSelectedCommandID@CListDialog@@AAEJXZ 0041dce0 f   ListDialog.obj
 0001:0001cd30       ?GetSelectedCommandIDMulti@CListDialog@@AAEKAAV?$JArray@K@@@Z 0041dd30 f   ListDialog.obj
 0001:0001ce80       ?OnCommand@CListDialog@@MAEHIJ@Z 0041de80 f   ListDialog.obj
 0001:0001cf40       ?OnCommandReal@CListDialog@@AAEHIJ@Z 0041df40 f   ListDialog.obj
 0001:0001d750       ?OnCommandCreateShortcut@CListDialog@@AAEHAAV?$JArray@K@@@Z 0041e750 f   ListDialog.obj
 0001:0001dcf0       ?UpdateList@CListDialog@@QAEXPAVCSakuraWnd@@H@Z 0041ecf0 f   ListDialog.obj
 0001:0001dd40       ?SetGhost@CListDialog@@QAEXPAVCSakuraWnd@@@Z 0041ed40 f   ListDialog.obj
 0001:0001dd80       ?OnSelchangeExplorertype@CListDialog@@IAEXI@Z 0041ed80 f   ListDialog.obj
 0001:0001de70       ?OnGetMinMaxInfo@CListDialog@@IAEXPAUtagMINMAXINFO@@@Z 0041ee70 f   ListDialog.obj
 0001:0001df10       ?OnSize@CListDialog@@IAEXIHH@Z 0041ef10 f   ListDialog.obj
 0001:0001df50       ?OnOK@CListDialog@@MAEXXZ  0041ef50 f   ListDialog.obj
 0001:0001dfb0       ?OnDestroy@CListDialog@@IAEXXZ 0041efb0 f   ListDialog.obj
 0001:0001e060       ?InitializeMembers@CListDialog@@AAEXXZ 0041f060 f   ListDialog.obj
 0001:0001e430       ?OnColumnClickDlist@CListDialog@@IAEXPAUtagNMHDR@@PAJ@Z 0041f430 f   ListDialog.obj
 0001:0001e490       ?SortDlist@CListDialog@@AAEXI@Z 0041f490 f   ListDialog.obj
 0001:0001e530       ?OnFindList@CListDialog@@IAEXXZ 0041f530 f   ListDialog.obj
 0001:0001e850       ?FindNext@CListDialog@@AAEHXZ 0041f850 f   ListDialog.obj
 0001:0001e960       ?Find@CListDialog@@AAEJJ@Z 0041f960 f   ListDialog.obj
 0001:0001eae0       ?PreTranslateMessage@CListDialog@@UAEHPAUtagMSG@@@Z 0041fae0 f   ListDialog.obj
 0001:0001eb20       ?ProcessShortcut@CListDialog@@AAEHI@Z 0041fb20 f   ListDialog.obj
 0001:0001eca0       ?OnSelectAll@CListDialog@@IAEXXZ 0041fca0 f   ListDialog.obj
 0001:0001ece0       ?OnCopyLine@CListDialog@@IAEXXZ 0041fce0 f   ListDialog.obj
 0001:0001eff0       ?OnDropFiles@CListDialog@@IAEXPAUHDROP__@@@Z 0041fff0 f   ListDialog.obj
 0001:0001f0d0       ?OnColumnRClickDList@CListDialog@@AAEXPAUtagNMHEADERA@@@Z 004200d0 f   ListDialog.obj
 0001:0001f1a0       ?OnNotify@CListDialog@@MAEHIJPAJ@Z 004201a0 f   ListDialog.obj
 0001:0001f220       ?GetHeaderWidth@CListDialog@@AAEXPAH@Z 00420220 f   ListDialog.obj
 0001:0001f2b0       ?SaveHeaderStatus@CListDialog@@AAEXXZ 004202b0 f   ListDialog.obj
 0001:0001f390       ?LoadHeaderStatus@CListDialog@@AAEXPAH@Z 00420390 f   ListDialog.obj
 0001:0001f470       ?OnFindNext@CListDialog@@IAEXXZ 00420470 f   ListDialog.obj
 0001:0001f4a0       ?GetCurrentTypeFlag@CListDialog@@SAI_NH@Z 004204a0 f   ListDialog.obj
 0001:0001f500       ?OnReload@CListDialog@@IAEXXZ 00420500 f   ListDialog.obj
 0001:0001f530       ?OnContextMenu@CListDialog@@IAEXPAVCWnd@@VCPoint@@@Z 00420530 f   ListDialog.obj
 0001:0001f5a0       ?OnMeasureItem@CListDialog@@IAEXHPAUtagMEASUREITEMSTRUCT@@@Z 004205a0 f   ListDialog.obj
 0001:0001f5d0       ?DrawOneItem@CListDialog@@AAEXJ_NAAVCListDialogData@@AAVJRect@@PAUHDC__@@@Z 004205d0 f   ListDialog.obj
 0001:0001f830       ?OnDrawItem@CListDialog@@IAEXHPAUtagDRAWITEMSTRUCT@@@Z 00420830 f   ListDialog.obj
 0001:0001fa20       ?HeaderDoubleClick@CListDialog@@AAEXJ@Z 00420a20 f   ListDialog.obj
 0001:0001fd00       ?RealSortNum@CListDialog@@AAEKK@Z 00420d00 f   ListDialog.obj
 0001:0001fd40       ?MarkSort@CListDialog@@AAEXK@Z 00420d40 f   ListDialog.obj
 0001:0001fe20       ??0CLog@@QAE@PAVCWnd@@@Z   00420e20 f   Log.obj
 0001:0001ff00       ??_GCLog@@UAEPAXI@Z        00420f00 f i Log.obj
 0001:0001ff00       ??_ECLog@@UAEPAXI@Z        00420f00 f i Log.obj
 0001:0001ff30       ??1CLog@@UAE@XZ            00420f30 f i Log.obj
 0001:0001fff0       ?DoDataExchange@CLog@@MAEXPAVCDataExchange@@@Z 00420ff0 f   Log.obj
 0001:00020040       ?GetMessageMap@CLog@@MBEPBUAFX_MSGMAP@@XZ 00421040 f   Log.obj
 0001:00020050       ?WindowProc@CLog@@MAEJIIJ@Z 00421050 f   Log.obj
 0001:000200a0       ?OnTimer@CLog@@IAEXI@Z     004210a0 f   Log.obj
 0001:000200d0       ?OnInitDialog@CLog@@MAEHXZ 004210d0 f   Log.obj
 0001:000203c0       ?OnButtonSaveLog@CLog@@IAEXXZ 004213c0 f   Log.obj
 0001:000207c0       ?OnButtonExecute@CLog@@IAEXXZ 004217c0 f   Log.obj
 0001:00020850       ?UpdateList@CLog@@AAEXXZ   00421850 f   Log.obj
 0001:00020a40       ?OnButtonCopy@CLog@@IAEXXZ 00421a40 f   Log.obj
 0001:00020b40       ?OnButtonClear@CLog@@IAEXXZ 00421b40 f   Log.obj
 0001:00020b60       ?SelectedLineData@CLog@@AAEPAVSPLogData@@XZ 00421b60 f   Log.obj
 0001:00020bd0       ?OnDblclkLog@CLog@@IAEXPAUtagNMHDR@@PAJ@Z 00421bd0 f   Log.obj
 0001:00020bf0       ?OnDestroy@CLog@@IAEXXZ    00421bf0 f   Log.obj
 0001:00020c40       ?OnSize@CLog@@IAEXIHH@Z    00421c40 f   Log.obj
 0001:00020c80       ?AdjustListColumn@CLog@@IAEXXZ 00421c80 f   Log.obj
 0001:00020d20       ?OnChangeLogLine@CLog@@IAEXXZ 00421d20 f   Log.obj
 0001:00020fa0       ?OnColumnClickList@CLog@@IAEXPAUtagNMHDR@@PAJ@Z 00421fa0 f   Log.obj
 0001:00020ff0       ?SortList@CLog@@AAEXI@Z    00421ff0 f   Log.obj
 0001:00021050       ?OnSelChangeType@CLog@@IAEXXZ 00422050 f   Log.obj
 0001:00021110       ?SetLogManager@CLog@@QAEXPAVSPLogManagerCore@@@Z 00422110 f   Log.obj
 0001:000211a0       ?ChangeSelTypeControl@CLog@@AAEXXZ 004221a0 f   Log.obj
 0001:00021200       ?PreTranslateMessage@CLog@@UAEHPAUtagMSG@@@Z 00422200 f   Log.obj
 0001:00021240       ?ProcessShortcut@CLog@@IAEHI@Z 00422240 f   Log.obj
 0001:00021290       ?OnMeasureItem@CLog@@IAEXHPAUtagMEASUREITEMSTRUCT@@@Z 00422290 f   Log.obj
 0001:000212c0       ?OnDrawItem@CLog@@IAEXHPAUtagDRAWITEMSTRUCT@@@Z 004222c0 f   Log.obj
 0001:000215c0       ?OnGetInfoTip@CLog@@IAEXPAUtagNMHDR@@PAJ@Z 004225c0 f   Log.obj
 0001:000216b0       ?MarkSort@CLog@@AAEXK@Z    004226b0 f   Log.obj
 0001:000217c0       ?IsValid@SPGhostSet@@QAEHXZ 004227c0 f   MainFrm.obj
 0001:000217f0       ??1SPGhostSet@@QAE@XZ      004227f0 f   MainFrm.obj
 0001:00021890       ?GetRuntimeClass@CMainFrame@@UBEPAUCRuntimeClass@@XZ 00422890 f   MainFrm.obj
 0001:000218a0       ?GetMessageMap@CMainFrame@@MBEPBUAFX_MSGMAP@@XZ 004228a0 f   MainFrm.obj
 0001:000218b0       ??0CMainFrame@@QAE@XZ      004228b0 f   MainFrm.obj
 0001:00021a60       ??1SPEventObject@@QAE@XZ   00422a60 f i MainFrm.obj
 0001:00021a70       ??_GCMainFrame@@UAEPAXI@Z  00422a70 f i MainFrm.obj
 0001:00021a70       ??_ECMainFrame@@UAEPAXI@Z  00422a70 f i MainFrm.obj
 0001:00021aa0       ??1CMainFrame@@UAE@XZ      00422aa0 f   MainFrm.obj
 0001:00021b90       ?OnCreate@CMainFrame@@IAEHPAUtagCREATESTRUCTA@@@Z 00422b90 f   MainFrm.obj
 0001:00022f10       ??1SPStaticStringArrayA@@QAE@XZ 00423f10 f i MainFrm.obj
 0001:00022fb0       ?StartMainTimer@CMainFrame@@QAEXXZ 00423fb0 f   MainFrm.obj
 0001:00022fe0       ?StopMainTimer@CMainFrame@@QAEXXZ 00423fe0 f   MainFrm.obj
 0001:00023010       ?SaveBootingGhostData@CMainFrame@@QAEXPAVSPGhost@@@Z 00424010 f   MainFrm.obj
 0001:00023240       ?OnClose@CMainFrame@@IAEXXZ 00424240 f   MainFrm.obj
 0001:00023250       ?QuitApplication@CMainFrame@@QAEX_N@Z 00424250 f   MainFrm.obj
 0001:00023280       ?GhostExitProc@CMainFrame@@QAEX_N@Z 00424280 f   MainFrm.obj
 0001:000233a0       ?ExitProc@CMainFrame@@IAEXXZ 004243a0 f   MainFrm.obj
 0001:000233c0       ?AddGhost@CMainFrame@@QAEPAVSPGhostSet@@PAVSPGhost@@PAPAGKK@Z 004243c0 f   MainFrm.obj
 0001:00023650       ?KeepMessengerBootedGhost@CMainFrame@@QAEXPAVCSakuraWnd@@@Z 00424650 f   MainFrm.obj
 0001:000236f0       ?CreateGhostWindows@CMainFrame@@IAEHPAVSPGhostSet@@@Z 004246f0 f   MainFrm.obj
 0001:00023940       ?FindSetFromGhost@CMainFrame@@AAEPAVSPGhostSet@@PAVSPGhost@@@Z 00424940 f   MainFrm.obj
 0001:000239e0       ?DeleteGhost@CMainFrame@@QAEHPAVSPGhostSet@@HH@Z 004249e0 f   MainFrm.obj
 0001:00023b20       ?OnTimer@CMainFrame@@IAEXI@Z 00424b20 f   MainFrm.obj
 0001:00023c40       ?OnTimerDevice@CMainFrame@@AAEXXZ 00424c40 f   MainFrm.obj
 0001:000241e0       ??0SPModuleEvent@@QAE@XZ   004251e0 f i MainFrm.obj
 0001:00024200       ?OnTimerMain@CMainFrame@@AAEXXZ 00425200 f   MainFrm.obj
 0001:00024720       ?ReadHeadlineSequential@CMainFrame@@AAEHPAVSPGhost@@@Z 00425720 f   MainFrm.obj
 0001:00024840       ?ShowCalendar@CMainFrame@@QAEXPAUHWND__@@H@Z 00425840 f   MainFrm.obj
 0001:00024980       ?ToggleMinimizeAll@CMainFrame@@QAEXXZ 00425980 f   MainFrm.obj
 0001:00024a00       ?ShowTaskTrayIcon@CMainFrame@@QAEX_N@Z 00425a00 f   MainFrm.obj
 0001:00024aa0       ?UpdateGhostState@CMainFrame@@IAEXJH@Z 00425aa0 f   MainFrm.obj
 0001:00024ae0       ?InitHistoryMenu@CMainFrame@@AAEXK@Z 00425ae0 f   MainFrm.obj
 0001:00024b10       ?InitGhostMenu@CMainFrame@@AAEXH@Z 00425b10 f   MainFrm.obj
 0001:00024b90       ?InitBalloonMenu@CMainFrame@@AAEXH@Z 00425b90 f   MainFrm.obj
 0001:00024be0       ?InitHeadlineMenu@CMainFrame@@AAEXH@Z 00425be0 f   MainFrm.obj
 0001:00024c30       ?InitPluginMenu@CMainFrame@@AAEXH@Z 00425c30 f   MainFrm.obj
 0001:00024c80       ?InitPluginMenuEnable@CMainFrame@@QAEXXZ 00425c80 f   MainFrm.obj
 0001:00024cb0       ?InitCheckMailMenu@CMainFrame@@QAEXXZ 00425cb0 f   MainFrm.obj
 0001:00024ce0       ?CMainFrame_InitCheckMailMenu@@YAXXZ 00425ce0 f   MainFrm.obj
 0001:00024cf0       ?InitAllGhostMenu@CMainFrame@@QAEXXZ 00425cf0 f   MainFrm.obj
 0001:00024d30       ?WindowProc@CMainFrame@@MAEJIIJ@Z 00425d30 f   MainFrm.obj
 0001:00024f70       ?OnPowerBroadcast@CMainFrame@@IAEJIJ@Z 00425f70 f   MainFrm.obj
 0001:00025060       ?OnDeviceChangeMessage@CMainFrame@@IAEJIJ@Z 00426060 f   MainFrm.obj
 0001:00025500       ??0JWString@@QAE@ABV0@@Z   00426500 f i MainFrm.obj
 0001:00025550       ??1SPDeviceInfo@@QAE@XZ    00426550 f i MainFrm.obj
 0001:000255c0       ?NotifyBatteryStatus@CMainFrame@@AAEHPAVSPGhost@@_N@Z 004265c0 f   MainFrm.obj
 0001:000257a0       ?OnSSPSysMsg@CMainFrame@@IAEJIJ@Z 004267a0 f   MainFrm.obj
 0001:000259b0       ?OnSSPSysMsgGhostClose@CMainFrame@@QAEXPAVSPGhost@@_N@Z 004269b0 f   MainFrm.obj
 0001:00025be0       ?OnSSPSysMsgGhostChange@CMainFrame@@QAEXHJPAVCSakuraWnd@@_N@Z 00426be0 f   MainFrm.obj
 0001:000260f0       ?OnSSPSysMsgShellChange@CMainFrame@@QAEXHJPAVCSakuraWnd@@@Z 004270f0 f   MainFrm.obj
 0001:000264e0       ?OnCopyData@CMainFrame@@IAEHPAVCWnd@@PAUtagCOPYDATASTRUCT@@@Z 004274e0 f   MainFrm.obj
 0001:00026540       ?AssociateFile@CMainFrame@@QAEXHH@Z 00427540 f   MainFrm.obj
 0001:00026a80       ?ShowPropertyWindow@CMainFrame@@QAEXPAUHWND__@@PAG@Z 00427a80 f   MainFrm.obj
 0001:00026c10       ?ShowGhostTimeWindow@CMainFrame@@QAEXPAUHWND__@@@Z 00427c10 f   MainFrm.obj
 0001:00026d30       ?ShowMessengerWindow@CMainFrame@@QAEXXZ 00427d30 f   MainFrm.obj
 0001:00026d90       ?ShowLogWindow@CMainFrame@@QAEXPAVSPLogManagerCore@@@Z 00427d90 f   MainFrm.obj
 0001:00026e80       ?ShowExplorerWindow@CMainFrame@@QAEXPAVCSakuraWnd@@H@Z 00427e80 f   MainFrm.obj
 0001:00026f70       ?UpdateExplorerWindow@CMainFrame@@QAEXPAVCSakuraWnd@@H@Z 00427f70 f   MainFrm.obj
 0001:00026fa0       ?SetExplorerWindowGhost@CMainFrame@@QAEXPAVCSakuraWnd@@@Z 00427fa0 f   MainFrm.obj
 0001:000270c0       ?ShowInfoWindow@CMainFrame@@QAEXPAVSPGhost@@H@Z 004280c0 f   MainFrm.obj
 0001:000271f0       ?OnSettingChange@CMainFrame@@IAEXIPBD@Z 004281f0 f   MainFrm.obj
 0001:00027220       ?OnFontChange@CMainFrame@@IAEXXZ 00428220 f   MainFrm.obj
 0001:000272b0       ?BackFocusToGhost@CMainFrame@@QAEXXZ 004282b0 f   MainFrm.obj
 0001:000273a0       ?OnTaskTray@CMainFrame@@IAEJIJ@Z 004283a0 f   MainFrm.obj
 0001:00027400       ?OnDestroy@CMainFrame@@IAEXXZ 00428400 f   MainFrm.obj
 0001:00027420       ?DestroyProc@CMainFrame@@AAEXXZ 00428420 f   MainFrm.obj
 0001:000275f0       ?OnQueryEndSession@CMainFrame@@IAEHXZ 004285f0 f   MainFrm.obj
 0001:00027620       ?OnEndSession@CMainFrame@@IAEXH@Z 00428620 f   MainFrm.obj
 0001:000276a0       ?WaitForApplicationQuit@CMainFrame@@AAEXXZ 004286a0 f   MainFrm.obj
 0001:000276b0       ?Last@?$JArray@G@@QAEAAGXZ 004286b0 f i MainFrm.obj
 0001:000276d0       ??0?$JArray@K@@QAE@K@Z     004286d0 f i MainFrm.obj
 0001:000276d0       ??0?$JArray@PAX@@QAE@K@Z   004286d0 f i MainFrm.obj
 0001:000276d0       ??0?$JArray@J@@QAE@K@Z     004286d0 f i MainFrm.obj
 0001:00027740       ??_GSPDeviceInfo@@QAEPAXI@Z 00428740 f i MainFrm.obj
 0001:00027770       ?Delete@?$JArray@PAX@@QAEXJ@Z 00428770 f i MainFrm.obj
 0001:000277c0       ??0CMenuCreator@@QAE@HPAVSPMenuItem@@PAUHMENU__@@H@Z 004287c0 f   MenuCreator.obj
 0001:00027a00       ??1CMenuCreator@@QAE@XZ    00428a00 f   MenuCreator.obj
 0001:00027a80       ?Add@CMenuCreator@@QAEXPAVSPProp@@IK@Z 00428a80 f   MenuCreator.obj
 0001:00027b80       ??0CMessageWnd@@QAE@XZ     00428b80 f   MessageWnd.obj
 0001:00027d30       ??_GCMessageWnd@@UAEPAXI@Z 00428d30 f i MessageWnd.obj
 0001:00027d30       ??_ECMessageWnd@@UAEPAXI@Z 00428d30 f i MessageWnd.obj
 0001:00027d60       ??1CMessageWnd@@UAE@XZ     00428d60 f   MessageWnd.obj
 0001:00027df0       ?GetMessageMap@CMessageWnd@@MBEPBUAFX_MSGMAP@@XZ 00428df0 f   MessageWnd.obj
 0001:00027e00       ?OnPaint@CMessageWnd@@IAEXXZ 00428e00 f   MessageWnd.obj
 0001:00027e70       ?OnPrintClient@CMessageWnd@@IAEJIJ@Z 00428e70 f   MessageWnd.obj
 0001:00027e90       ?OnLButtonUp@CMessageWnd@@IAEXIVCPoint@@@Z 00428e90 f   MessageWnd.obj
 0001:000280f0       ?OnLButtonDown@CMessageWnd@@IAEXIVCPoint@@@Z 004290f0 f   MessageWnd.obj
 0001:000281b0       ?ChoiceSelect@CMessageWnd@@AAEHJPAVSPBalloonString@@@Z 004291b0 f   MessageWnd.obj
 0001:00028690       ?SetBalloonUserOffset@CMessageWnd@@AAEXAAVJPoint@@H@Z 00429690 f   MessageWnd.obj
 0001:00028740       ?OnMouseMove@CMessageWnd@@IAEXIVCPoint@@@Z 00429740 f   MessageWnd.obj
 0001:00028ae0       ?OnMouseWheel@CMessageWnd@@IAEHIFVCPoint@@@Z 00429ae0 f   MessageWnd.obj
 0001:00028b40       ?OnVScroll@CMessageWnd@@IAEXIIPAVCScrollBar@@@Z 00429b40 f   MessageWnd.obj
 0001:00028ba0       ?OnCreate@CMessageWnd@@IAEHPAUtagCREATESTRUCTA@@@Z 00429ba0 f   MessageWnd.obj
 0001:00028c60       ?OnGetMinMaxInfo@CMessageWnd@@IAEXPAUtagMINMAXINFO@@@Z 00429c60 f   MessageWnd.obj
 0001:00028cb0       ?OnTimer@CMessageWnd@@IAEXI@Z 00429cb0 f   MessageWnd.obj
 0001:00028d80       ?OnLButtonDblClk@CMessageWnd@@IAEXIVCPoint@@@Z 00429d80 f   MessageWnd.obj
 0001:00028de0       ?Break@CMessageWnd@@QAEXAAVCPoint@@@Z 00429de0 f   MessageWnd.obj
 0001:00028f40       ?WindowProc@CMessageWnd@@MAEJIIJ@Z 00429f40 f   MessageWnd.obj
 0001:00029000       ?OnRButtonUp@CMessageWnd@@IAEXIVCPoint@@@Z 0042a000 f   MessageWnd.obj
 0001:00029030       ?ExecMouseCommand@CMessageWnd@@AAEXIIAAVCPoint@@@Z 0042a030 f   MessageWnd.obj
 0001:00029090       ?OnDestroy@CMessageWnd@@IAEXXZ 0042a090 f   MessageWnd.obj
 0001:000290d0       ?ScrollBalloonMsg@CMessageWnd@@AAEXH@Z 0042a0d0 f   MessageWnd.obj
 0001:00029180       ?CheckScroll@CMessageWnd@@AAEHAAVCPoint@@@Z 0042a180 f   MessageWnd.obj
 0001:000291f0       ?PreTranslateMessage@CMessageWnd@@UAEHPAUtagMSG@@@Z 0042a1f0 f   MessageWnd.obj
 0001:00029230       ?ToolTipActivate@CMessageWnd@@AAEX_N@Z 0042a230 f   MessageWnd.obj
 0001:000292c0       ?OnNotify@CMessageWnd@@MAEHIJPAJ@Z 0042a2c0 f   MessageWnd.obj
 0001:00029310       ?ToolTipDispInfo@CMessageWnd@@AAE_NAAUtagNMTTDISPINFOA@@@Z 0042a310 f   MessageWnd.obj
 0001:000294f0       ??0CMessengerDlg@@QAE@PAVCWnd@@@Z 0042a4f0 f   MessengerDlg.obj
 0001:000295d0       ??_ECStatusBarCtrl@@UAEPAXI@Z 0042a5d0 f i MessengerDlg.obj
 0001:000295d0       ??_GCStatusBarCtrl@@UAEPAXI@Z 0042a5d0 f i MessengerDlg.obj
 0001:00029600       ??_GCTabCtrl@@UAEPAXI@Z    0042a600 f i MessengerDlg.obj
 0001:00029600       ??_ECTabCtrl@@UAEPAXI@Z    0042a600 f i MessengerDlg.obj
 0001:00029630       ??_ECMessengerDlg@@UAEPAXI@Z 0042a630 f i MessengerDlg.obj
 0001:00029630       ??_GCMessengerDlg@@UAEPAXI@Z 0042a630 f i MessengerDlg.obj
 0001:00029660       ??1CMessengerDlg@@UAE@XZ   0042a660 f i MessengerDlg.obj
 0001:00029730       ?DoDataExchange@CMessengerDlg@@MAEXPAVCDataExchange@@@Z 0042a730 f   MessengerDlg.obj
 0001:00029780       ?GetMessageMap@CMessengerDlg@@MBEPBUAFX_MSGMAP@@XZ 0042a780 f   MessengerDlg.obj
 0001:00029790       ?OnInitDialog@CMessengerDlg@@MAEHXZ 0042a790 f   MessengerDlg.obj
 0001:00029a70       ?OnEditCut@CMessengerDlg@@IAEXXZ 0042aa70 f   MessengerDlg.obj
 0001:00029a90       ?OnEditPaste@CMessengerDlg@@IAEXXZ 0042aa90 f   MessengerDlg.obj
 0001:00029ab0       ?OnEditClear@CMessengerDlg@@IAEXXZ 0042aab0 f   MessengerDlg.obj
 0001:00029ad0       ?OnEditCopy@CMessengerDlg@@IAEXXZ 0042aad0 f   MessengerDlg.obj
 0001:00029af0       ?OnClear@CMessengerDlg@@IAEXXZ 0042aaf0 f   MessengerDlg.obj
 0001:00029b00       ?GetEditText@CMessengerDlg@@AAEXAAVJString@@@Z 0042ab00 f   MessengerDlg.obj
 0001:00029b50       ?OnSend@CMessengerDlg@@IAEXXZ 0042ab50 f   MessengerDlg.obj
 0001:00029e00       ??0JThreadLoop@@QAE@XZ     0042ae00 f i MessengerDlg.obj
 0001:00029e50       ??1JDummyLockSection@@UAE@XZ 0042ae50 f i MessengerDlg.obj
 0001:00029e50       ??1JLockable@@UAE@XZ       0042ae50 f i MessengerDlg.obj
 0001:00029e60       ??_GJLockable@@UAEPAXI@Z   0042ae60 f i MessengerDlg.obj
 0001:00029e60       ??_EJLockable@@UAEPAXI@Z   0042ae60 f i MessengerDlg.obj
 0001:00029e90       ??1JThreadLoop@@UAE@XZ     0042ae90 f i MessengerDlg.obj
 0001:00029ef0       ?Start@JThreadLoop@@UAEHJ@Z 0042aef0 f i MessengerDlg.obj
 0001:00029f10       ?Suspend@JThreadLoop@@UAEHXZ 0042af10 f i MessengerDlg.obj
 0001:00029f20       ?Resume@JThreadLoop@@UAEHXZ 0042af20 f i MessengerDlg.obj
 0001:00029f30       ?ForceResume@JThreadLoop@@UAEHXZ 0042af30 f i MessengerDlg.obj
 0001:00029f40       ?Exit@JThreadLoop@@UAEHXZ  0042af40 f i MessengerDlg.obj
 0001:00029f50       ?Sleep@JThreadLoop@@UAEHJ@Z 0042af50 f i MessengerDlg.obj
 0001:00029f70       ?WaitForThreadRelease@JThreadLoop@@UAEHH@Z 0042af70 f i MessengerDlg.obj
 0001:00029f90       ?Lock@JThreadLoop@@UAEXXZ  0042af90 f i MessengerDlg.obj
 0001:00029fa0       ?Unlock@JThreadLoop@@UAEXXZ 0042afa0 f i MessengerDlg.obj
 0001:00029fb0       ??_EJThreadLoop@@UAEPAXI@Z 0042afb0 f i MessengerDlg.obj
 0001:00029fb0       ??_GJThreadLoop@@UAEPAXI@Z 0042afb0 f i MessengerDlg.obj
 0001:00029fe0       ??0SPMsgSender@@QAE@XZ     0042afe0 f i MessengerDlg.obj
 0001:0002a0e0       ??1SPMsgSender@@UAE@XZ     0042b0e0 f i MessengerDlg.obj
 0001:0002a1d0       ??_GSPMsgSender@@UAEPAXI@Z 0042b1d0 f i MessengerDlg.obj
 0001:0002a1d0       ??_ESPMsgSender@@UAEPAXI@Z 0042b1d0 f i MessengerDlg.obj
 0001:0002a200       ??_ESPMsgSenderIPMessenger@@UAEPAXI@Z 0042b200 f i MessengerDlg.obj
 0001:0002a200       ??_GSPMsgSenderIPMessenger@@UAEPAXI@Z 0042b200 f i MessengerDlg.obj
 0001:0002a230       ??_GSPMsgSenderSSTP@@UAEPAXI@Z 0042b230 f i MessengerDlg.obj
 0001:0002a230       ??_ESPMsgSenderSSTP@@UAEPAXI@Z 0042b230 f i MessengerDlg.obj
 0001:0002a260       ??1SPMsgSenderIPMessenger@@UAE@XZ 0042b260 f i MessengerDlg.obj
 0001:0002a380       ??1SPMsgSenderSSTP@@UAE@XZ 0042b380 f i MessengerDlg.obj
 0001:0002a490       ?OnDestroy@CMessengerDlg@@IAEXXZ 0042b490 f   MessengerDlg.obj
 0001:0002a530       ?OnCommand@CMessengerDlg@@MAEHIJ@Z 0042b530 f   MessengerDlg.obj
 0001:0002a580       ?SetListNum@CMessengerDlg@@AAEXK@Z 0042b580 f   MessengerDlg.obj
 0001:0002a600       ?SetLogNum@CMessengerDlg@@AAEXK@Z 0042b600 f   MessengerDlg.obj
 0001:0002a680       ?UpdateMsgListIfSelected@CMessengerDlg@@AAEXK@Z 0042b680 f   MessengerDlg.obj
 0001:0002a6b0       ?UpdateMsgList@CMessengerDlg@@AAEXXZ 0042b6b0 f   MessengerDlg.obj
 0001:0002aa70       ?UpdateUserList@CMessengerDlg@@AAEXXZ 0042ba70 f   MessengerDlg.obj
 0001:0002abf0       ?UpdateEditBytes@CMessengerDlg@@AAEXXZ 0042bbf0 f   MessengerDlg.obj
 0001:0002ac40       ?UpdateType@CMessengerDlg@@AAEXXZ 0042bc40 f   MessengerDlg.obj
 0001:0002aca0       ?GetUser@CMessengerDlg@@AAEPAVSPMessengerUser@@K@Z 0042bca0 f   MessengerDlg.obj
 0001:0002ad10       ?GetSelUser@CMessengerDlg@@AAEPAVSPMessengerUser@@XZ 0042bd10 f   MessengerDlg.obj
 0001:0002ad20       ?ClearForm@CMessengerDlg@@QAEXXZ 0042bd20 f   MessengerDlg.obj
 0001:0002ad40       ?OnClose2@CMessengerDlg@@IAEXXZ 0042bd40 f   MessengerDlg.obj
 0001:0002ad40       ?OnOK@CSSPProperty@@MAEXXZ 0042bd40 f   MessengerDlg.obj
 0001:0002ad50       ?AdjustListColumn@CMessengerDlg@@AAEXXZ 0042bd50 f   MessengerDlg.obj
 0001:0002adc0       ?UpdateMenuState@CMessengerDlg@@AAEXPAUHMENU__@@@Z 0042bdc0 f   MessengerDlg.obj
 0001:0002ae10       ?CMessengerDlg_UpdateUserList@@YAXXZ 0042be10 f   MessengerDlg.obj
 0001:0002ae30       ?CMessengerDlg_UpdateMsgList@@YAXI@Z 0042be30 f   MessengerDlg.obj
 0001:0002ae60       ?OnMessenger@CMessengerDlg@@IAEJIJ@Z 0042be60 f   MessengerDlg.obj
 0001:0002aec0       ?OnTimer@CMessengerDlg@@IAEXI@Z 0042bec0 f   MessengerDlg.obj
 0001:0002aef0       ?OnSize@CMessengerDlg@@IAEXIHH@Z 0042bef0 f   MessengerDlg.obj
 0001:0002af30       ?OnChangeMessage@CMessengerDlg@@IAEXXZ 0042bf30 f   MessengerDlg.obj
 0001:0002af40       ?OnRclickUsertab@CMessengerDlg@@IAEXPAUtagNMHDR@@PAJ@Z 0042bf40 f   MessengerDlg.obj
 0001:0002b070       ?OnSelchangeUsertab@CMessengerDlg@@IAEXPAUtagNMHDR@@PAJ@Z 0042c070 f   MessengerDlg.obj
 0001:0002b0c0       ?OnBnClickedTest@CMessengerDlg@@QAEXXZ 0042c0c0 f   MessengerDlg.obj
 0001:0002b1d0       ?UserCommand@CMessengerDlg@@AAE_NIJK@Z 0042c1d0 f   MessengerDlg.obj
 0001:0002b250       ?UserDelete@CMessengerDlg@@AAEXK@Z 0042c250 f   MessengerDlg.obj
 0001:0002b2b0       ?UserNew@CMessengerDlg@@AAEXXZ 0042c2b0 f   MessengerDlg.obj
 0001:0002b3d0       ??1CMessengerUserDlg@@UAE@XZ 0042c3d0 f i MessengerDlg.obj
 0001:0002b470       ?UserProp@CMessengerDlg@@AAEXK@Z 0042c470 f   MessengerDlg.obj
 0001:0002b580       ?CmdUpdateUserList@CMessengerDlg@@AAEXXZ 0042c580 f   MessengerDlg.obj
 0001:0002b5b0       ?UserLogDel@CMessengerDlg@@AAEXK@Z 0042c5b0 f   MessengerDlg.obj
 0001:0002b5d0       ?CreateObject@CMessengerSettingDlg@@SGPAVCObject@@XZ 0042c5d0 f   MessengerSettingDlg.obj
 0001:0002b630       ?GetRuntimeClass@CMessengerSettingDlg@@UBEPAUCRuntimeClass@@XZ 0042c630 f   MessengerSettingDlg.obj
 0001:0002b640       ??0CMessengerSettingDlg@@QAE@PAVCWnd@@@Z 0042c640 f   MessengerSettingDlg.obj
 0001:0002b6e0       ??_GCMessengerSettingDlg@@UAEPAXI@Z 0042c6e0 f i MessengerSettingDlg.obj
 0001:0002b6e0       ??_ECMessengerSettingDlg@@UAEPAXI@Z 0042c6e0 f i MessengerSettingDlg.obj
 0001:0002b710       ??1CMessengerSettingDlg@@UAE@XZ 0042c710 f i MessengerSettingDlg.obj
 0001:0002b780       ?DoDataExchange@CMessengerSettingDlg@@MAEXPAVCDataExchange@@@Z 0042c780 f   MessengerSettingDlg.obj
 0001:0002b7d0       ?GetMessageMap@CMessengerSettingDlg@@MBEPBUAFX_MSGMAP@@XZ 0042c7d0 f   MessengerSettingDlg.obj
 0001:0002b7e0       ?OnServiceadd@CMessengerSettingDlg@@IAEXXZ 0042c7e0 f   MessengerSettingDlg.obj
 0001:0002ba00       ??1SPDirServProp@@QAE@XZ   0042ca00 f i MessengerSettingDlg.obj
 0001:0002baf0       ?OnServiceedit@CMessengerSettingDlg@@IAEXXZ 0042caf0 f   MessengerSettingDlg.obj
 0001:0002bc50       ?OnInitDialog@CMessengerSettingDlg@@MAEHXZ 0042cc50 f   MessengerSettingDlg.obj
 0001:0002be80       ?OnChangeGroupname@CMessengerSettingDlg@@IAEXXZ 0042ce80 f   MessengerSettingDlg.obj
 0001:0002bed0       ?OnChangeName@CMessengerSettingDlg@@IAEXXZ 0042ced0 f   MessengerSettingDlg.obj
 0001:0002bf20       ?OnServicedel@CMessengerSettingDlg@@IAEXXZ 0042cf20 f   MessengerSettingDlg.obj
 0001:0002bfe0       ?OnDblclkServicelist@CMessengerSettingDlg@@IAEXPAUtagNMHDR@@PAJ@Z 0042cfe0 f   MessengerSettingDlg.obj
 0001:0002c000       ?OnNotranslate@CMessengerSettingDlg@@IAEXXZ 0042d000 f   MessengerSettingDlg.obj
 0001:0002c020       ?OnAutoclear@CMessengerSettingDlg@@IAEXXZ 0042d020 f   MessengerSettingDlg.obj
 0001:0002c040       ??0CMessengerUserDlg@@QAE@PAVCWnd@@@Z 0042d040 f   MessengerUserDlg.obj
 0001:0002c130       ??_ECMessengerUserDlg@@UAEPAXI@Z 0042d130 f i MessengerUserDlg.obj
 0001:0002c130       ??_GCMessengerUserDlg@@UAEPAXI@Z 0042d130 f i MessengerUserDlg.obj
 0001:0002c160       ?DoDataExchange@CMessengerUserDlg@@MAEXPAVCDataExchange@@@Z 0042d160 f   MessengerUserDlg.obj
 0001:0002c1e0       ?GetMessageMap@CMessengerUserDlg@@MBEPBUAFX_MSGMAP@@XZ 0042d1e0 f   MessengerUserDlg.obj
 0001:0002c1f0       ?OnOK@CMessengerUserDlg@@MAEXXZ 0042d1f0 f   MessengerUserDlg.obj
 0001:0002c390       ?OnDirectip@CMessengerUserDlg@@IAEXXZ 0042d390 f   MessengerUserDlg.obj
 0001:0002c3d0       ?OnDirectoryservice@CMessengerUserDlg@@IAEXXZ 0042d3d0 f   MessengerUserDlg.obj
 0001:0002c410       ?OnCancel@CMessengerUserDlg@@MAEXXZ 0042d410 f   MessengerUserDlg.obj
 0001:0002c420       ?OnInitDialog@CMessengerUserDlg@@MAEHXZ 0042d420 f   MessengerUserDlg.obj
 0001:0002c6a0       ??0CModuleCharset@@QAE@PAVCWnd@@@Z 0042d6a0 f   ModuleCharset.obj
 0001:0002c790       ??_ECModuleCharset@@UAEPAXI@Z 0042d790 f i ModuleCharset.obj
 0001:0002c790       ??_GCModuleCharset@@UAEPAXI@Z 0042d790 f i ModuleCharset.obj
 0001:0002c7c0       ??1CModuleCharset@@UAE@XZ  0042d7c0 f i ModuleCharset.obj
 0001:0002c870       ?DoDataExchange@CModuleCharset@@MAEXPAVCDataExchange@@@Z 0042d870 f   ModuleCharset.obj
 0001:0002c900       ?GetMessageMap@CModuleCharset@@MBEPBUAFX_MSGMAP@@XZ 0042d900 f   ModuleCharset.obj
 0001:0002c910       ?OnInitDialog@CModuleCharset@@MAEHXZ 0042d910 f   ModuleCharset.obj
 0001:0002caf0       ?OnOK@CModuleCharset@@UAEXXZ 0042daf0 f   ModuleCharset.obj
 0001:0002cbc0       ?ThreadProcRSS@CNetUpdateDlg@@QAEXPCH@Z 0042dbc0 f   NetUpdateDlg.obj
 0001:0002ce00       ?ThreadProc@CNetUpdateDlg@@QAEXPCH@Z 0042de00 f   NetUpdateDlg.obj
 0001:0002d270       ??1JBufferedStream@@UAE@XZ 0042e270 f i NetUpdateDlg.obj
 0001:0002d2a0       ?SetBufferSize@JBufferedStream@@QAEXK@Z 0042e2a0 f i NetUpdateDlg.obj
 0001:0002d2e0       ?Open@JBufferedStream@@UAEHPAVJStreamObject@@PBDH@Z 0042e2e0 f i NetUpdateDlg.obj
 0001:0002d330       ?OpenW@JBufferedStream@@UAEHPAVJStreamObject@@PBGH@Z 0042e330 f i NetUpdateDlg.obj
 0001:0002d380       ?Open@JBufferedStream@@UAEHPBDH@Z 0042e380 f i NetUpdateDlg.obj
 0001:0002d3b0       ?OpenW@JBufferedStream@@UAEHPBGH@Z 0042e3b0 f i NetUpdateDlg.obj
 0001:0002d3e0       ?Close@JBufferedStream@@UAEXXZ 0042e3e0 f i NetUpdateDlg.obj
 0001:0002d410       ?AttachStream@JBufferedStream@@UAEXPAVJStreamObject@@@Z 0042e410 f i NetUpdateDlg.obj
 0001:0002d440       ?DetachStream@JBufferedStream@@UAEPAVJStreamObject@@XZ 0042e440 f i NetUpdateDlg.obj
 0001:0002d450       ??_GJBufferedStream@@UAEPAXI@Z 0042e450 f i NetUpdateDlg.obj
 0001:0002d450       ??_EJBufferedStream@@UAEPAXI@Z 0042e450 f i NetUpdateDlg.obj
 0001:0002d560       ?UpdateOne@CNetUpdateDlg@@AAEHPAGPAD1@Z 0042e560 f   NetUpdateDlg.obj
 0001:0002dc70       ??0SPCmdNotifier@@QAE@XZ   0042ec70 f i NetUpdateDlg.obj
 0001:0002dcc0       ??0SPHttp@@QAE@XZ          0042ecc0 f i NetUpdateDlg.obj
 0001:0002dee0       ??_GSPUpdate@@UAEPAXI@Z    0042eee0 f i NetUpdateDlg.obj
 0001:0002dee0       ??_ESPUpdate@@UAEPAXI@Z    0042eee0 f i NetUpdateDlg.obj
 0001:0002df10       ?MakeExeList@CNetUpdateDlg@@AAEXAAVSPStaticStringArrayA@@PADK@Z 0042ef10 f   NetUpdateDlg.obj
 0001:0002e180       ??0CNetUpdateDlg@@QAE@PAVCWnd@@@Z 0042f180 f   NetUpdateDlg.obj
 0001:0002e330       ??_ECNetUpdateDlg@@UAEPAXI@Z 0042f330 f i NetUpdateDlg.obj
 0001:0002e330       ??_GCNetUpdateDlg@@UAEPAXI@Z 0042f330 f i NetUpdateDlg.obj
 0001:0002e360       ??1CNetUpdateDlg@@UAE@XZ   0042f360 f i NetUpdateDlg.obj
 0001:0002e610       ?DoDataExchange@CNetUpdateDlg@@MAEXPAVCDataExchange@@@Z 0042f610 f   NetUpdateDlg.obj
 0001:0002e660       ?GetMessageMap@CNetUpdateDlg@@MBEPBUAFX_MSGMAP@@XZ 0042f660 f   NetUpdateDlg.obj
 0001:0002e670       ?OnCancel@CNetUpdateDlg@@MAEXXZ 0042f670 f   NetUpdateDlg.obj
 0001:0002e6b0       ?OnInitDialog@CNetUpdateDlg@@MAEHXZ 0042f6b0 f   NetUpdateDlg.obj
 0001:0002e780       ?OnDestroy@CNetUpdateDlg@@IAEXXZ 0042f780 f   NetUpdateDlg.obj
 0001:0002e7b0       ?SetName@CNetUpdateDlg@@QAEXPAGII@Z 0042f7b0 f   NetUpdateDlg.obj
 0001:0002e8e0       ?SetInfo@CNetUpdateDlg@@QAEXAAV?$JArray@K@@AAV?$JArray@VCListDialogData@@@@PADHHPAVCListDialog@@@Z 0042f8e0 f   NetUpdateDlg.obj
 0001:0002e9e0       ?CreateMe@CNetUpdateDlg@@QAEXXZ 0042f9e0 f   NetUpdateDlg.obj
 0001:0002ea30       ?SPCNotify@CNetUpdateDlg@@UAE_NKPAPAXK@Z 0042fa30 f   NetUpdateDlg.obj
 0001:0002ecf0       ?OnClose@CNetUpdateDlg@@IAEXXZ 0042fcf0 f   NetUpdateDlg.obj
 0001:0002ed10       ??_ECNetUpdateDlg@@WFM@AEPAXI@Z 0042fd10 f i NetUpdateDlg.obj
 0001:0002ed20       ??0CNetworkDlg@@QAE@PAVCWnd@@@Z 0042fd20 f   NetworkDlg.obj
 0001:0002ee90       ??_ECNetworkDlg@@UAEPAXI@Z 0042fe90 f i NetworkDlg.obj
 0001:0002ee90       ??_GCNetworkDlg@@UAEPAXI@Z 0042fe90 f i NetworkDlg.obj
 0001:0002eec0       ??1CNetworkDlg@@UAE@XZ     0042fec0 f i NetworkDlg.obj
 0001:0002efb0       ?DoDataExchange@CNetworkDlg@@MAEXPAVCDataExchange@@@Z 0042ffb0 f   NetworkDlg.obj
 0001:0002f0a0       ?GetMessageMap@CNetworkDlg@@MBEPBUAFX_MSGMAP@@XZ 004300a0 f   NetworkDlg.obj
 0001:0002f0b0       ?OnInitDialog@CNetworkDlg@@MAEHXZ 004300b0 f   NetworkDlg.obj
 0001:0002f4a0       ?OnEnableproxy@CNetworkDlg@@IAEXXZ 004304a0 f   NetworkDlg.obj
 0001:0002f500       ?SetEnable@CNetworkDlg@@AAEXXZ 00430500 f   NetworkDlg.obj
 0001:0002f5d0       ?OnChangeProxyaddress@CNetworkDlg@@IAEXXZ 004305d0 f   NetworkDlg.obj
 0001:0002f630       ?OnChangeProxyport@CNetworkDlg@@IAEXXZ 00430630 f   NetworkDlg.obj
 0001:0002f690       ?OnConnectionLimit@CNetworkDlg@@IAEXXZ 00430690 f   NetworkDlg.obj
 0001:0002f6d0       ?OnChangeConnectionLimitStart@CNetworkDlg@@IAEXPAUtagNMHDR@@PAJ@Z 004306d0 f   NetworkDlg.obj
 0001:0002f750       ?OnChangeConnectionLimitStop@CNetworkDlg@@IAEXPAUtagNMHDR@@PAJ@Z 00430750 f   NetworkDlg.obj
 0001:0002f7d0       ?OnUseSystemSetting@CNetworkDlg@@IAEXXZ 004307d0 f   NetworkDlg.obj
 0001:0002f850       ?SetProxyAddr@CNetworkDlg@@AAEXXZ 00430850 f   NetworkDlg.obj
 0001:0002f930       ?OnChangeProxyUser@CNetworkDlg@@IAEXXZ 00430930 f   NetworkDlg.obj
 0001:0002f990       ?OnChangeProxyPass@CNetworkDlg@@IAEXXZ 00430990 f   NetworkDlg.obj
 0001:0002fa00       ?OnConnectionAsk@CNetworkDlg@@IAEXXZ 00430a00 f   NetworkDlg.obj
 0001:0002fa40       ?OnChangeSntpDuration@CNetworkDlg@@IAEXXZ 00430a40 f   NetworkDlg.obj
 0001:0002fa90       ?OnSntpAutoClick@CNetworkDlg@@IAEXXZ 00430a90 f   NetworkDlg.obj
 0001:0002faf0       ?OnSntpCheck@CNetworkDlg@@IAEXXZ 00430af0 f   NetworkDlg.obj
 0001:0002fb10       ?OnHttpCheck@CNetworkDlg@@IAEXXZ 00430b10 f   NetworkDlg.obj
 0001:0002fb30       ?OnChangeSntpAddress@CNetworkDlg@@IAEXXZ 00430b30 f   NetworkDlg.obj
 0001:0002fb80       ?OnChangeHttpAddress@CNetworkDlg@@IAEXXZ 00430b80 f   NetworkDlg.obj
 0001:0002fbd0       ?OnSelchangeSntpAddress@CNetworkDlg@@IAEXXZ 00430bd0 f   NetworkDlg.obj
 0001:0002fc80       ?OnSelchangeHttpAddress@CNetworkDlg@@IAEXXZ 00430c80 f   NetworkDlg.obj
 0001:0002fca0       ?OnSelChangeProxyType@CNetworkDlg@@IAEXXZ 00430ca0 f   NetworkDlg.obj
 0001:0002fcc0       ?SetProxySettingFromCombo@CNetworkDlg@@AAEXXZ 00430cc0 f   NetworkDlg.obj
 0001:0002fd10       ?OnSelchangeProtocol@CNetworkDlg@@IAEXXZ 00430d10 f   NetworkDlg.obj
 0001:0002fd50       ?OnSslVerify@CNetworkDlg@@IAEXXZ 00430d50 f   NetworkDlg.obj
 0001:0002fd80       ?CreateObject@CNetworkExtDlg@@SGPAVCObject@@XZ 00430d80 f   NetworkExtDlg.obj
 0001:0002fde0       ?GetRuntimeClass@CNetworkExtDlg@@UBEPAUCRuntimeClass@@XZ 00430de0 f   NetworkExtDlg.obj
 0001:0002fdf0       ??0CNetworkExtDlg@@QAE@PAVCWnd@@@Z 00430df0 f   NetworkExtDlg.obj
 0001:0002ff50       ??_GCNetworkExtDlg@@UAEPAXI@Z 00430f50 f i NetworkExtDlg.obj
 0001:0002ff50       ??_ECNetworkExtDlg@@UAEPAXI@Z 00430f50 f i NetworkExtDlg.obj
 0001:0002ff80       ??1CNetworkExtDlg@@UAE@XZ  00430f80 f i NetworkExtDlg.obj
 0001:00030070       ?DoDataExchange@CNetworkExtDlg@@MAEXPAVCDataExchange@@@Z 00431070 f   NetworkExtDlg.obj
 0001:00030140       ?GetMessageMap@CNetworkExtDlg@@MBEPBUAFX_MSGMAP@@XZ 00431140 f   NetworkExtDlg.obj
 0001:00030150       ?OnInitDialog@CNetworkExtDlg@@MAEHXZ 00431150 f   NetworkExtDlg.obj
 0001:00030440       ?OnDestroy@CNetworkExtDlg@@IAEXXZ 00431440 f   NetworkExtDlg.obj
 0001:00030460       ?OnAutoheadline@CNetworkExtDlg@@IAEXXZ 00431460 f   NetworkExtDlg.obj
 0001:00030500       ?OnChangeHeadlineInterval@CNetworkExtDlg@@IAEXXZ 00431500 f   NetworkExtDlg.obj
 0001:00030560       ?OnHeadlinePlay@CNetworkExtDlg@@IAEXXZ 00431560 f   NetworkExtDlg.obj
 0001:000305d0       ?OnHeadlineNone@CNetworkExtDlg@@IAEXXZ 004315d0 f   NetworkExtDlg.obj
 0001:000305f0       ?OnHeadlineBrowse@CNetworkExtDlg@@IAEXXZ 004315f0 f   NetworkExtDlg.obj
 0001:00030730       ?OnChangeHeadlineSoundpath@CNetworkExtDlg@@IAEXXZ 00431730 f   NetworkExtDlg.obj
 0001:00030780       ?OnSstpAdd@CNetworkExtDlg@@IAEXXZ 00431780 f   NetworkExtDlg.obj
 0001:000308b0       ?OnSstpDel@CNetworkExtDlg@@IAEXXZ 004318b0 f   NetworkExtDlg.obj
 0001:00030910       ?OnSstpOnOff@CNetworkExtDlg@@IAEXXZ 00431910 f   NetworkExtDlg.obj
 0001:00030980       ?OnDblclkSstpList@CNetworkExtDlg@@IAEXPAUtagNMHDR@@PAJ@Z 00431980 f   NetworkExtDlg.obj
 0001:000309a0       ?OnRclickSstpList@CNetworkExtDlg@@IAEXPAUtagNMHDR@@PAJ@Z 004319a0 f   NetworkExtDlg.obj
 0001:00030b00       ?InitSSTPList@CNetworkExtDlg@@AAEXXZ 00431b00 f   NetworkExtDlg.obj
 0001:00030ce0       ?OnSelchangeGhostBoot@CNetworkExtDlg@@IAEXXZ 00431ce0 f   NetworkExtDlg.obj
 0001:00030d30       ?OnSelchangeAfterBoot@CNetworkExtDlg@@IAEXXZ 00431d30 f   NetworkExtDlg.obj
 0001:00030ee0       ?OnListInstalledToFmo@CNetworkExtDlg@@IAEXXZ 00431ee0 f   NetworkExtDlg.obj
 0001:00030f30       ?OnChangeTmpghostMax@CNetworkExtDlg@@IAEXXZ 00431f30 f   NetworkExtDlg.obj
 0001:00030f90       ?OnChangeTmpghostInterval@CNetworkExtDlg@@IAEXXZ 00431f90 f   NetworkExtDlg.obj
 0001:00030ff0       ?StateChangeSSTP@CNetworkExtDlg@@AAEXXZ 00431ff0 f   NetworkExtDlg.obj
 0001:00031060       ?OnSstpLog@CNetworkExtDlg@@IAEXXZ 00432060 f   NetworkExtDlg.obj
 0001:000311b0       ?OnNoBlockChoice@CNetworkExtDlg@@IAEXXZ 004321b0 f   NetworkExtDlg.obj
 0001:000311f0       ?OnHeadlineCountManualUpdate@CNetworkExtDlg@@IAEXXZ 004321f0 f   NetworkExtDlg.obj
 0001:00031220       ?Load@CPlaySSFData@@QAE_NPBD@Z 00432220 f   PlaySSFDlg.obj
 0001:00031860       ?Open@JTokenStream@@QAEHVJString@@@Z 00432860 f i PlaySSFDlg.obj
 0001:000318b0       ?Play@CPlaySSFData@@QAEXXZ 004328b0 f   PlaySSFDlg.obj
 0001:000318f0       ?PlayProc@CPlaySSFData@@QAEXPCH@Z 004328f0 f   PlaySSFDlg.obj
 0001:00031940       ?PlayProcReal@CPlaySSFData@@AAEXPCH@Z 00432940 f   PlaySSFDlg.obj
 0001:00031cc0       ?Cancel@CPlaySSFData@@QAEXXZ 00432cc0 f   PlaySSFDlg.obj
 0001:00031cf0       ??0CPlaySSFDlg@@QAE@PAVCWnd@@@Z 00432cf0 f   PlaySSFDlg.obj
 0001:00031db0       ??_ECPlaySSFDlg@@UAEPAXI@Z 00432db0 f i PlaySSFDlg.obj
 0001:00031db0       ??_GCPlaySSFDlg@@UAEPAXI@Z 00432db0 f i PlaySSFDlg.obj
 0001:00031de0       ??1CPlaySSFDlg@@UAE@XZ     00432de0 f   PlaySSFDlg.obj
 0001:00031f80       ?DoDataExchange@CPlaySSFDlg@@MAEXPAVCDataExchange@@@Z 00432f80 f   PlaySSFDlg.obj
 0001:00031fe0       ?GetMessageMap@CPlaySSFDlg@@MBEPBUAFX_MSGMAP@@XZ 00432fe0 f   PlaySSFDlg.obj
 0001:00031ff0       ?OnInitDialog@CPlaySSFDlg@@MAEHXZ 00432ff0 f   PlaySSFDlg.obj
 0001:000320b0       ?CreateMe@CPlaySSFDlg@@QAE_NXZ 004330b0 f   PlaySSFDlg.obj
 0001:00032100       ?PlaySSF@CPlaySSFDlg@@QAEXPBVJString@@@Z 00433100 f   PlaySSFDlg.obj
 0001:000323d0       ?OnPlay@CPlaySSFDlg@@IAEXXZ 004333d0 f   PlaySSFDlg.obj
 0001:000323f0       ?OnCancel@CPlaySSFDlg@@MAEXXZ 004333f0 f   PlaySSFDlg.obj
 0001:00032460       ?OnCtlColor@CPlaySSFDlg@@IAEPAUHBRUSH__@@PAVCDC@@PAVCWnd@@I@Z 00433460 f   PlaySSFDlg.obj
 0001:000324a0       ?OnCreateClick@CPlaySSFDlg@@IAEXXZ 004334a0 f   PlaySSFDlg.obj
 0001:00032590       ?OnSetCursor@CPlaySSFDlg@@IAEHPAVCWnd@@II@Z 00433590 f   PlaySSFDlg.obj
 0001:000325c0       ?DeleteAllObject@?$JPtrArray@PAVCPlaySSFScript@@@@QAEXXZ 004335c0 f i PlaySSFDlg.obj
 0001:00032610       ??1CPlaySSFScript@@QAE@XZ  00433610 f i PlaySSFDlg.obj
 0001:00032660       ??0CPopAccountDlg@@QAE@PAVCWnd@@@Z 00433660 f   PopAccountDlg.obj
 0001:00032790       ??_GCPopAccountDlg@@UAEPAXI@Z 00433790 f i PopAccountDlg.obj
 0001:00032790       ??_ECPopAccountDlg@@UAEPAXI@Z 00433790 f i PopAccountDlg.obj
 0001:000327c0       ??1CPopAccountDlg@@UAE@XZ  004337c0 f i PopAccountDlg.obj
 0001:00032860       ?DoDataExchange@CPopAccountDlg@@MAEXPAVCDataExchange@@@Z 00433860 f   PopAccountDlg.obj
 0001:00032960       ?GetMessageMap@CPopAccountDlg@@MBEPBUAFX_MSGMAP@@XZ 00433960 f   PopAccountDlg.obj
 0001:00032970       ?OnInitDialog@CPopAccountDlg@@MAEHXZ 00433970 f   PopAccountDlg.obj
 0001:00032ac0       ?OnOK@CPopAccountDlg@@MAEXXZ 00433ac0 f   PopAccountDlg.obj
 0001:00032bf0       ?OnPopPortDefault@CPopAccountDlg@@IAEXXZ 00433bf0 f   PopAccountDlg.obj
 0001:00032ca0       ?CreateObject@CPopDlg@@SGPAVCObject@@XZ 00433ca0 f   PopDlg.obj
 0001:00032d00       ?GetRuntimeClass@CPopDlg@@UBEPAUCRuntimeClass@@XZ 00433d00 f   PopDlg.obj
 0001:00032d10       ??0CPopDlg@@QAE@PAVCWnd@@@Z 00433d10 f   PopDlg.obj
 0001:00032d90       ??_ECPopDlg@@UAEPAXI@Z     00433d90 f i PopDlg.obj
 0001:00032d90       ??_GCPopDlg@@UAEPAXI@Z     00433d90 f i PopDlg.obj
 0001:00032dc0       ??1CPopDlg@@UAE@XZ         00433dc0 f i PopDlg.obj
 0001:00032e20       ?DoDataExchange@CPopDlg@@MAEXPAVCDataExchange@@@Z 00433e20 f   PopDlg.obj
 0001:00032e60       ?GetMessageMap@CPopDlg@@MBEPBUAFX_MSGMAP@@XZ 00433e60 f   PopDlg.obj
 0001:00032e70       ?GetListSel@CPopDlg@@QAEHXZ 00433e70 f   PopDlg.obj
 0001:00032eb0       ?OnInitDialog@CPopDlg@@MAEHXZ 00433eb0 f   PopDlg.obj
 0001:00033070       ?UpdateList@CPopDlg@@QAEXH@Z 00434070 f   PopDlg.obj
 0001:000332f0       ?UpdateButtonState@CPopDlg@@QAEXXZ 004342f0 f   PopDlg.obj
 0001:00033480       ?OnPopAdd@CPopDlg@@IAEXXZ  00434480 f   PopDlg.obj
 0001:00033650       ??_GSPPopAccountProfile@@UAEPAXI@Z 00434650 f i PopDlg.obj
 0001:00033650       ??_ESPPopAccountProfile@@UAEPAXI@Z 00434650 f i PopDlg.obj
 0001:00033680       ??1SPPopAccountProfile@@UAE@XZ 00434680 f i PopDlg.obj
 0001:000336f0       ?OnPopModify@CPopDlg@@IAEXXZ 004346f0 f   PopDlg.obj
 0001:00033920       ??0JString@@QAE@ABV0@@Z    00434920 f i PopDlg.obj
 0001:00033970       ?OnPopCopy@CPopDlg@@IAEXXZ 00434970 f   PopDlg.obj
 0001:000339d0       ?OnPopDel@CPopDlg@@IAEXXZ  004349d0 f   PopDlg.obj
 0001:00033a20       ?OnFolderUp@CPopDlg@@IAEXXZ 00434a20 f   PopDlg.obj
 0001:00033a60       ?OnFolderDown@CPopDlg@@IAEXXZ 00434a60 f   PopDlg.obj
 0001:00033ab0       ?OnCheckMailHeader@CPopDlg@@IAEXXZ 00434ab0 f   PopDlg.obj
 0001:00033af0       ?OnCheckNotifyOnlyNew@CPopDlg@@IAEXXZ 00434af0 f   PopDlg.obj
 0001:00033b20       ?OnCheckNotifyWhenNew@CPopDlg@@IAEXXZ 00434b20 f   PopDlg.obj
 0001:00033b50       ?OnPopPlay@CPopDlg@@IAEXXZ 00434b50 f   PopDlg.obj
 0001:00033bb0       ?OnPopNone@CPopDlg@@IAEXXZ 00434bb0 f   PopDlg.obj
 0001:00033bd0       ?OnPopBrowse@CPopDlg@@IAEXXZ 00434bd0 f   PopDlg.obj
 0001:00033d10       ?OnChangePopSound@CPopDlg@@IAEXXZ 00434d10 f   PopDlg.obj
 0001:00033d60       ?OnDblclkPopList@CPopDlg@@IAEXPAUtagNMHDR@@PAJ@Z 00434d60 f   PopDlg.obj
 0001:00033d80       ?OnItemChangedPopList@CPopDlg@@IAEXPAUtagNMHDR@@PAJ@Z 00434d80 f   PopDlg.obj
 0001:00033e20       ?OnDestroy@CPopDlg@@IAEXXZ 00434e20 f   PopDlg.obj
 0001:00033e40       ??0CProgressWnd@@QAE@XZ    00434e40 f   ProgressWnd.obj
 0001:00033f50       ??_GCProgressWnd@@UAEPAXI@Z 00434f50 f i ProgressWnd.obj
 0001:00033f50       ??_ECProgressWnd@@UAEPAXI@Z 00434f50 f i ProgressWnd.obj
 0001:00033f80       ??1CProgressWnd@@UAE@XZ    00434f80 f   ProgressWnd.obj
 0001:00033fe0       ?GetMessageMap@CProgressWnd@@MBEPBUAFX_MSGMAP@@XZ 00434fe0 f   ProgressWnd.obj
 0001:00033ff0       ?CreateMe@CProgressWnd@@QAEHXZ 00434ff0 f   ProgressWnd.obj
 0001:00034190       ?OnDestroy@CProgressWnd@@IAEXXZ 00435190 f   ProgressWnd.obj
 0001:000341d0       ?OnPaint@CProgressWnd@@IAEXXZ 004351d0 f   ProgressWnd.obj
 0001:00034350       ?GetMessageMap@CSakuraApp@@MBEPBUAFX_MSGMAP@@XZ 00435350 f   sakura.obj
 0001:00034360       ??0CSakuraApp@@QAE@XZ      00435360 f   sakura.obj
 0001:000343b0       ??_GCSakuraApp@@UAEPAXI@Z  004353b0 f i sakura.obj
 0001:000343b0       ??_ECSakuraApp@@UAEPAXI@Z  004353b0 f i sakura.obj
 0001:000343e0       ??1CSakuraApp@@UAE@XZ      004353e0 f i sakura.obj
 0001:00034430       ?InitInstance@CSakuraApp@@UAEHXZ 00435430 f   sakura.obj
 0001:00034db0       ?ExitInstance@CSakuraApp@@UAEHXZ 00435db0 f   sakura.obj
 0001:00034ee0       ?RegisterSSPWindowClasses@CSakuraApp@@AAEXXZ 00435ee0 f   sakura.obj
 0001:00034fc0       ?CallHtmlHelp@CSakuraApp@@QAEXPADIK@Z 00435fc0 f   sakura.obj
 0001:000350d0       ?OnAppAbout@CSakuraApp@@QAEXXZ 004360d0 f   sakura.obj
 0001:00035170       ?LoadSmallIcon@CSakuraApp@@QAEPAUHICON__@@I@Z 00436170 f   sakura.obj
 0001:000351a0       ?PreTranslateMessage@CSakuraApp@@UAEHPAUtagMSG@@@Z 004361a0 f   sakura.obj
 0001:000352e0       ?ParseCommandLineX@CSakuraApp@@AAEXXZ 004362e0 f   sakura.obj
 0001:000354a0       ?WinHelpA@CMainFrame@@UAEXKI@Z 004364a0 f   sakura.obj
 0001:000354a0       ?WinHelpA@CSakuraApp@@UAEXKI@Z 004364a0 f   sakura.obj
 0001:000354b0       ?CreateSakuraMutex@CSakuraApp@@SAXXZ 004364b0 f   sakura.obj
 0001:00035530       ?RegisterAllHotKey@CSakuraApp@@QAEXH@Z 00436530 f   sakura.obj
 0001:000355d0       ??0CSakuraDropTarget@@QAE@XZ 004365d0 f   SakuraDropTarget.obj
 0001:000355f0       ??_GCSakuraDropTarget@@UAEPAXI@Z 004365f0 f i SakuraDropTarget.obj
 0001:000355f0       ??_ECSakuraDropTarget@@UAEPAXI@Z 004365f0 f i SakuraDropTarget.obj
 0001:00035620       ??1CSakuraDropTarget@@UAE@XZ 00436620 f   SakuraDropTarget.obj
 0001:00035630       ?OnDragEnter@CSakuraDropTarget@@UAEKPAVCWnd@@PAVCOleDataObject@@KVCPoint@@@Z 00436630 f   SakuraDropTarget.obj
 0001:00035880       ?OnDragOver@CSakuraDropTarget@@UAEKPAVCWnd@@PAVCOleDataObject@@KVCPoint@@@Z 00436880 f   SakuraDropTarget.obj
 0001:00035930       ?OnDrop@CSakuraDropTarget@@UAEHPAVCWnd@@PAVCOleDataObject@@KVCPoint@@@Z 00436930 f   SakuraDropTarget.obj
 0001:00035e20       ?RegisterGhost@CSakuraDropTarget@@QAEHPAVCWnd@@PAVSPGhost@@H@Z 00436e20 f   SakuraDropTarget.obj
 0001:00035e60       ??0CSakuraWnd@@QAE@XZ      00436e60 f   SakuraWnd.obj
 0001:00036040       ??_ECSakuraWnd@@UAEPAXI@Z  00437040 f i SakuraWnd.obj
 0001:00036040       ??_GCSakuraWnd@@UAEPAXI@Z  00437040 f i SakuraWnd.obj
 0001:00036070       ??1CSakuraWnd@@UAE@XZ      00437070 f   SakuraWnd.obj
 0001:000361d0       ?GetMessageMap@CSakuraWnd@@MBEPBUAFX_MSGMAP@@XZ 004371d0 f   SakuraWnd.obj
 0001:000361e0       ?OnCreate@CSakuraWnd@@IAEHPAUtagCREATESTRUCTA@@@Z 004371e0 f   SakuraWnd.obj
 0001:00036390       ?InitSharedMem@CSakuraWnd@@AAEXXZ 00437390 f   SakuraWnd.obj
 0001:000363e0       ?ModifyCheck@CSakuraWnd@@AAEXXZ 004373e0 f   SakuraWnd.obj
 0001:00036470       ?InitAtBoot@CSakuraWnd@@QAEXXZ 00437470 f   SakuraWnd.obj
 0001:00036500       ?UpdateAllBindMenu@CSakuraWnd@@QAEXXZ 00437500 f   SakuraWnd.obj
 0001:00036550       ?ResetTimeData@CSakuraWnd@@AAEXXZ 00437550 f   SakuraWnd.obj
 0001:000365b0       ?OnLButtonDblClk@CSakuraWnd@@IAEXIVCPoint@@@Z 004375b0 f   SakuraWnd.obj
 0001:00036780       ?OnMouseMove@CSakuraWnd@@IAEXIVCPoint@@@Z 00437780 f   SakuraWnd.obj
 0001:000368c0       ?ModifyPopupMenu@CSakuraWnd@@UAEXXZ 004378c0 f   SakuraWnd.obj
 0001:000370b0       ?GetEnableState@CSakuraWnd@@AAEHXZ 004380b0 f   SakuraWnd.obj
 0001:00037100       ?ModifyPopupMenuEnableStateSakura@CSakuraWnd@@AAEX_N@Z 00438100 f   SakuraWnd.obj
 0001:00037510       ?OnMenuExit@CSakuraWnd@@IAEXXZ 00438510 f   SakuraWnd.obj
 0001:00037550       ?OnMenuClose@CSakuraWnd@@IAEXXZ 00438550 f   SakuraWnd.obj
 0001:000375b0       ?CloseGhostProc@CSakuraWnd@@QAEX_N0@Z 004385b0 f   SakuraWnd.obj
 0001:00037870       ?OnCommand@CSakuraWnd@@MAEHIJ@Z 00438870 f   SakuraWnd.obj
 0001:000386d0       ?OnLoadBalloon@CSakuraWnd@@QAEXXZ 004396d0 f   SakuraWnd.obj
 0001:00038870       ?GetDefaultWndPosX@CSakuraWnd@@UAEHAAJAAVJRect@@1AAVJPoint@@@Z 00439870 f   SakuraWnd.obj
 0001:000388b0       ?TimerExec@CSakuraWnd@@QAEHK@Z 004398b0 f   SakuraWnd.obj
 0001:00038f90       ?UpdateAllWndPos@CSakuraWnd@@QAEXI@Z 00439f90 f   SakuraWnd.obj
 0001:00039000       ?UpdateWndRecommendation@CSakuraWnd@@UAEXXZ 0043a000 f   SakuraWnd.obj
 0001:000392a0       ?UpdateGhostState@CSakuraWnd@@QAEXJH@Z 0043a2a0 f   SakuraWnd.obj
 0001:00039350       ?InitShellMenu@CSakuraWnd@@QAEXH@Z 0043a350 f   SakuraWnd.obj
 0001:00039480       ?OnMenuSetup@CSakuraWnd@@IAEXXZ 0043a480 f   SakuraWnd.obj
 0001:000394a0       ?OnMenuTopmost@CSakuraWnd@@IAEXXZ 0043a4a0 f   SakuraWnd.obj
 0001:000394e0       ?ToggleTopMost@CSakuraWnd@@QAEXH@Z 0043a4e0 f   SakuraWnd.obj
 0001:00039550       ?OnMenuUpdate@CSakuraWnd@@IAEXXZ 0043a550 f   SakuraWnd.obj
 0001:00039580       ?OnMenuVersion@CSakuraWnd@@IAEXXZ 0043a580 f   SakuraWnd.obj
 0001:00039590       ?OnMenuMinimize@CSakuraWnd@@IAEXXZ 0043a590 f   SakuraWnd.obj
 0001:00039610       ?ToggleMinimize@CSakuraWnd@@QAEXH@Z 0043a610 f   SakuraWnd.obj
 0001:00039740       ?RestoreAll@CSakuraWnd@@QAEXXZ 0043a740 f   SakuraWnd.obj
 0001:000397c0       ?MinimizeAll@CSakuraWnd@@QAEXXZ 0043a7c0 f   SakuraWnd.obj
 0001:00039870       ?WindowProc@CSakuraWnd@@MAEJIIJ@Z 0043a870 f   SakuraWnd.obj
 0001:00039920       ?OnTaskTray@CSakuraWnd@@IAEJIJ@Z 0043a920 f   SakuraWnd.obj
 0001:00039ba0       ?OnSakuraAPI@CSakuraWnd@@IAEJIJ@Z 0043aba0 f   SakuraWnd.obj
 0001:0003a370       ?ScreenSaverStateChanged@CSakuraWnd@@QAEXH@Z 0043b370 f   SakuraWnd.obj
 0001:0003a420       ?OnSSPSysMsg@CSakuraWnd@@IAEJIJ@Z 0043b420 f   SakuraWnd.obj
 0001:0003ad90       ?CreateInputBox@CSakuraWnd@@AAEHPAVSPInputWndDispInfo@@@Z 0043bd90 f   SakuraWnd.obj
 0001:0003b080       ?CloseInputBox@CSakuraWnd@@AAEHPAVSPInputWndDispInfo@@@Z 0043c080 f   SakuraWnd.obj
 0001:0003b0f0       ?InitHistoryMenu@CSakuraWnd@@QAEXK@Z 0043c0f0 f   SakuraWnd.obj
 0001:0003b5e0       ?InitGhostMenu@CSakuraWnd@@QAEXH@Z 0043c5e0 f   SakuraWnd.obj
 0001:0003b8a0       ?InitBalloonMenu@CSakuraWnd@@QAEXH@Z 0043c8a0 f   SakuraWnd.obj
 0001:0003ba40       ?InitHeadlineMenu@CSakuraWnd@@QAEXH@Z 0043ca40 f   SakuraWnd.obj
 0001:0003bb80       ?InitHeadlineMenuCheck@CSakuraWnd@@QAEXH@Z 0043cb80 f   SakuraWnd.obj
 0001:0003bc00       ?InitPluginMenu@CSakuraWnd@@QAEXH@Z 0043cc00 f   SakuraWnd.obj
 0001:0003bd20       ?InitPluginMenuEnable@CSakuraWnd@@QAEXXZ 0043cd20 f   SakuraWnd.obj
 0001:0003bdc0       ?InitLanguageMenu@CSakuraWnd@@QAEXXZ 0043cdc0 f   SakuraWnd.obj
 0001:0003bec0       ?InitCheckMailMenu@CSakuraWnd@@QAEXXZ 0043cec0 f   SakuraWnd.obj
 0001:0003c000       ?InitScalingMenu@CSakuraWnd@@QAEXXZ 0043d000 f   SakuraWnd.obj
 0001:0003c110       ?OnMenuScript@CSakuraWnd@@IAEXXZ 0043d110 f   SakuraWnd.obj
 0001:0003c130       ?OnMenuResetpos@CSakuraWnd@@IAEXXZ 0043d130 f   SakuraWnd.obj
 0001:0003c260       ?OnMenuResetBalloon@CSakuraWnd@@IAEXXZ 0043d260 f   SakuraWnd.obj
 0001:0003c270       ?OnMenuGhostinfo@CSakuraWnd@@IAEXXZ 0043d270 f   SakuraWnd.obj
 0001:0003c290       ?OnCopyData@CSakuraWnd@@IAEHPAVCWnd@@PAUtagCOPYDATASTRUCT@@@Z 0043d290 f   SakuraWnd.obj
 0001:0003c2b0       ?OnCopyDataSSTP@CSakuraWnd@@QAEHPAUHWND__@@PAUtagCOPYDATASTRUCT@@H@Z 0043d2b0 f   SakuraWnd.obj
 0001:0003c380       ?OnMenuCalendar@CSakuraWnd@@IAEXXZ 0043d380 f   SakuraWnd.obj
 0001:0003c3a0       ?CCalendarWnd_UpdateSkinMenu@@YAXXZ 0043d3a0 f   SakuraWnd.obj
 0001:0003c3d0       ?CCalendarWnd_UpdateSensorMenu@@YAXXZ 0043d3d0 f   SakuraWnd.obj
 0001:0003c400       ?OnMenuGhosttime@CSakuraWnd@@IAEXXZ 0043d400 f   SakuraWnd.obj
 0001:0003c410       ?OnMenuIm@CSakuraWnd@@IAEXXZ 0043d410 f   SakuraWnd.obj
 0001:0003c420       ?OnMenuCompatibleMode@CSakuraWnd@@IAEXXZ 0043d420 f   SakuraWnd.obj
 0001:0003c440       ?OnMenuTalkshiori@CSakuraWnd@@IAEXXZ 0043d440 f   SakuraWnd.obj
 0001:0003c490       ?OnMenuSound@CSakuraWnd@@IAEXXZ 0043d490 f   SakuraWnd.obj
 0001:0003c4e0       ?OnMenuBalloonMove@CSakuraWnd@@IAEXXZ 0043d4e0 f   SakuraWnd.obj
 0001:0003c530       ?OnMenuUninstall@CSakuraWnd@@IAEXXZ 0043d530 f   SakuraWnd.obj
 0001:0003c590       ?CreateCharacter@CSakuraWnd@@QAEHHH@Z 0043d590 f   SakuraWnd.obj
 0001:0003c740       ?OnDestroy@CSakuraWnd@@IAEXXZ 0043d740 f   SakuraWnd.obj
 0001:0003c8b0       ?SaveWndPos@CSakuraWnd@@QAEXXZ 0043d8b0 f   SakuraWnd.obj
 0001:0003ca40       ?OnMenuLeavepassive@CSakuraWnd@@IAEXXZ 0043da40 f   SakuraWnd.obj
 0001:0003ca60       ?OnMenuHelp@CSakuraWnd@@IAEXXZ 0043da60 f   SakuraWnd.obj
 0001:0003ca80       ?OnMenuPopAllcheck@CSakuraWnd@@IAEXXZ 0043da80 f   SakuraWnd.obj
 0001:0003cab0       ?GetAllCharWindow@CSakuraWnd@@QAEXAAV?$JArray@PAX@@@Z 0043dab0 f   SakuraWnd.obj
 0001:0003cca0       ?GetAllInputWindow@CSakuraWnd@@QAEXAAV?$JArray@PAX@@@Z 0043dca0 f   SakuraWnd.obj
 0001:0003cdd0       ?SetAllCharWindowPos@CSakuraWnd@@AAEXPAUHWND__@@K@Z 0043ddd0 f   SakuraWnd.obj
 0001:0003ce80       ?SetAllInputWindowPos@CSakuraWnd@@AAEXPAUHWND__@@K@Z 0043de80 f   SakuraWnd.obj
 0001:0003cf10       ?ActivateAllWindow@CSakuraWnd@@QAEXXZ 0043df10 f   SakuraWnd.obj
 0001:0003cf50       ?OnClose@CSakuraWnd@@IAEXXZ 0043df50 f   SakuraWnd.obj
 0001:0003cf70       ?LoadTrayIcon@CSakuraWnd@@AAEXPAVSPTrayIconInfo@@_N@Z 0043df70 f   SakuraWnd.obj
 0001:0003d300       ?ReloadTrayIcon@CSakuraWnd@@AAEXPAVSPTrayIconInfo@@@Z 0043e300 f   SakuraWnd.obj
 0001:0003d330       ?DestroyTrayIcon@CSakuraWnd@@AAEXXZ 0043e330 f   SakuraWnd.obj
 0001:0003d3b0       ?ShowTrayIcon@CSakuraWnd@@QAEXHH@Z 0043e3b0 f   SakuraWnd.obj
 0001:0003d400       ?OnMenuCloseBalloon@CSakuraWnd@@IAEXXZ 0043e400 f   SakuraWnd.obj
 0001:0003d410       ?OnMenuExplorer@CSakuraWnd@@IAEXXZ 0043e410 f   SakuraWnd.obj
 0001:0003d420       ?OnMenuSntp@CSakuraWnd@@IAEXXZ 0043e420 f   SakuraWnd.obj
 0001:0003d470       ?OnMenuScriptLog@CSakuraWnd@@IAEXXZ 0043e470 f   SakuraWnd.obj
 0001:0003d490       ?OnMenuReloadGhost@CSakuraWnd@@IAEXXZ 0043e490 f   SakuraWnd.obj
 0001:0003d4c0       ?OnSysCommand@CSakuraWnd@@IAEXIJ@Z 0043e4c0 f   SakuraWnd.obj
 0001:0003d510       ?InitMenu@CSakuraWnd@@QAEXXZ 0043e510 f   SakuraWnd.obj
 0001:0003d560       ?GetCharWnd@CSakuraWnd@@QAEPAVCCharWndCode@@K@Z 0043e560 f   SakuraWnd.obj
 0001:0003d5c0       ?AllMenuUpdate@CSakuraWnd@@QAEXXZ 0043e5c0 f   SakuraWnd.obj
 0001:0003d670       ?OnMenuPurgeGhostCache@CSakuraWnd@@IAEXXZ 0043e670 f   SakuraWnd.obj
 0001:0003d6b0       ?OnMenuSurfaceTest@CSakuraWnd@@IAEXXZ 0043e6b0 f   SakuraWnd.obj
 0001:0003d790       ?OnMenuDeveloper@CSakuraWnd@@IAEXXZ 0043e790 f   SakuraWnd.obj
 0001:0003d870       ?OnMenuAddressBar@CSakuraWnd@@IAEXXZ 0043e870 f   SakuraWnd.obj
 0001:0003d890       ?OnMenuDefinedSurfaceOnly@CSakuraWnd@@IAEXXZ 0043e890 f   SakuraWnd.obj
 0001:0003d8e0       ?OnMenuIgnoreMove@CSakuraWnd@@IAEXXZ 0043e8e0 f   SakuraWnd.obj
 0001:0003d930       ?OnMenuForceAlign@CSakuraWnd@@AAEXH@Z 0043e930 f   SakuraWnd.obj
 0001:0003d990       ?ModifyCheckMFA@CSakuraWnd@@AAEXXZ 0043e990 f   SakuraWnd.obj
 0001:0003d9c0       ?OnMenuForceAlignFree@CSakuraWnd@@IAEXXZ 0043e9c0 f   SakuraWnd.obj
 0001:0003d9e0       ?OnMenuForceAlignLimit@CSakuraWnd@@IAEXXZ 0043e9e0 f   SakuraWnd.obj
 0001:0003da00       ?OnMenuForceAlignOff@CSakuraWnd@@IAEXXZ 0043ea00 f   SakuraWnd.obj
 0001:0003da20       ?OnMenuUpdateFmo@CSakuraWnd@@IAEXXZ 0043ea20 f   SakuraWnd.obj
 0001:0003da40       ?OnMenuReloadInfo@CSakuraWnd@@IAEXXZ 0043ea40 f   SakuraWnd.obj
 0001:0003da60       ?OnMenuLangReset@CSakuraWnd@@IAEXXZ 0043ea60 f   SakuraWnd.obj
 0001:0003da90       ?OnMenuResetToDefault@CSakuraWnd@@IAEXXZ 0043ea90 f   SakuraWnd.obj
 0001:0003dba0       ?OnMenuActivate@CSakuraWnd@@AAEXH@Z 0043eba0 f   SakuraWnd.obj
 0001:0003dbf0       ?ModifyCheckMAT@CSakuraWnd@@AAEXXZ 0043ebf0 f   SakuraWnd.obj
 0001:0003dc50       ?OnMenuActivateOff@CSakuraWnd@@IAEXXZ 0043ec50 f   SakuraWnd.obj
 0001:0003dc70       ?OnMenuActivateExceptUpdate@CSakuraWnd@@IAEXXZ 0043ec70 f   SakuraWnd.obj
 0001:0003dc90       ?OnMenuActivateWhenTalk@CSakuraWnd@@IAEXXZ 0043ec90 f   SakuraWnd.obj
 0001:0003dcb0       ?OnMenuDeActivate@CSakuraWnd@@IAEXXZ 0043ecb0 f   SakuraWnd.obj
 0001:0003dd20       ?OnMenuCharset@CSakuraWnd@@IAEXXZ 0043ed20 f   SakuraWnd.obj
 0001:0003de00       ?OnMenuKeepTempGhost@CSakuraWnd@@IAEXXZ 0043ee00 f   SakuraWnd.obj
 0001:0003de60       ?OnMenuSystemInfo@CSakuraWnd@@IAEXXZ 0043ee60 f   SakuraWnd.obj
 0001:0003def0       ?HandleDrop@CSakuraWnd@@AAEHPAVSPMultiFile@@@Z 0043eef0 f   SakuraWnd.obj
 0001:0003e0c0       ?HandleDropFile@CSakuraWnd@@AAEHPAVSPMultiFile@@@Z 0043f0c0 f   SakuraWnd.obj
 0001:0003e420       ?HandleDropDirectory@CSakuraWnd@@AAEHPAVSPMultiFile@@@Z 0043f420 f   SakuraWnd.obj
 0001:0003e740       ??1SPPluginEvent@@UAE@XZ   0043f740 f i SakuraWnd.obj
 0001:0003e740       ??1SPShioriEvent@@UAE@XZ   0043f740 f i SakuraWnd.obj
 0001:0003e750       ??_ESPPluginEvent@@UAEPAXI@Z 0043f750 f i SakuraWnd.obj
 0001:0003e750       ??_GSPPluginEvent@@UAEPAXI@Z 0043f750 f i SakuraWnd.obj
 0001:0003e780       ?OnMenuScalingFree@CSakuraWnd@@IAEXXZ 0043f780 f   SakuraWnd.obj
 0001:0003e950       ??1CScalingDlg@@UAE@XZ     0043f950 f i SakuraWnd.obj
 0001:0003ea20       ?SetScaling@CSakuraWnd@@AAEXJJPAUHMENU__@@@Z 0043fa20 f   SakuraWnd.obj
 0001:0003eb70       ?OnMenuProxy@CSakuraWnd@@IAEXXZ 0043fb70 f   SakuraWnd.obj
 0001:0003ebe0       ?OnMenuCheckUpdate@CSakuraWnd@@IAEXXZ 0043fbe0 f   SakuraWnd.obj
 0001:0003ebf0       ?Add@?$JArray@PAX@@QAEKK@Z 0043fbf0 f i SakuraWnd.obj
 0001:0003ecd0       ??_ECSakuraWnd@@WDM@AEPAXI@Z 0043fcd0 f i SakuraWnd.obj
 0001:0003ece0       ??0CScalingDlg@@QAE@PAVCWnd@@@Z 0043fce0 f   ScalingDlg.obj
 0001:0003ee30       ??_GCScalingDlg@@UAEPAXI@Z 0043fe30 f i ScalingDlg.obj
 0001:0003ee30       ??_ECScalingDlg@@UAEPAXI@Z 0043fe30 f i ScalingDlg.obj
 0001:0003ee60       ?DoDataExchange@CScalingDlg@@MAEXPAVCDataExchange@@@Z 0043fe60 f   ScalingDlg.obj
 0001:0003ef00       ?GetMessageMap@CScalingDlg@@MBEPBUAFX_MSGMAP@@XZ 0043ff00 f   ScalingDlg.obj
 0001:0003ef10       ?Init@CScalingDlg@@QAEXJJPAD@Z 0043ff10 f   ScalingDlg.obj
 0001:0003ef90       ?OnInitDialog@CScalingDlg@@MAEHXZ 0043ff90 f   ScalingDlg.obj
 0001:0003f150       ?OnOK@CScalingDlg@@MAEXXZ  00440150 f   ScalingDlg.obj
 0001:0003f200       ?OnCancel@CScalingDlg@@MAEXXZ 00440200 f   ScalingDlg.obj
 0001:0003f210       ?OnXY@CScalingDlg@@IAEXXZ  00440210 f   ScalingDlg.obj
 0001:0003f240       ??0CScheduleDlg@@QAE@PAVCWnd@@@Z 00440240 f   ScheduleDlg.obj
 0001:0003f370       ??_ECListBox@@UAEPAXI@Z    00440370 f i ScheduleDlg.obj
 0001:0003f370       ??_GCListBox@@UAEPAXI@Z    00440370 f i ScheduleDlg.obj
 0001:0003f3a0       ??_GCScheduleDlg@@UAEPAXI@Z 004403a0 f i ScheduleDlg.obj
 0001:0003f3a0       ??_ECScheduleDlg@@UAEPAXI@Z 004403a0 f i ScheduleDlg.obj
 0001:0003f3d0       ??1CScheduleDlg@@UAE@XZ    004403d0 f i ScheduleDlg.obj
 0001:0003f4b0       ?DoDataExchange@CScheduleDlg@@MAEXPAVCDataExchange@@@Z 004404b0 f   ScheduleDlg.obj
 0001:0003f580       ?GetMessageMap@CScheduleDlg@@MBEPBUAFX_MSGMAP@@XZ 00440580 f   ScheduleDlg.obj
 0001:0003f590       ?UpdateButtonState@CScheduleDlg@@IAEXH@Z 00440590 f   ScheduleDlg.obj
 0001:0003f610       ?OnScheduleDelete@CScheduleDlg@@IAEXXZ 00440610 f   ScheduleDlg.obj
 0001:0003f6c0       ?OnDatetimechangeScheduleEndtime@CScheduleDlg@@IAEXPAUtagNMHDR@@PAJ@Z 004406c0 f   ScheduleDlg.obj
 0001:0003f770       ?OnScheduleNew@CScheduleDlg@@IAEXXZ 00440770 f   ScheduleDlg.obj
 0001:0003f7c0       ?OnScheduleNotime@CScheduleDlg@@IAEXXZ 004407c0 f   ScheduleDlg.obj
 0001:0003f800       ?OnDatetimechangeScheduleTime@CScheduleDlg@@IAEXPAUtagNMHDR@@PAJ@Z 00440800 f   ScheduleDlg.obj
 0001:0003f880       ?OnSelchangeScheduleType@CScheduleDlg@@IAEXXZ 00440880 f   ScheduleDlg.obj
 0001:0003f900       ?OnInitDialog@CScheduleDlg@@MAEHXZ 00440900 f   ScheduleDlg.obj
 0001:0003fb60       ?UpdateList@CScheduleDlg@@IAEXXZ 00440b60 f   ScheduleDlg.obj
 0001:0003fd20       ?InitControls@CScheduleDlg@@IAEXXZ 00440d20 f   ScheduleDlg.obj
 0001:00040020       ?ClearControls@CScheduleDlg@@IAEXXZ 00441020 f   ScheduleDlg.obj
 0001:000400a0       ?OnScheduleUpdate@CScheduleDlg@@IAEXXZ 004410a0 f   ScheduleDlg.obj
 0001:00040480       ?OnSelchangeScheduleList@CScheduleDlg@@IAEXXZ 00441480 f   ScheduleDlg.obj
 0001:000404f0       ?OnSoundBrowse@CScheduleDlg@@IAEXXZ 004414f0 f   ScheduleDlg.obj
 0001:00040640       ?OnSchedulepost@CScheduleDlg@@IAEXXZ 00441640 f   ScheduleDlg.obj
 0001:000406a0       ?OnDestroy@CScheduleDlg@@IAEXXZ 004416a0 f   ScheduleDlg.obj
 0001:000406c0       ?OnCommand@CScheduleDlg@@MAEHIJ@Z 004416c0 f   ScheduleDlg.obj
 0001:000406f0       ?CreateObject@CSetupDefDlg@@SGPAVCObject@@XZ 004416f0 f   SetupDefDlg.obj
 0001:00040750       ?GetRuntimeClass@CSetupDefDlg@@UBEPAUCRuntimeClass@@XZ 00441750 f   SetupDefDlg.obj
 0001:00040760       ??0CSetupDefDlg@@QAE@PAVCWnd@@@Z 00441760 f   SetupDefDlg.obj
 0001:00040800       ??_ECSetupDefDlg@@UAEPAXI@Z 00441800 f i SetupDefDlg.obj
 0001:00040800       ??_GCSetupDefDlg@@UAEPAXI@Z 00441800 f i SetupDefDlg.obj
 0001:00040830       ??1CSetupDefDlg@@UAE@XZ    00441830 f i SetupDefDlg.obj
 0001:000408a0       ?DoDataExchange@CSetupDefDlg@@MAEXPAVCDataExchange@@@Z 004418a0 f   SetupDefDlg.obj
 0001:000408f0       ?GetMessageMap@CSetupDefDlg@@MBEPBUAFX_MSGMAP@@XZ 004418f0 f   SetupDefDlg.obj
 0001:00040900       ?OnInitDialog@CSetupDefDlg@@MAEHXZ 00441900 f   SetupDefDlg.obj
 0001:00040b20       ?OnExhandler@CSetupDefDlg@@IAEXXZ 00441b20 f   SetupDefDlg.obj
 0001:00040b50       ?OnAssociatefile@CSetupDefDlg@@IAEXXZ 00441b50 f   SetupDefDlg.obj
 0001:00040bb0       ?OnIgnoreUninstallHide@CSetupDefDlg@@IAEXXZ 00441bb0 f   SetupDefDlg.obj
 0001:00040bf0       ?OnShowIconAlways@CSetupDefDlg@@IAEXXZ 00441bf0 f   SetupDefDlg.obj
 0001:00040c30       ?OnChangeFirstname@CSetupDefDlg@@IAEXXZ 00441c30 f   SetupDefDlg.obj
 0001:00040c90       ?OnChangeCallname@CSetupDefDlg@@IAEXXZ 00441c90 f   SetupDefDlg.obj
 0001:00040d70       ?OnChangeBirthday@CSetupDefDlg@@IAEXPAUtagNMHDR@@PAJ@Z 00441d70 f   SetupDefDlg.obj
 0001:00040e00       ?OnStrictWait@CSetupDefDlg@@IAEXXZ 00441e00 f   SetupDefDlg.obj
 0001:00040e30       ?OnDestroy@CSetupDefDlg@@IAEXXZ 00441e30 f   SetupDefDlg.obj
 0001:00040ec0       ?OnPriorityDown@CSetupDefDlg@@IAEXXZ 00441ec0 f   SetupDefDlg.obj
 0001:00040f70       ?OnInstallReadme@CSetupDefDlg@@IAEXXZ 00441f70 f   SetupDefDlg.obj
 0001:00040f90       ?OnSelfUpdateAuto@CSetupDefDlg@@IAEXXZ 00441f90 f   SetupDefDlg.obj
 0001:00040fd0       ?OnRegisterHotkey@CSetupDefDlg@@IAEXXZ 00441fd0 f   SetupDefDlg.obj
 0001:00041000       ?OnSexChoice@CSetupDefDlg@@IAEXXZ 00442000 f   SetupDefDlg.obj
 0001:00041040       ??0CSimpleMenu@@QAE@XZ     00442040 f   SimpleMenu.obj
 0001:00041050       ?Release@CSimpleMenu@@QAEXXZ 00442050 f   SimpleMenu.obj
 0001:00041070       ?LoadIndirect@CSimpleMenu@@QAEPAUHMENU__@@PBX@Z 00442070 f   SimpleMenu.obj
 0001:00041090       ?CreatePopup@CSimpleMenu@@QAEPAUHMENU__@@XZ 00442090 f   SimpleMenu.obj
 0001:000410b0       ?TrackPopup@CSimpleMenu@@QBEHIHHPAUHWND__@@@Z 004420b0 f   SimpleMenu.obj
 0001:000410e0       ?AttachSub@CSimpleMenu@@QAEPAUHMENU__@@H@Z 004420e0 f   SimpleMenu.obj
 0001:00041110       ?GetSub@CSimpleMenu@@QBEPAUHMENU__@@H@Z 00442110 f   SimpleMenu.obj
 0001:00041130       ?Attach@CSimpleMenu@@QAEXPAUHMENU__@@@Z 00442130 f   SimpleMenu.obj
 0001:00041150       ?Detach@CSimpleMenu@@QAEXXZ 00442150 f   SimpleMenu.obj
 0001:00041160       ?Create@CSSPPropertyData@@QAEHPAVCWnd@@@Z 00442160 f   SSPProperty.obj
 0001:000411e0       ?Destroy@CSSPPropertyData@@QAEXXZ 004421e0 f   SSPProperty.obj
 0001:00041200       ??0CSSPProperty@@QAE@PAVCWnd@@@Z 00442200 f   SSPProperty.obj
 0001:000412e0       ??_GCSSPProperty@@UAEPAXI@Z 004422e0 f i SSPProperty.obj
 0001:000412e0       ??_ECSSPProperty@@UAEPAXI@Z 004422e0 f i SSPProperty.obj
 0001:00041310       ??1CSSPProperty@@UAE@XZ    00442310 f i SSPProperty.obj
 0001:000413d0       ?DoDataExchange@CSSPProperty@@MAEXPAVCDataExchange@@@Z 004423d0 f   SSPProperty.obj
 0001:00041410       ?GetMessageMap@CSSPProperty@@MBEPBUAFX_MSGMAP@@XZ 00442410 f   SSPProperty.obj
 0001:00041420       ?OnInitDialog@CSSPProperty@@MAEHXZ 00442420 f   SSPProperty.obj
 0001:00041560       ?OnDestroy@CSSPProperty@@IAEXXZ 00442560 f   SSPProperty.obj
 0001:000415b0       ?OnHelp@CSSPProperty@@IAEXXZ 004425b0 f   SSPProperty.obj
 0001:000415d0       ?HelpFileExec@CSSPProperty@@QAEXXZ 004425d0 f   SSPProperty.obj
 0001:00041620       ?OnItemChangedSheets@CSSPProperty@@IAEXPAUtagNMHDR@@PAJ@Z 00442620 f   SSPProperty.obj
 0001:00041680       ?AddPageData@CSSPProperty@@IAEXPAVCDialog@@IPAG@Z 00442680 f   SSPProperty.obj
 0001:000418e0       ?InitPropertyPages@CSSPProperty@@IAEXXZ 004428e0 f   SSPProperty.obj
 0001:00041cb0       ?ReleasePropertyPages@CSSPProperty@@IAEXXZ 00442cb0 f   SSPProperty.obj
 0001:00041d60       ?SelectPageFromType@CSSPProperty@@QAEXPAG@Z 00442d60 f   SSPProperty.obj
 0001:00041dc0       ?SelectPage@CSSPProperty@@IAEXI@Z 00442dc0 f   SSPProperty.obj
 0001:00041eb0       ?OnSize@CSSPProperty@@IAEXIHH@Z 00442eb0 f   SSPProperty.obj
 0001:00041ed0       ?OnOkbutton@CScheduleDlg@@IAEXXZ 00442ed0 f   SSPProperty.obj
 0001:00041ed0       ?OnCancel@CScheduleDlg@@MAEXXZ 00442ed0 f   SSPProperty.obj
 0001:00041ed0       ?OnCancel@CLog@@MAEXXZ     00442ed0 f   SSPProperty.obj
 0001:00041ed0       ?OnClose@CScheduleDlg@@IAEXXZ 00442ed0 f   SSPProperty.obj
 0001:00041ed0       ?OnCancel@CSSPProperty@@MAEXXZ 00442ed0 f   SSPProperty.obj
 0001:00041ed0       ?OnCancel@CMessengerDlg@@MAEXXZ 00442ed0 f   SSPProperty.obj
 0001:00041ed0       ?OnClose@CListDialog@@IAEXXZ 00442ed0 f   SSPProperty.obj
 0001:00041ed0       ?OnCancel@CListDialog@@MAEXXZ 00442ed0 f   SSPProperty.obj
 0001:00041ed0       ?OnClose@CMessengerDlg@@IAEXXZ 00442ed0 f   SSPProperty.obj
 0001:00041ed0       ?OnClose@CSSPProperty@@IAEXXZ 00442ed0 f   SSPProperty.obj
 0001:00041ed0       ?OnClose@CLog@@IAEXXZ      00442ed0 f   SSPProperty.obj
 0001:00041ee0       ?OnCtlColor@CSSPProperty@@IAEPAUHBRUSH__@@PAVCDC@@PAVCWnd@@I@Z 00442ee0 f   SSPProperty.obj
 0001:00041f40       ?GetDlgCtrlText@CSSPProperty@@IAEPAGPBGH@Z 00442f40 f   SSPProperty.obj
 0001:00043260       ?OnHelpInfo@CSSPProperty@@IAEHPAUtagHELPINFO@@@Z 00444260 f   SSPProperty.obj
 0001:00043440       ??0CStdInput@@QAE@PAVCWnd@@@Z 00444440 f   StdInput.obj
 0001:000434c0       ??_ECStdInput@@UAEPAXI@Z   004444c0 f i StdInput.obj
 0001:000434c0       ??_GCStdInput@@UAEPAXI@Z   004444c0 f i StdInput.obj
 0001:000434f0       ?DoDataExchange@CStdInput@@MAEXPAVCDataExchange@@@Z 004444f0 f   StdInput.obj
 0001:00043510       ?GetMessageMap@CStdInput@@MBEPBUAFX_MSGMAP@@XZ 00444510 f   StdInput.obj
 0001:00043520       ?OnOK@CStdInput@@MAEXXZ    00444520 f   StdInput.obj
 0001:00043540       ?OnCancel@CStdInput@@MAEXXZ 00444540 f   StdInput.obj
 0001:00043560       ?OnInitDialog@CStdInput@@MAEHXZ 00444560 f   StdInput.obj
 0001:00043650       ?SetMessage@CStdInput@@QAEXPBDH0H@Z 00444650 f   StdInput.obj
 0001:00043690       ?SetMessage@CStdInput@@QAEXPBD00H@Z 00444690 f   StdInput.obj
 0001:000436f0       ?GetText@CStdInput@@QAEPBDXZ 004446f0 f   StdInput.obj
 0001:00043700       ?GetNum@CStdInput@@QAEHXZ  00444700 f   StdInput.obj
 0001:00043710       ??0CSurfaceTest@@QAE@PAVCWnd@@@Z 00444710 f   SurfaceTest.obj
 0001:00043810       ??_GCSurfaceTest@@UAEPAXI@Z 00444810 f i SurfaceTest.obj
 0001:00043810       ??_ECSurfaceTest@@UAEPAXI@Z 00444810 f i SurfaceTest.obj
 0001:00043840       ??1CSurfaceTest@@UAE@XZ    00444840 f i SurfaceTest.obj
 0001:00043960       ?DoDataExchange@CSurfaceTest@@MAEXPAVCDataExchange@@@Z 00444960 f   SurfaceTest.obj
 0001:000439b0       ?GetMessageMap@CSurfaceTest@@MBEPBUAFX_MSGMAP@@XZ 004449b0 f   SurfaceTest.obj
 0001:000439c0       ?OnSelchangeSurface@CSurfaceTest@@IAEXXZ 004449c0 f   SurfaceTest.obj
 0001:000439f0       ?OnInitDialog@CSurfaceTest@@MAEHXZ 004449f0 f   SurfaceTest.obj
 0001:00043c40       ?SetGhost@CSurfaceTest@@QAEXPAVSPGhost@@@Z 00444c40 f   SurfaceTest.obj
 0001:00043c50       ?OnDestroy@CSurfaceTest@@IAEXXZ 00444c50 f   SurfaceTest.obj
 0001:00043cf0       ??1SPSurfaceTestManager@@QAE@XZ 00444cf0 f i SurfaceTest.obj
 0001:00043d50       ?OnCancel@CSurfaceTest@@MAEXXZ 00444d50 f   SurfaceTest.obj
 0001:00043d50       ?OnClose@CSurfaceTest@@IAEXXZ 00444d50 f   SurfaceTest.obj
 0001:00043d80       ?OnSelchangeChar@CSurfaceTest@@IAEXXZ 00444d80 f   SurfaceTest.obj
 0001:00043d90       ?OnSelchangeAnimID@CSurfaceTest@@IAEXXZ 00444d90 f   SurfaceTest.obj
 0001:00043fd0       ?ListSerikoID@CSurfaceTest@@IAEXXZ 00444fd0 f   SurfaceTest.obj
 0001:000447f0       ?ListAnimID@CSurfaceTest@@IAEXXZ 004457f0 f   SurfaceTest.obj
 0001:00044c80       ?OnSize@CSurfaceTest@@IAEXIHH@Z 00445c80 f   SurfaceTest.obj
 0001:00044cc0       ?OnScript@CSurfaceTest@@IAEXXZ 00445cc0 f   SurfaceTest.obj
 0001:00044cf0       ?Get@?$SPSparsePtrArrayDef@PAVSPAnimeBase@@@@QAEPAVSPAnimeBase@@K@Z 00445cf0 f i SurfaceTest.obj
 0001:00044d30       ?_Sort_0@std@@YAXPAPAVSPAnimeBase@@0U?$PredConverter@PAVSPAnimeBase@@P6AHPAV1@0@Z@@0@Z 00445d30 f i SurfaceTest.obj
 0001:00045000       ?_Sort@std@@YAXPAPAVSPAnimeBase@@0U?$PredConverter@PAVSPAnimeBase@@P6AHPAV1@0@Z@@0@Z 00446000 f i SurfaceTest.obj
 0001:00045140       ?CreateObject@CTalkDlg@@SGPAVCObject@@XZ 00446140 f   TalkDlg.obj
 0001:000451a0       ?GetRuntimeClass@CTalkDlg@@UBEPAUCRuntimeClass@@XZ 004461a0 f   TalkDlg.obj
 0001:000451b0       ??0CTalkDlg@@QAE@PAVCWnd@@@Z 004461b0 f   TalkDlg.obj
 0001:000452c0       ??_ECTalkDlg@@UAEPAXI@Z    004462c0 f i TalkDlg.obj
 0001:000452c0       ??_GCTalkDlg@@UAEPAXI@Z    004462c0 f i TalkDlg.obj
 0001:000452f0       ??1CTalkDlg@@UAE@XZ        004462f0 f i TalkDlg.obj
 0001:000453d0       ?DoDataExchange@CTalkDlg@@MAEXPAVCDataExchange@@@Z 004463d0 f   TalkDlg.obj
 0001:00045470       ?GetMessageMap@CTalkDlg@@MBEPBUAFX_MSGMAP@@XZ 00446470 f   TalkDlg.obj
 0001:00045480       ?OnInitDialog@CTalkDlg@@MAEHXZ 00446480 f   TalkDlg.obj
 0001:000458b0       ?InitTimeoutSlider@CTalkDlg@@AAEXAAVCSliderCtrl@@H@Z 004468b0 f   TalkDlg.obj
 0001:00045910       ?ReinitSlider@CTalkDlg@@AAEXAAVCSliderCtrl@@@Z 00446910 f   TalkDlg.obj
 0001:000459a0       ?OnHScroll@CTalkDlg@@IAEXIIPAVCScrollBar@@@Z 004469a0 f   TalkDlg.obj
 0001:00045ac0       ?OnTalkNews@CTalkDlg@@IAEXXZ 00446ac0 f   TalkDlg.obj
 0001:00045b00       ?OnChangeLeftdcSetting@CTalkDlg@@IAEXXZ 00446b00 f   TalkDlg.obj
 0001:00045b30       ?OnChangeRightSetting@CTalkDlg@@IAEXXZ 00446b30 f   TalkDlg.obj
 0001:00045b60       ?OnNoWaitHeadline@CTalkDlg@@IAEXXZ 00446b60 f   TalkDlg.obj
 0001:00045ba0       ?OnShowBalloonOnline@CTalkDlg@@IAEXXZ 00446ba0 f   TalkDlg.obj
 0001:00045be0       ?OnSelchangeSpeedupKey@CTalkDlg@@IAEXXZ 00446be0 f   TalkDlg.obj
 0001:00045c20       ?OnSpeedup@CTalkDlg@@IAEXXZ 00446c20 f   TalkDlg.obj
 0001:00045c70       ?UpdateBuffer@JBufferedStream@@IAEXXZ 00446c70 f   j_bufstrm.obj
 0001:00045c90       ?FlushBuffer@JBufferedStream@@QAEXXZ 00446c90 f   j_bufstrm.obj
 0001:00045cc0       ?Read@JBufferedStream@@UAEEXZ 00446cc0 f   j_bufstrm.obj
 0001:00045d20       ?Read@JBufferedStream@@UAEKPAXK@Z 00446d20 f   j_bufstrm.obj
 0001:00045e00       ?Write@JBufferedStream@@UAEKE@Z 00446e00 f   j_bufstrm.obj
 0001:00045e60       ?Write@JBufferedStream@@UAEKPAXK@Z 00446e60 f   j_bufstrm.obj
 0001:00045f50       ?Seek@JBufferedStream@@UAEHJH@Z 00446f50 f   j_bufstrm.obj
 0001:00046030       ?Pos@JBufferedStream@@UAEKXZ 00447030 f   j_bufstrm.obj
 0001:00046040       ??0JDC@@QAE@XZ             00447040 f   j_dc.obj
 0001:00046060       ??_EJDC@@UAEPAXI@Z         00447060 f i j_dc.obj
 0001:00046060       ??_GJDC@@UAEPAXI@Z         00447060 f i j_dc.obj
 0001:00046090       ?Init@JDC@@AAEXXZ          00447090 f   j_dc.obj
 0001:000460a0       ??1JDC@@UAE@XZ             004470a0 f   j_dc.obj
 0001:000460c0       ?CreateMemoryDC@JDC@@QAEPAUHDC__@@XZ 004470c0 f   j_dc.obj
 0001:00046100       ?ReleaseDC@JDC@@QAEXXZ     00447100 f   j_dc.obj
 0001:00046180       ?SelectBitmap@JDC@@QAEPAUHBITMAP__@@PAU2@@Z 00447180 f   j_dc.obj
 0001:000461c0       ?Read@JBITMAPINFOHEADER@@QAEHAAVJStream@@@Z 004471c0 f   j_dib.obj
 0001:00046380       ??1JDib@@UAE@XZ            00447380 f   j_dib.obj
 0001:000463d0       ??_EJDib@@UAEPAXI@Z        004473d0 f i j_dib.obj
 0001:000463d0       ??_GJDib@@UAEPAXI@Z        004473d0 f i j_dib.obj
 0001:00046400       ?Create@JDib@@QAEHKK@Z     00447400 f   j_dib.obj
 0001:00046580       ?Release@JDib@@QAEXXZ      00447580 f   j_dib.obj
 0001:00046600       ?Open@JDib@@QAEHAAVJStream@@@Z 00447600 f   j_dib.obj
 0001:000469e0       ?Save@JDib@@QAEHAAVJStream@@@Z 004479e0 f   j_dib.obj
 0001:00046bc0       ?SetPalette@JDib@@QAEXAAVJPalette@@@Z 00447bc0 f   j_dib.obj
 0001:00046c10       ?GetPalette@JDib@@QAEXAAVJPalette@@@Z 00447c10 f   j_dib.obj
 0001:00046c30       ?To8bpp@JDib@@IAEHPAUtagBITMAPINFOHEADER@@PAUtagRGBQUAD@@PAX@Z 00447c30 f   j_dib.obj
 0001:00046e40       ?To32bpp@JDib@@IAEHPAUtagBITMAPINFOHEADER@@PAUtagRGBQUAD@@PAX@Z 00447e40 f   j_dib.obj
 0001:00047100       ?ComputeCenter@JDibVect@@QAEXXZ 00448100 f   j_dib.obj
 0001:000471c0       ?Quantize@JDibVect@@QAEHXZ 004481c0 f   j_dib.obj
 0001:00047520       ??0JDibDecPal@@QAE@XZ      00448520 f i j_dib.obj
 0001:00047540       ??_EJDibDecPal@@UAEPAXI@Z  00448540 f i j_dib.obj
 0001:00047540       ??_GJDibDecPal@@UAEPAXI@Z  00448540 f i j_dib.obj
 0001:00047570       ??1JDibDecPal@@UAE@XZ      00448570 f i j_dib.obj
 0001:00047580       ??_EJList@@UAEPAXI@Z       00448580 f i j_dib.obj
 0001:00047580       ??_GJList@@UAEPAXI@Z       00448580 f i j_dib.obj
 0001:000475b0       ?JDibCreateHistgram@@YAPAVJDibVect@@PAUtagBITMAPINFOHEADER@@PAE@Z 004485b0 f   j_dib.obj
 0001:00047760       ?JDibVectQuantize@@YAHPAVJDibVect@@J@Z 00448760 f   j_dib.obj
 0001:000477b0       ?JDibVectQGetDeepest@@YAHPAVJDibVect@@PAPAV1@PAJ@Z 004487b0 f   j_dib.obj
 0001:00047810       ?JDibVectQCreatePalette@@YAHPAVJDibVect@@PAUtagRGBQUAD@@PAE@Z 00448810 f   j_dib.obj
 0001:00047940       ?DecreaseTo8@JDib@@QAEHPAUtagBITMAPINFOHEADER@@PAEHH@Z 00448940 f   j_dib.obj
 0001:00048030       ??1JDibVect@@QAE@XZ        00449030 f i j_dib.obj
 0001:000480b0       ?Create@JDIBSurface@@UAEHJJJ@Z 004490b0 f   j_dibsurf.obj
 0001:000481d0       ?Update@JDIBSurface@@UAEXXZ 004491d0 f   j_dibsurf.obj
 0001:00048220       ?SetPixel@JDIBSurface@@UAEXJJEEE@Z 00449220 f   j_dibsurf.obj
 0001:00048260       ?GetPixel@JDIBSurface@@UAEXJJAAE00@Z 00449260 f   j_dibsurf.obj
 0001:000482a0       ?Create@JGIFImage@@QAEHJJ@Z 004492a0 f   j_gif.obj
 0001:000482e0       ?Release@JGIFImage@@QAEXXZ 004492e0 f   j_gif.obj
 0001:00048300       ?ReadPalette@JGIFImage@@IAEHAAVJStream@@H@Z 00449300 f   j_gif.obj
 0001:00048390       ?ReadData@JGIFImage@@QAEHAAVJStream@@@Z 00449390 f   j_gif.obj
 0001:000484c0       ?ReadPalette@JGIF@@IAEHAAVJStream@@H@Z 004494c0 f   j_gif.obj
 0001:00048550       ?Release@JGIF@@QAEHXZ      00449550 f   j_gif.obj
 0001:000485b0       ??1JGIFImage@@QAE@XZ       004495b0 f i j_gif.obj
 0001:000485c0       ?Read@JGIF@@QAEHAAVJStream@@@Z 004495c0 f   j_gif.obj
 0001:00048a00       ?GetImageAsJSurface@JGIF@@QAEPAVJSurface@@H@Z 00449a00 f   j_gif.obj
 0001:00048ab0       ??1JHashData@@QAE@XZ       00449ab0 f   j_hash.obj
 0001:00048af0       ?GetIndex@JHashData@@AAEHPBDH@Z 00449af0 f   j_hash.obj
 0001:00048b80       ?Get@JHashData@@QAEPAXPBDH@Z 00449b80 f   j_hash.obj
 0001:00048bc0       ?Delete@JHashData@@QAEXPBDH@Z 00449bc0 f   j_hash.obj
 0001:00048c20       ?IsEmpty@JHashData@@QAEHXZ 00449c20 f   j_hash.obj
 0001:00048c50       ?Set@JHashData@@QAEXPBDPAXH@Z 00449c50 f   j_hash.obj
 0001:00048db0       ?DoAll@JHashData@@QAEXP6AXPADPAX1@Z1@Z 00449db0 f   j_hash.obj
 0001:00048df0       ??0JHash@@QAE@XZ           00449df0 f   j_hash.obj
 0001:00048e10       ?CalcHash@JHash@@AAEKPBD@Z 00449e10 f   j_hash.obj
 0001:00048e90       ?Release@JHash@@QAEXXZ     00449e90 f   j_hash.obj
 0001:00048ee0       ?Get@JHash@@QAEPAXPBD@Z    00449ee0 f   j_hash.obj
 0001:00048f20       ?Delete@JHash@@QAEXPBD@Z   00449f20 f   j_hash.obj
 0001:00048f80       ?Set@JHash@@QAEXPBDPAX@Z   00449f80 f   j_hash.obj
 0001:00049010       ?DoAll@JHash@@QAEXP6AXPADPAX1@Z1@Z 0044a010 f   j_hash.obj
 0001:00049050       ?GetVer@JLibJPEG@@SAPBDXZ  0044a050 f   j_libjpeg.obj
 0001:00049090       ?Read@JLibJPEG@@QAEPAVJSurface@@PAD@Z 0044a090 f   j_libjpeg.obj
 0001:000490b0       ?ReadFromBuffer@JLibJPEG@@QAEPAVJSurface@@PADK@Z 0044a0b0 f   j_libjpeg.obj
 0001:00049500       ?JLibMAG_Read@@YAPAVJSurface@@PAD@Z 0044a500 f   j_libmag.obj
 0001:00049720       ?JLibPI_Read@@YAPAVJSurface@@PAD@Z 0044a720 f   j_libpi.obj
 0001:00049960       ??0JLibPNG@@QAE@XZ         0044a960 f   j_libpng.obj
 0001:00049970       ?Release@JLibPNG@@QAEXXZ   0044a970 f   j_libpng.obj
 0001:00049990       ?GetVer@JLibPNG@@SAPBDXZ   0044a990 f   j_libpng.obj
 0001:000499c0       ?Read@JLibPNG@@QAEPAVJSurface@@PADH@Z 0044a9c0 f   j_libpng.obj
 0001:00049a80       ?ReadFromBuffer@JLibPNG@@QAEPAVJSurface@@PADKH@Z 0044aa80 f   j_libpng.obj
 0001:00049b90       ?RealRead@JLibPNG@@AAEPAVJSurface@@HPAUpng_struct_def@@PAUpng_info_struct@@@Z 0044ab90 f   j_libpng.obj
 0001:0004a1c0       ?Save@JLibPNG@@QAEHPADPAVJSurface@@H@Z 0044b1c0 f   j_libpng.obj
 0001:0004a250       ?RealSave@JLibPNG@@AAEHPAVJSurface@@HPAUpng_struct_def@@PAUpng_info_struct@@@Z 0044b250 f   j_libpng.obj
 0001:0004a2f0       ?AddNode@JList@@QAEXPAV1@@Z 0044b2f0 f   j_list.obj
 0001:0004a310       ?DeleteNode@JList@@QAEXXZ  0044b310 f   j_list.obj
 0001:0004a330       ?DeleteAllNode@JList@@QAEXXZ 0044b330 f   j_list.obj
 0001:0004a360       ?Read@JLZWDecoder@@QAEKAAVJStream@@PAEH@Z 0044b360 f   j_lzw.obj
 0001:0004a560       ?Seek@JMappedStream@@UAEHJH@Z 0044b560 f   j_mapstream.obj
 0001:0004a5b0       ?Read@JMappedStream@@UAEKPAXK@Z 0044b5b0 f   j_mapstream.obj
 0001:0004a600       ?Open@JMappedStream@@QAEHKPAD@Z 0044b600 f   j_mapstream.obj
 0001:0004a680       ?Open@JMappedStream@@UAEHPBDH@Z 0044b680 f   j_mapstream.obj
 0001:0004a7a0       ?OpenW@JMappedStream@@UAEHPBGH@Z 0044b7a0 f   j_mapstream.obj
 0001:0004a880       ?Close@JMappedStream@@UAEXXZ 0044b880 f   j_mapstream.obj
 0001:0004a8e0       ?Detach@JMappedStream@@QAEPAEAAK@Z 0044b8e0 f   j_mapstream.obj
 0001:0004a960       ?InitData@JMappedStream@@AAEXXZ 0044b960 f   j_mapstream.obj
 0001:0004a980       ?Read@JMemStream@@UAEKPAXK@Z 0044b980 f   j_memstrm.obj
 0001:0004a9c0       ?Write@JMemStream@@UAEKPAXK@Z 0044b9c0 f   j_memstrm.obj
 0001:0004aa00       ?Seek@JMemStream@@UAEHJH@Z 0044ba00 f   j_memstrm.obj
 0001:0004aa60       ?Create@JMutex@@QAEHPBDH@Z 0044ba60 f   j_mutex.obj
 0001:0004aa90       ?Release@JMutex@@QAEXXZ    0044ba90 f   j_mutex.obj
 0001:0004aab0       ?Lock@JMutex@@QAE_NJ@Z     0044bab0 f   j_mutex.obj
 0001:0004aaf0       ?Unlock@JMutex@@UAEXXZ     0044baf0 f   j_mutex.obj
 0001:0004ab00       ?JGXCreateSurfaceObject@@YAPAVJSurfaceObject@@XZ 0044bb00 f   j_objman.obj
 0001:0004ab40       ?Clear@JSurfaceObject@@UAEHJJJJ@Z 0044bb40 f i j_objman.obj
 0001:0004ab50       ?Load@JDIBSurface@@UAEHAAVJStream@@@Z 0044bb50 f i j_objman.obj
 0001:0004ab70       ?Save@JDIBSurface@@UAEHAAVJStream@@@Z 0044bb70 f i j_objman.obj
 0001:0004ab90       ?Pitch@JDIBSurface@@UAEJXZ 0044bb90 f i j_objman.obj
 0001:0004abc0       ?Pixel@JDIBSurface@@UAEJXZ 0044bbc0 f i j_objman.obj
 0001:0004abe0       ?Width@JDIBSurface@@UAEJXZ 0044bbe0 f i j_objman.obj
 0001:0004ac00       ?Height@JDIBSurface@@UAEJXZ 0044bc00 f i j_objman.obj
 0001:0004ac20       ?SetPalette@JDIBSurface@@UAEHAAVJPalette@@@Z 0044bc20 f i j_objman.obj
 0001:0004ac50       ?GetPalette@JDIBSurface@@UAEHAAVJPalette@@@Z 0044bc50 f i j_objman.obj
 0001:0004ac70       ?GetPalette@JDIBSurface@@UAEPAUtagRGBQUAD@@XZ 0044bc70 f i j_objman.obj
 0001:0004ac80       ?Handle@JDIBSurface@@UAEPAXXZ 0044bc80 f i j_objman.obj
 0001:0004ac90       ?Bitmap@JDIBSurface@@UAEPAXXZ 0044bc90 f i j_objman.obj
 0001:0004aca0       ?BitmapBits@JDIBSurface@@UAEPAEXZ 0044bca0 f i j_objman.obj
 0001:0004acb0       ??_EJDIBSurface@@UAEPAXI@Z 0044bcb0 f i j_objman.obj
 0001:0004acb0       ??_GJDIBSurface@@UAEPAXI@Z 0044bcb0 f i j_objman.obj
 0001:0004ace0       ??1JDIBSurface@@UAE@XZ     0044bce0 f i j_objman.obj
 0001:0004ad30       ??1JSurfaceObject@@UAE@XZ  0044bd30 f i j_objman.obj
 0001:0004ad40       ??_GJSurfaceObject@@UAEPAXI@Z 0044bd40 f i j_objman.obj
 0001:0004ad40       ??_EJSurfaceObject@@UAEPAXI@Z 0044bd40 f i j_objman.obj
 0001:0004ad70       ?JGXCreateSurface@@YAPAVJSurface@@HH@Z 0044bd70 f   j_objman.obj
 0001:0004aea0       ?Load@JSurface@@UAEHAAVJStream@@@Z 0044bea0 f i j_objman.obj
 0001:0004aee0       ?Save@JSurface@@UAEHAAVJStream@@@Z 0044bee0 f i j_objman.obj
 0001:0004af00       ?GetRowTable@JSurface@@UAEPAPAEXZ 0044bf00 f i j_objman.obj
 0001:0004af10       ?SetPixel@JSurface@@UAEXJJEEE@Z 0044bf10 f i j_objman.obj
 0001:0004af40       ?GetPixel@JSurface@@UAEXJJAAE00@Z 0044bf40 f i j_objman.obj
 0001:0004af70       ?GetPixelAlpha@JSurface@@UAEEJJ@Z 0044bf70 f i j_objman.obj
 0001:0004af80       ?SetPixelIndex@JSurface@@UAEXJJK@Z 0044bf80 f i j_objman.obj
 0001:0004af80       ?SetPixelAlpha@JSurface@@UAEXJJE@Z 0044bf80 f i j_objman.obj
 0001:0004af90       ?SetPalette@JSurface@@UAEHAAVJPalette@@@Z 0044bf90 f i j_objman.obj
 0001:0004afb0       ?GetPalette@JSurface@@UAEHAAVJPalette@@@Z 0044bfb0 f i j_objman.obj
 0001:0004afd0       ?Lock@JSurface@@UAEPAEJJ@Z 0044bfd0 f i j_objman.obj
 0001:0004afd0       ?GetAddress@JSurface@@UAEPAEJJ@Z 0044bfd0 f i j_objman.obj
 0001:0004aff0       ?Unlock@JSurface@@UAEXXZ   0044bff0 f i j_objman.obj
 0001:0004b000       ?ColorFill@JSurfaceObject@@UAEHJJJJK@Z 0044c000 f i j_objman.obj
 0001:0004b000       ?ColorFill@JSurface@@UAEHJJJJK@Z 0044c000 f i j_objman.obj
 0001:0004b000       ?AlphaFill@JSurface@@UAEHJJJJE@Z 0044c000 f i j_objman.obj
 0001:0004b010       ?ColorFillAlpha@JSurfaceObject@@UAEHJJJJKE@Z 0044c010 f i j_objman.obj
 0001:0004b010       ?ColorFillAlpha@JSurface@@UAEHJJJJKE@Z 0044c010 f i j_objman.obj
 0001:0004b020       ?StretchCopy@JSurface@@UAEHJJJJPAV1@JJJJ@Z 0044c020 f i j_objman.obj
 0001:0004b030       ?ZoomCopy@JSurface@@UAEHJJJJPAV1@JJJJJJ@Z 0044c030 f i j_objman.obj
 0001:0004b030       ?StretchCopyEx@JSurface@@UAEHJJJJPAV1@JJJJPAJ1@Z 0044c030 f i j_objman.obj
 0001:0004b040       ?BlendColor@JSurface@@UAEHJJJJPAV1@JJ0@Z 0044c040 f i j_objman.obj
 0001:0004b040       ?BlendHue@JSurface@@UAEHJJJJPAV1@JJ0@Z 0044c040 f i j_objman.obj
 0001:0004b040       ?BlendHardLight@JSurface@@UAEHJJJJPAV1@JJ0@Z 0044c040 f i j_objman.obj
 0001:0004b040       ?BlendSaturation@JSurface@@UAEHJJJJPAV1@JJ0@Z 0044c040 f i j_objman.obj
 0001:0004b040       ?BlendMultiply@JSurface@@UAEHJJJJPAV1@JJ0@Z 0044c040 f i j_objman.obj
 0001:0004b040       ?BlendNormal@JSurface@@UAEHJJJJPAV1@JJ0@Z 0044c040 f i j_objman.obj
 0001:0004b040       ?BlendSoftLight@JSurface@@UAEHJJJJPAV1@JJ0@Z 0044c040 f i j_objman.obj
 0001:0004b040       ?BlendScreen@JSurface@@UAEHJJJJPAV1@JJ0@Z 0044c040 f i j_objman.obj
 0001:0004b040       ?BlendLuminosity@JSurface@@UAEHJJJJPAV1@JJ0@Z 0044c040 f i j_objman.obj
 0001:0004b040       ?BlendDissolve@JSurface@@UAEHJJJJPAV1@JJ0@Z 0044c040 f i j_objman.obj
 0001:0004b040       ?BlendOverlay@JSurface@@UAEHJJJJPAV1@JJ0@Z 0044c040 f i j_objman.obj
 0001:0004b040       ?BlendDifference@JSurface@@UAEHJJJJPAV1@JJ0@Z 0044c040 f i j_objman.obj
 0001:0004b040       ?BlendSubtract@JSurface@@UAEHJJJJPAV1@JJ0@Z 0044c040 f i j_objman.obj
 0001:0004b040       ?BlendLighten@JSurface@@UAEHJJJJPAV1@JJ0@Z 0044c040 f i j_objman.obj
 0001:0004b040       ?BlendDarken@JSurface@@UAEHJJJJPAV1@JJ0@Z 0044c040 f i j_objman.obj
 0001:0004b050       ?CopyAlpha@JSurfaceObject@@UAEHJJJJPAV1@JJ@Z 0044c050 f i j_objman.obj
 0001:0004b050       ?CopyOR@JSurface@@UAEHJJJJPAV1@JJ@Z 0044c050 f i j_objman.obj
 0001:0004b050       ?CopyAND@JSurface@@UAEHJJJJPAV1@JJ@Z 0044c050 f i j_objman.obj
 0001:0004b050       ?CopyNOT@JSurface@@UAEHJJJJPAV1@JJ@Z 0044c050 f i j_objman.obj
 0001:0004b050       ?CopyNOR@JSurface@@UAEHJJJJPAV1@JJ@Z 0044c050 f i j_objman.obj
 0001:0004b050       ?Copy@JSurfaceObject@@UAEHJJJJPAV1@JJ@Z 0044c050 f i j_objman.obj
 0001:0004b050       ?BlendFill@JSurface@@UAEHJJJJKPAV1@E@Z 0044c050 f i j_objman.obj
 0001:0004b050       ?CopyXOR@JSurface@@UAEHJJJJPAV1@JJ@Z 0044c050 f i j_objman.obj
 0001:0004b050       ?CopyNAND@JSurface@@UAEHJJJJPAV1@JJ@Z 0044c050 f i j_objman.obj
 0001:0004b050       ?CopyAlpha@JSurface@@UAEHJJJJPAV1@JJ@Z 0044c050 f i j_objman.obj
 0001:0004b050       ?Copy@JSurface@@UAEHJJJJPAV1@JJ@Z 0044c050 f i j_objman.obj
 0001:0004b050       ?CopyKey@JSurface@@UAEHJJJJPAV1@JJ@Z 0044c050 f i j_objman.obj
 0001:0004b060       ??_GJSurface@@UAEPAXI@Z    0044c060 f i j_objman.obj
 0001:0004b060       ??_EJSurface@@UAEPAXI@Z    0044c060 f i j_objman.obj
 0001:0004b090       ??1JSurface@@UAE@XZ        0044c090 f i j_objman.obj
 0001:0004b0e0       ?SetPixelIndex@JSurface8@@UAEXJJK@Z 0044c0e0 f i j_objman.obj
 0001:0004b100       ?GetPixelIndex@JSurface8@@UAEKJJ@Z 0044c100 f i j_objman.obj
 0001:0004b120       ??_EJSurface8@@UAEPAXI@Z   0044c120 f i j_objman.obj
 0001:0004b120       ??_GJSurface8@@UAEPAXI@Z   0044c120 f i j_objman.obj
 0001:0004b150       ??1JSurface8@@UAE@XZ       0044c150 f i j_objman.obj
 0001:0004b1a0       ?Release@JSurface32@@UAEXXZ 0044c1a0 f i j_objman.obj
 0001:0004b1d0       ?GetIntensity@JSurface32@@UAEJJJ@Z 0044c1d0 f i j_objman.obj
 0001:0004b210       ?SetPixelAlpha@JSurface32@@UAEXJJE@Z 0044c210 f i j_objman.obj
 0001:0004b230       ?GetPixelAlpha@JSurface32@@UAEEJJ@Z 0044c230 f i j_objman.obj
 0001:0004b250       ?SetPixelIndex@JSurface32@@UAEXJJK@Z 0044c250 f i j_objman.obj
 0001:0004b2d0       ??_GJSurface32@@UAEPAXI@Z  0044c2d0 f i j_objman.obj
 0001:0004b2d0       ??_EJSurface32@@UAEPAXI@Z  0044c2d0 f i j_objman.obj
 0001:0004b300       ??1JSurface32@@UAE@XZ      0044c300 f i j_objman.obj
 0001:0004b380       ?JGXCreateThread@@YAPAVJThread@@XZ 0044c380 f   j_objman.obj
 0001:0004b3e0       ?SetGrayscalePalette@JPalette@@QAEXXZ 0044c3e0 f   j_pal.obj
 0001:0004b400       ?SetDefaultPalette@JPalette@@QAEXXZ 0044c400 f   j_pal.obj
 0001:0004b4a0       ?Copy@JPalette@@QAEXPAUtagRGBQUAD@@HHH@Z 0044c4a0 f   j_pal.obj
 0001:0004b500       ?Clear@JPalette@@QAEXK@Z   0044c500 f   j_pal.obj
 0001:0004b540       ?Set@JPackedPalette@@QAEXAAVJPalette@@@Z 0044c540 f   j_pal.obj
 0001:0004b580       ?Distance@JPoint@@QAENABUtagPOINT@@@Z 0044c580 f   j_point.obj
 0001:0004b5c0       ?Degree@JPoint@@QAENABUtagPOINT@@@Z 0044c5c0 f   j_point.obj
 0001:0004b640       ?init_genrand@MT@@YAXK@Z   0044c640 f   j_prng.obj
 0001:0004b690       ?genrand_int32@MT@@YAKXZ   0044c690 f   j_prng.obj
 0001:0004b7d0       ??0JCriticalSection@@QAE@XZ 0044c7d0 f i j_prng.obj
 0001:0004b7f0       ?Lock@JCriticalSection@@UAEXXZ 0044c7f0 f i j_prng.obj
 0001:0004b800       ?Unlock@JCriticalSection@@UAEXXZ 0044c800 f i j_prng.obj
 0001:0004b810       ??_GJCriticalSection@@UAEPAXI@Z 0044c810 f i j_prng.obj
 0001:0004b810       ??_EJCriticalSection@@UAEPAXI@Z 0044c810 f i j_prng.obj
 0001:0004b840       ??1JCriticalSection@@UAE@XZ 0044c840 f i j_prng.obj
 0001:0004b880       @genrand_nativeint@0       0044c880 f   j_prng.obj
 0001:0004b8d0       @genrand@4                 0044c8d0 f   j_prng.obj
 0001:0004b940       ??4JExtent@@QAEAAV0@ABVJRect@@@Z 0044c940 f   j_rect.obj
 0001:0004b970       ?MultiplyRectH@JRect@@QAEXN@Z 0044c970 f   j_rect.obj
 0001:0004b9c0       ?Center@JRect@@QBE?AVJPoint@@XZ 0044c9c0 f   j_rect.obj
 0001:0004b9f0       ?IsEmpty@JRect@@QBE_NXZ    0044c9f0 f   j_rect.obj
 0001:0004ba10       ??4JRect@@QAEAAV0@ABVJExtent@@@Z 0044ca10 f   j_rect.obj
 0001:0004ba10       ??0JRect@@QAE@ABVJExtent@@@Z 0044ca10 f   j_rect.obj
 0001:0004bb40       ?Startup@JSocket@@SAHXZ    0044cb40 f   j_sock.obj
 0001:0004bb70       ?Cleanup@JSocket@@SAXXZ    0044cb70 f   j_sock.obj
 0001:0004bbd0       ?SetCAPath@JSocket@@SAXABVJString@@@Z 0044cbd0 f   j_sock.obj
 0001:0004bbf0       ?SetProxyMode@JSocket@@SAXW4JSocketProxyOption@@PBDH11@Z 0044cbf0 f   j_sock.obj
 0001:0004bdd0       ??0JSocket@@QAE@XZ         0044cdd0 f   j_sock.obj
 0001:0004bed0       ?Release@JSocket@@QAEXXZ   0044ced0 f   j_sock.obj
 0001:0004bf00       ?Connect@JSocket@@QAEHPBDH@Z 0044cf00 f   j_sock.obj
 0001:0004bf50       ?Connect@JSocket@@QAEHABVJSockAddr@@H@Z 0044cf50 f   j_sock.obj
 0001:0004c030       ?ConnectReal@JSocket@@AAEHABVJSockAddr@@H@Z 0044d030 f   j_sock.obj
 0001:0004c670       ?ConnectUDP@JSocket@@QAEHABVJSockAddr@@H@Z 0044d670 f   j_sock.obj
 0001:0004c720       ?SetSSLMode@JSocket@@QAE_NH_N@Z 0044d720 f   j_sock.obj
 0001:0004c780       ?Status@JSocket@@QAEHXZ    0044d780 f   j_sock.obj
 0001:0004c7a0       ?ListenUDP@JSocket@@QAEHHHABVJSockAddr@@@Z 0044d7a0 f   j_sock.obj
 0001:0004c860       ?AllowBroadcast@JSocket@@QAEXXZ 0044d860 f   j_sock.obj
 0001:0004c890       ?Listen@JSocket@@QAEHHHABVJSockAddr@@@Z 0044d890 f   j_sock.obj
 0001:0004c980       ?Accept@JSocket@@QAEPAV1@XZ 0044d980 f   j_sock.obj
 0001:0004c990       ?AcceptFromSocket@JSocket@@SAPAV1@I@Z 0044d990 f   j_sock.obj
 0001:0004ca80       ?Close@JSocket@@QAEXW4JSocketCloseOption@@@Z 0044da80 f   j_sock.obj
 0001:0004cb80       ?SendString@JSocket@@QAEHPBD@Z 0044db80 f   j_sock.obj
 0001:0004cbb0       ?Send@JSocket@@QAEHPBDJ@Z  0044dbb0 f   j_sock.obj
 0001:0004cc40       ?SendTo@JSocket@@QAEHVJSockAddr@@HPBDJ@Z 0044dc40 f   j_sock.obj
 0001:0004cd60       ?RecvFrom@JSocket@@QAEHPADJAAVJSockAddr@@AAH@Z 0044dd60 f   j_sock.obj
 0001:0004cdc0       ?JunkRecvData@JSocket@@AAEXXZ 0044ddc0 f   j_sock.obj
 0001:0004ce50       ?Recv@JSocket@@QAEHPADJ@Z  0044de50 f   j_sock.obj
 0001:0004cf50       ?RecvLineSub@JSocket@@AAEHAAD@Z 0044df50 f   j_sock.obj
 0001:0004d040       ?RecvLine@JSocket@@QAEPADAAJ@Z 0044e040 f   j_sock.obj
 0001:0004d2c0       ?AddLog@JSocket@@QAEXPBDH@Z 0044e2c0 f   j_sock.obj
 0001:0004d310       ?WaitForDataIO@JSocket@@AAEHH@Z 0044e310 f   j_sock.obj
 0001:0004d3d0       ?AsyncSelect@JSocket@@QAEHPAXIJ@Z 0044e3d0 f   j_sock.obj
 0001:0004d410       ?SSLRelease@JSocket@@AAEXXZ 0044e410 f   j_sock.obj
 0001:0004d450       ?SSLInit@JSocket@@AAE_NXZ  0044e450 f   j_sock.obj
 0001:0004d850       ?GetTypeName@JSockAddr@@SIPBDW4JSockAddrProtocolType@@@Z 0044e850 f   j_sockaddr.obj
 0001:0004d870       ?GetConfigDispName@JSockAddr@@SIPAPBDAAK@Z 0044e870 f   j_sockaddr.obj
 0001:0004d880       ?GetConfig@JSockAddr@@SIKXZ 0044e880 f   j_sockaddr.obj
 0001:0004d890       ?GetConfigName@JSockAddr@@SIPBDK@Z 0044e890 f   j_sockaddr.obj
 0001:0004d8b0       ?SetConfig@JSockAddr@@SIKPBD@Z 0044e8b0 f   j_sockaddr.obj
 0001:0004d900       ?IsEnable@JSockAddr@@SI_NW4JSockAddrProtocolType@@@Z 0044e900 f   j_sockaddr.obj
 0001:0004d970       ?SetAddr@JSockAddr@@QAEXW4JSockAddrPredefinedIP@@W4JSockAddrProtocolType@@@Z 0044e970 f   j_sockaddr.obj
 0001:0004da70       ?IsLoopbackOrIgnoreAddr@JSockAddr@@QBE_NXZ 0044ea70 f   j_sockaddr.obj
 0001:0004dab0       ?GetAddressFamily@JSockAddr@@QBEHXZ 0044eab0 f   j_sockaddr.obj
 0001:0004dac0       ?ToIPv4@JSockAddr@@QBEXAAK@Z 0044eac0 f   j_sockaddr.obj
 0001:0004daf0       ?FromIPv4@JSockAddr@@QAEXK@Z 0044eaf0 f   j_sockaddr.obj
 0001:0004db20       ?FromIPv4Raw@JSockAddr@@QAEXK@Z 0044eb20 f   j_sockaddr.obj
 0001:0004db40       ?ToIPv6@JSockAddr@@QBEXPAE@Z 0044eb40 f   j_sockaddr.obj
 0001:0004dba0       ?FromIPv6@JSockAddr@@QAEXPBE@Z 0044eba0 f   j_sockaddr.obj
 0001:0004dbd0       ?ConvToIPv4@JSockAddr@@QAE_NXZ 0044ebd0 f   j_sockaddr.obj
 0001:0004dc10       ?ConvToIPv6@JSockAddr@@QAE_NXZ 0044ec10 f   j_sockaddr.obj
 0001:0004dc40       ?FromStorage@JSockAddr@@QAE_NPAUsockaddr@@AAH@Z 0044ec40 f   j_sockaddr.obj
 0001:0004dce0       ?ToStorage@JSockAddr@@QBE_NAAUsockaddr_storage@@HAAK@Z 0044ece0 f   j_sockaddr.obj
 0001:0004dd90       ??8JSockAddr@@QBE_NABV0@@Z 0044ed90 f   j_sockaddr.obj
 0001:0004de00       ?IPAddrToStrA@JSockAddr@@QBEPADXZ 0044ee00 f   j_sockaddr.obj
 0001:0004e010       ?IPAddrToStrW@JSockAddr@@QBEPAGXZ 0044f010 f   j_sockaddr.obj
 0001:0004e050       ?TranslateNumName@JSockAddr@@QAE_NPBD@Z 0044f050 f   j_sockaddr.obj
 0001:0004e1d0       ?ResolveName@JSockAddr@@QAE_NPBD@Z 0044f1d0 f   j_sockaddr.obj
 0001:0004e320       ?IsLocalAddr@JSockAddr@@QBE_NXZ 0044f320 f   j_sockaddr.obj
 0001:0004e5f0       ?GetLocalAddr@JSockAddr@@SIABV1@XZ 0044f5f0 f   j_sockaddr.obj
 0001:0004e660       ?GetLocalAddrList@JSockAddr@@SIPBV1@AAK@Z 0044f660 f   j_sockaddr.obj
 0001:0004e680       ?IsOnline@JSockAddr@@SI_NXZ 0044f680 f   j_sockaddr.obj
 0001:0004e6a0       ??0JTokenStream@@QAE@XZ    0044f6a0 f   j_stoken.obj
 0001:0004e6d0       ??1JTokenStream@@QAE@XZ    0044f6d0 f   j_stoken.obj
 0001:0004e6e0       ?ReadEOL@JTokenStream@@IAEIAAPAD@Z 0044f6e0 f   j_stoken.obj
 0001:0004e790       ?SetSeparator@JTokenStream@@QAEXD@Z 0044f790 f   j_stoken.obj
 0001:0004e7b0       ?Open@JTokenStream@@QAEHPAD@Z 0044f7b0 f   j_stoken.obj
 0001:0004e8c0       ?Open@JTokenStream@@QAEHKPAD@Z 0044f8c0 f   j_stoken.obj
 0001:0004e9d0       ?Init@JTokenStream@@IAEXAAVJMappedStream@@@Z 0044f9d0 f   j_stoken.obj
 0001:0004ea80       ?Close@JTokenStream@@QAEXXZ 0044fa80 f   j_stoken.obj
 0001:0004eab0       ?ReadToFileEnd@JTokenStream@@QAEPADXZ 0044fab0 f   j_stoken.obj
 0001:0004eac0       ?ReadToken@JTokenStream@@IAEPADH@Z 0044fac0 f   j_stoken.obj
 0001:0004eb00       ?NextToken@JTokenStream@@IAEHH@Z 0044fb00 f   j_stoken.obj
 0001:0004ebf0       ?NextLineIfNotLineEnd@JTokenStream@@QAEHXZ 0044fbf0 f   j_stoken.obj
 0001:0004ec10       ?ProcessReturnPointer@JTokenStream@@IAEPADPAD@Z 0044fc10 f   j_stoken.obj
 0001:0004ec80       ??1JString@@QAE@XZ         0044fc80 f   j_str.obj
 0001:0004ec80       ??1JWString@@QAE@XZ        0044fc80 f   j_str.obj
 0001:0004ecb0       ??4JString@@QAEAAV0@PBD@Z  0044fcb0 f   j_str.obj
 0001:0004edb0       ??4JString@@QAEAAV0@ABV0@@Z 0044fdb0 f   j_str.obj
 0001:0004eea0       ?Cat@JString@@QAEXPBDK@Z   0044fea0 f   j_str.obj
 0001:0004ef10       ??9JString@@QBE_NPBD@Z     0044ff10 f   j_str.obj
 0001:0004ef30       ?Remove@JString@@QAE_NPBD@Z 0044ff30 f   j_str.obj
 0001:0004eff0       ?Remove@JString@@QAE_NJJ@Z 0044fff0 f   j_str.obj
 0001:0004f060       ?RemoveLast@JString@@QAEXJ@Z 00450060 f   j_str.obj
 0001:0004f0e0       ?Replace@JString@@QAEHPBD0@Z 004500e0 f   j_str.obj
 0001:0004f260       ?Replace@JString@@QAEHDD@Z 00450260 f   j_str.obj
 0001:0004f2a0       ?ReplaceCharList@JString@@QAEHPBDD@Z 004502a0 f   j_str.obj
 0001:0004f2f0       ?Find@JString@@QBEJPBDJ@Z  004502f0 f   j_str.obj
 0001:0004f320       ?FindList@JString@@QBEJPBDJK@Z 00450320 f   j_str.obj
 0001:0004f380       ?ReverseFindList@JString@@QBEJPBDJK@Z 00450380 f   j_str.obj
 0001:0004f3e0       ?Replace@JString@@QAEHKKPBD@Z 004503e0 f   j_str.obj
 0001:0004f560       ?Extract@JString@@QBE?AV1@KK@Z 00450560 f   j_str.obj
 0001:0004f6b0       ?ExtractRight@JString@@QBE?AV1@K@Z 004506b0 f   j_str.obj
 0001:0004f700       ?ExtractLeft@JString@@QBE?AV1@K@Z 00450700 f   j_str.obj
 0001:0004f7f0       ?Insert@JString@@QAEHKPBD@Z 004507f0 f   j_str.obj
 0001:0004f940       ?ConvEUCKRtoISOKR@JString@@QAEHXZ 00450940 f   j_str.obj
 0001:0004fc30       ?ConvHZtoGB2312@JString@@QAEHXZ 00450c30 f   j_str.obj
 0001:0004fcb0       ?ConvGB2312toHZ@JString@@QAEHXZ 00450cb0 f   j_str.obj
 0001:0004ff20       ?ConvEUCtoSJIS@JString@@QAEHXZ 00450f20 f   j_str.obj
 0001:00050020       ?ConvSJIStoEUC@JString@@QAEHXZ 00451020 f   j_str.obj
 0001:00050300       ?ConvISOtoWindows@JString@@AAEHXZ 00451300 f   j_str.obj
 0001:00050420       ?ConvSJIStoJIS@JString@@QAEHXZ 00451420 f   j_str.obj
 0001:00050770       ??0JString@@QAE@ABVJWString@@@Z 00451770 f   j_str.obj
 0001:000507c0       ??0JString@@QAE@PBG@Z      004517c0 f   j_str.obj
 0001:00050810       ??4JString@@QAEAAV0@ABVJWString@@@Z 00451810 f   j_str.obj
 0001:00050830       ??4JString@@QAEAAV0@PBG@Z  00451830 f   j_str.obj
 0001:00050850       ??YJString@@QAEAAV0@ABVJWString@@@Z 00451850 f   j_str.obj
 0001:000508b0       ??YJString@@QAEAAV0@PBG@Z  004518b0 f   j_str.obj
 0001:00050950       ?ToMbs@JString@@QAEKABVJWString@@PBD@Z 00451950 f   j_str.obj
 0001:00050970       ?ToMbs@JString@@QAEKPBGPBD@Z 00451970 f   j_str.obj
 0001:00050a50       ?ToMbs@JString@@QAEKPBGH@Z 00451a50 f   j_str.obj
 0001:00050bf0       ?ToMbsFunc@JString@@QAEKPBGH@Z 00451bf0 f   j_str.obj
 0001:00050d90       ?ConvUnicodeToUTF8@JString@@QAEKPBG@Z 00451d90 f   j_str.obj
 0001:00050ff0       ?Add@JString@@QAEXD@Z      00451ff0 f i j_str.obj
 0001:00051100       ?SwapBuffer@?$JArray@D@@QAEXAAV1@@Z 00452100 f i j_str.obj
 0001:00051190       ?JGXCreateStreamObject@@YAPAVJStreamObject@@XZ 00452190 f   j_stream.obj
 0001:000511f0       ?Create@JSurface32@@UAEHPAVJSurfaceObject@@JJJ@Z 004521f0 f   j_surf32.obj
 0001:00051250       ?Create@JSurface32@@UAEHJJJ@Z 00452250 f   j_surf32.obj
 0001:000512c0       ?Copy@JSurface32@@UAEHJJJJPAVJSurface@@JJ@Z 004522c0 f   j_surf32.obj
 0001:00051350       ?CopyKey@JSurface32@@UAEHJJJJPAVJSurface@@JJ@Z 00452350 f   j_surf32.obj
 0001:00051430       ?ColorFill@JSurface32@@UAEHJJJJK@Z 00452430 f   j_surf32.obj
 0001:000514b0       ?AlphaFill@JSurface32@@UAEHJJJJE@Z 004524b0 f   j_surf32.obj
 0001:00051500       ?CopyAlpha@JSurface32@@UAEHJJJJPAVJSurface@@JJ@Z 00452500 f   j_surf32.obj
 0001:00051730       ?ColorFillAlpha@JSurface32@@UAEHJJJJKE@Z 00452730 f   j_surf32.obj
 0001:00051840       ?StretchCopy@JSurface32@@UAEHJJJJPAVJSurface@@JJJJ@Z 00452840 f   j_surf32.obj
 0001:00051bb0       ?StretchCopyEx@JSurface32@@UAEHJJJJPAVJSurface@@JJJJPAJ1@Z 00452bb0 f   j_surf32.obj
 0001:00051f80       ?ZoomCopy@JSurface32@@UAEHJJJJPAVJSurface@@JJJJJJ@Z 00452f80 f   j_surf32.obj
 0001:00052160       ?CopyAND@JSurface32@@UAEHJJJJPAVJSurface@@JJ@Z 00453160 f   j_surf32.obj
 0001:00052280       ?CopyOR@JSurface32@@UAEHJJJJPAVJSurface@@JJ@Z 00453280 f   j_surf32.obj
 0001:000523a0       ?CopyXOR@JSurface32@@UAEHJJJJPAVJSurface@@JJ@Z 004533a0 f   j_surf32.obj
 0001:000524c0       ?CopyNOT@JSurface32@@UAEHJJJJPAVJSurface@@JJ@Z 004534c0 f   j_surf32.obj
 0001:000525f0       ?CopyNAND@JSurface32@@UAEHJJJJPAVJSurface@@JJ@Z 004535f0 f   j_surf32.obj
 0001:00052720       ?CopyNOR@JSurface32@@UAEHJJJJPAVJSurface@@JJ@Z 00453720 f   j_surf32.obj
 0001:00052850       ?BlendFill@JSurface32@@UAEHJJJJKPAVJSurface@@E@Z 00453850 f   j_surf32.obj
 0001:00052bd0       ?BlendDarken@JSurface32@@UAEHJJJJPAVJSurface@@JJ0@Z 00453bd0 f   j_surf32.obj
 0001:00053020       ?BlendLighten@JSurface32@@UAEHJJJJPAVJSurface@@JJ0@Z 00454020 f   j_surf32.obj
 0001:00053450       ?BlendSaturation@JSurface32@@UAEHJJJJPAVJSurface@@JJ0@Z 00454450 f   j_surf32.obj
 0001:00053450       ?BlendHue@JSurface32@@UAEHJJJJPAVJSurface@@JJ0@Z 00454450 f   j_surf32.obj
 0001:00053450       ?BlendOverlay@JSurface32@@UAEHJJJJPAVJSurface@@JJ0@Z 00454450 f   j_surf32.obj
 0001:00053450       ?BlendNormal@JSurface32@@UAEHJJJJPAVJSurface@@JJ0@Z 00454450 f   j_surf32.obj
 0001:00053450       ?BlendLuminosity@JSurface32@@UAEHJJJJPAVJSurface@@JJ0@Z 00454450 f   j_surf32.obj
 0001:00053450       ?BlendColor@JSurface32@@UAEHJJJJPAVJSurface@@JJ0@Z 00454450 f   j_surf32.obj
 0001:000538e0       ?BlendMultiply@JSurface32@@UAEHJJJJPAVJSurface@@JJ0@Z 004548e0 f   j_surf32.obj
 0001:00053d60       ?BlendScreen@JSurface32@@UAEHJJJJPAVJSurface@@JJ0@Z 00454d60 f   j_surf32.obj
 0001:00054240       ?BlendDissolve@JSurface32@@UAEHJJJJPAVJSurface@@JJ0@Z 00455240 f   j_surf32.obj
 0001:000545b0       ?BlendHardLight@JSurface32@@UAEHJJJJPAVJSurface@@JJ0@Z 004555b0 f   j_surf32.obj
 0001:00054b70       ?BlendSoftLight@JSurface32@@UAEHJJJJPAVJSurface@@JJ0@Z 00455b70 f   j_surf32.obj
 0001:00055110       ?BlendDifference@JSurface32@@UAEHJJJJPAVJSurface@@JJ0@Z 00456110 f   j_surf32.obj
 0001:00055610       ?SetAlphaPlane@JSurface32@@UAEXPBE@Z 00456610 f   j_surf32.obj
 0001:00055710       ?GetAlphaPlane@JSurface32@@UAEPAEXZ 00456710 f   j_surf32.obj
 0001:00055790       ?Create@JSurface8@@UAEHPAVJSurfaceObject@@JJJ@Z 00456790 f   j_surf8.obj
 0001:000557f0       ?Create@JSurface8@@UAEHJJJ@Z 004567f0 f   j_surf8.obj
 0001:00055860       ?Copy@JSurface8@@UAEHJJJJPAVJSurface@@JJ@Z 00456860 f   j_surf8.obj
 0001:00055900       ?ColorFill@JSurface8@@UAEHJJJJK@Z 00456900 f   j_surf8.obj
 0001:000559a0       ?CopyAlpha@JSurface8@@UAEHJJJJPAVJSurface@@JJ@Z 004569a0 f   j_surf8.obj
 0001:00055ad0       ?ColorFillAlpha@JSurface8@@UAEHJJJJKE@Z 00456ad0 f   j_surf8.obj
 0001:00055b60       ?StretchCopy@JSurface8@@UAEHJJJJPAVJSurface@@JJJJ@Z 00456b60 f   j_surf8.obj
 0001:00055e90       ?StretchCopyEx@JSurface8@@UAEHJJJJPAVJSurface@@JJJJPAJ1@Z 00456e90 f   j_surf8.obj
 0001:000561f0       ?CopyAND@JSurface8@@UAEHJJJJPAVJSurface@@JJ@Z 004571f0 f   j_surf8.obj
 0001:00056310       ?CopyOR@JSurface8@@UAEHJJJJPAVJSurface@@JJ@Z 00457310 f   j_surf8.obj
 0001:00056430       ?CopyXOR@JSurface8@@UAEHJJJJPAVJSurface@@JJ@Z 00457430 f   j_surf8.obj
 0001:00056550       ?CopyNOT@JSurface8@@UAEHJJJJPAVJSurface@@JJ@Z 00457550 f   j_surf8.obj
 0001:00056680       ?CopyNAND@JSurface8@@UAEHJJJJPAVJSurface@@JJ@Z 00457680 f   j_surf8.obj
 0001:000567b0       ?CopyNOR@JSurface8@@UAEHJJJJPAVJSurface@@JJ@Z 004577b0 f   j_surf8.obj
 0001:000568e0       ?SetupSurface@JSurface@@UAEHXZ 004578e0 f   j_surfc.obj
 0001:00056970       ?Release@JSurface@@UAEXXZ  00457970 f   j_surfc.obj
 0001:000569b0       ?AdjustParameters@JSurface@@QAEHPAV1@AAJ11111@Z 004579b0 f   j_surfc.obj
 0001:00056ab0       ??_EJThread@@UAEPAXI@Z     00457ab0 f i j_thread.obj
 0001:00056ab0       ??_GJThread@@UAEPAXI@Z     00457ab0 f i j_thread.obj
 0001:00056ae0       ?SetLoop@JThread@@QAEXPAVJThreadLoop@@@Z 00457ae0 f   j_thread.obj
 0001:00056b30       ?AddNotify@JThread@@SAXP6AXKPAX0@Z@Z 00457b30 f   j_thread.obj
 0001:00056c70       ?SendNotify@JThread@@SAXKPAX0@Z 00457c70 f   j_thread.obj
 0001:00056cb0       ??0JWinFile@@QAE@XZ        00457cb0 f   j_winfile.obj
 0001:00056cd0       ?Length@JStreamObject@@UAEKXZ 00457cd0 f i j_winfile.obj
 0001:00056ce0       ??_EJWinFile@@UAEPAXI@Z    00457ce0 f i j_winfile.obj
 0001:00056ce0       ??_GJWinFile@@UAEPAXI@Z    00457ce0 f i j_winfile.obj
 0001:00056d10       ??1JWinFile@@UAE@XZ        00457d10 f   j_winfile.obj
 0001:00056d60       ??1JStreamObject@@UAE@XZ   00457d60 f i j_winfile.obj
 0001:00056d70       ??_GJStreamObject@@UAEPAXI@Z 00457d70 f i j_winfile.obj
 0001:00056d70       ??_EJStreamObject@@UAEPAXI@Z 00457d70 f i j_winfile.obj
 0001:00056da0       ?Open@JWinFile@@UAEHPBDH@Z 00457da0 f   j_winfile.obj
 0001:00056e40       ?OpenW@JWinFile@@UAEHPBGH@Z 00457e40 f   j_winfile.obj
 0001:00056f40       ?Close@JWinFile@@UAEXXZ    00457f40 f   j_winfile.obj
 0001:00056f70       ?Read@JWinFile@@UAEEXZ     00457f70 f   j_winfile.obj
 0001:00056fb0       ?Read@JWinFile@@UAEKPAXK@Z 00457fb0 f   j_winfile.obj
 0001:00056fe0       ?Write@JWinFile@@UAEKE@Z   00457fe0 f   j_winfile.obj
 0001:00057010       ?Write@JWinFile@@UAEKPAXK@Z 00458010 f   j_winfile.obj
 0001:00057040       ?Seek@JWinFile@@UAEHJH@Z   00458040 f   j_winfile.obj
 0001:000570a0       ??0JWinThread@@QAE@XZ      004580a0 f   j_wintrd.obj
 0001:000570f0       ?Handle@JWinThread@@UAEPAXXZ 004580f0 f i j_wintrd.obj
 0001:000570f0       ?Lock@JDIBSurface@@UAEPAEXZ 004580f0 f i j_wintrd.obj
 0001:00057100       ?IsSuspend@JWinThread@@UAE_NXZ 00458100 f i j_wintrd.obj
 0001:00057110       ?ThreadStarted@JWinThread@@UAEHXZ 00458110 f i j_wintrd.obj
 0001:00057120       ?Sleep@JWinThread@@UAEHJ@Z 00458120 f i j_wintrd.obj
 0001:00057140       ?SetMsgQueueNeed@JWinThread@@UAEX_N@Z 00458140 f i j_wintrd.obj
 0001:00057150       ?Lock@JWinThread@@UAEXXZ   00458150 f i j_wintrd.obj
 0001:00057160       ?Unlock@JWinThread@@UAEXXZ 00458160 f i j_wintrd.obj
 0001:00057170       ??_GJWinThread@@UAEPAXI@Z  00458170 f i j_wintrd.obj
 0001:00057170       ??_EJWinThread@@UAEPAXI@Z  00458170 f i j_wintrd.obj
 0001:000571a0       ??1JWinThread@@UAE@XZ      004581a0 f   j_wintrd.obj
 0001:00057200       ??1JThread@@UAE@XZ         00458200 f i j_wintrd.obj
 0001:00057210       ?Start@JWinThread@@UAEHJ@Z 00458210 f   j_wintrd.obj
 0001:000572c0       ?Suspend@JWinThread@@UAEHXZ 004582c0 f   j_wintrd.obj
 0001:000572e0       ?Resume@JWinThread@@UAEHXZ 004582e0 f   j_wintrd.obj
 0001:00057300       ?ForceResume@JWinThread@@UAEHXZ 00458300 f   j_wintrd.obj
 0001:00057320       ?Exit@JWinThread@@UAEHXZ   00458320 f   j_wintrd.obj
 0001:00057370       ?Terminate@JWinThread@@UAEHXZ 00458370 f   j_wintrd.obj
 0001:000573c0       ?Release@JWinThread@@QAEXXZ 004583c0 f   j_wintrd.obj
 0001:000573d0       ?SetPriority@JWinThread@@UAEXH@Z 004583d0 f   j_wintrd.obj
 0001:00057430       ?SetInterval@JWinThread@@UAEHJ@Z 00458430 f   j_wintrd.obj
 0001:00057570       ?WaitForThreadRelease@JWinThread@@UAEHH@Z 00458570 f   j_wintrd.obj
 0001:000575c0       ?PostQueue@JWinThread@@UAE_NHPAX@Z 004585c0 f   j_wintrd.obj
 0001:00057610       ?GetQueue@JWinThread@@UAEPAXAAH@Z 00458610 f   j_wintrd.obj
 0001:000576a0       ?JGXGetLocaleTable@@YAPBUtagJGX_LOCALE_TABLE@@XZ 004586a0 f   j_wstr.obj
 0001:000576f0       ??4JWString@@QAEAAV0@PBG@Z 004586f0 f   j_wstr.obj
 0001:00057800       ??4JWString@@QAEAAV0@ABV0@@Z 00458800 f   j_wstr.obj
 0001:00057900       ?Cat@JWString@@QAEXPBGK@Z  00458900 f   j_wstr.obj
 0001:00057980       ?Remove@JWString@@QAE_NPBG@Z 00458980 f   j_wstr.obj
 0001:00057a70       ?RemoveLast@JWString@@QAEXJ@Z 00458a70 f   j_wstr.obj
 0001:00057b00       ?RemoveToLast@JWString@@QAEXJ@Z 00458b00 f   j_wstr.obj
 0001:00057c00       ?Remove@JWString@@QAE_NJJ@Z 00458c00 f   j_wstr.obj
 0001:00057c70       ?Replace@JWString@@QAEHPBG0@Z 00458c70 f   j_wstr.obj
 0001:00057e10       ?Replace@JWString@@QAEHGG@Z 00458e10 f   j_wstr.obj
 0001:00057e50       ?ReplaceCharList@JWString@@QAEHPBGG@Z 00458e50 f   j_wstr.obj
 0001:00057ea0       ?FindList@JWString@@QBEJPBGJK@Z 00458ea0 f   j_wstr.obj
 0001:00057f10       ?Replace@JWString@@QAEHKKPBG@Z 00458f10 f   j_wstr.obj
 0001:00058090       ?Insert@JWString@@QAEHKG@Z 00459090 f   j_wstr.obj
 0001:000581a0       ??YJWString@@QAEAAV0@PBD@Z 004591a0 f   j_wstr.obj
 0001:00058210       ?ConvUTF8ToUnicode@JWString@@AAEKPBD@Z 00459210 f   j_wstr.obj
 0001:00058460       ?ConvMSUnicode@JWString@@QAEXXZ 00459460 f   j_wstr.obj
 0001:000584d0       ?GetDefaultCodePage@JWString@@SIHXZ 004594d0 f   j_wstr.obj
 0001:000584d0       _ssl_ok                    004594d0 f   j_wstr.obj
 0001:000584e0       ?GetCodePage@JWString@@SIHPBD@Z 004594e0 f   j_wstr.obj
 0001:000585e0       ?ToUnicode@JWString@@QAEKPBD0@Z 004595e0 f   j_wstr.obj
 0001:000586e0       ?ToUnicode@JWString@@QAEKPBDH@Z 004596e0 f   j_wstr.obj
 0001:000588f0       ?ToUnicodeFunc@JWString@@AAEKPBDH@Z 004598f0 f   j_wstr.obj
 0001:00058a10       ?Alloc@?$JArray@G@@QAE_NK@Z 00459a10 f i j_wstr.obj
 0001:00058ac0       ?stricmp_custom@@YIHPBD0@Z 00459ac0 f   libc_custom.obj
 0001:00058b20       ?wcsicmp_custom@@YIHPBG0@Z 00459b20 f   libc_custom.obj
 0001:00058bb0       ?strnicmp_custom@@YIHPBD0I@Z 00459bb0 f   libc_custom.obj
 0001:00058c50       ?wcsnicmp_custom@@YIHPBG0I@Z 00459c50 f   libc_custom.obj
 0001:00058d20       ?stricmp_opt@@YIHPBD0@Z    00459d20 f   libc_custom.obj
 0001:00058d80       ?wcsicmp_opt@@YIHPBG0@Z    00459d80 f   libc_custom.obj
 0001:00058df0       ?strnicmp_opt@@YIHPBD0I@Z  00459df0 f   libc_custom.obj
 0001:00058e70       ?wcsnicmp_opt@@YIHPBG0I@Z  00459e70 f   libc_custom.obj
 0001:00058f20       ?strstri_custom@@YIPADPBD0@Z 00459f20 f   libc_custom.obj
 0001:00058fd0       ?wcsstri_custom@@YIPAGPBG0@Z 00459fd0 f   libc_custom.obj
 0001:000590d0       ?strstri_opt@@YIPADPBD0@Z  0045a0d0 f   libc_custom.obj
 0001:00059170       ?wcsstri_opt@@YIPAGPBG0@Z  0045a170 f   libc_custom.obj
 0001:00059240       ?wcs_isemptystring@@YI_NPBG@Z 0045a240 f   libc_custom.obj
 0001:00059270       ?wcsicmpex@@YIHPBG0@Z      0045a270 f   libc_custom.obj
 0001:00059380       ?wcsnicmpex@@YIHPBG0I@Z    0045a380 f   libc_custom.obj
 0001:000594d0       ?wcsstriex@@YIPBGPBG0@Z    0045a4d0 f   libc_custom.obj
 0001:00059550       ?wcsicmp_printchar@@YIHPBG0@Z 0045a550 f   libc_custom.obj
 0001:00059600       ?strlcat@@YAIPADPBDI@Z     0045a600 f   libc_custom.obj
 0001:00059670       ?strlcpy@@YAIPADPBDI@Z     0045a670 f   libc_custom.obj
 0001:000596c0       ?wcslcpy@@YAIPAGPBGI@Z     0045a6c0 f   libc_custom.obj
 0001:00059720       _MMAG_hanalyze             0045a720 f   M2BC.OBJ
 0001:00059a10       _MMAG_getpc                0045aa10 f   M2BC.OBJ
 0001:00059ac0       _MMAG_decordMagPixel       0045aac0 f   M2BC.OBJ
 0001:00059d20       _pi_read_init              0045ad20 f   piread.obj
 0001:00059d40       _pi_read_end               0045ad40 f   piread.obj
 0001:00059d60       _pi_read_header            0045ad60 f   piread.obj
 0001:0005a0d0       _pi_read_palette           0045b0d0 f   piread.obj
 0001:0005a1b0       _pi_read_row_init          0045b1b0 f   piread.obj
 0001:0005a410       _pi_read_image             0045b410 f   piread.obj
 0001:0005a450       _pi_read_row               0045b450 f   piread.obj
 0001:0005ab60       _pi_read_init_io           0045bb60 f   piread.obj
 0001:0005aba0       _pi_read_end_io            0045bba0 f   piread.obj
 0001:0005abf0       _sp_resetstkoflw           0045bbf0 f   resetstk.obj
 0001:0005ad50       ??0SPAdjustPriv@@QAE@PADH@Z 0045bd50 f   sp_adjustpriv.obj
 0001:0005ae30       ??1SPAdjustPriv@@QAE@XZ    0045be30 f   sp_adjustpriv.obj
 0001:0005af50       ?SetPriv@SPAdjustPriv@@SAHPADH@Z 0045bf50 f   sp_adjustpriv.obj
 0001:0005b0e0       ??1SPAdjustPrivADVAPI32@@QAE@XZ 0045c0e0 f i sp_adjustpriv.obj
 0001:0005b0f0       ?DrawCollision@SPCollisionProp@@QAEXPAXABUtagPOINT@@@Z 0045c0f0 f   sp_anime.obj
 0001:0005b200       ?GetCollisionType@SPCollisionProp@@QAEPBGXZ 0045c200 f   sp_anime.obj
 0001:0005b220       ?IsCollide@SPCollisionProp@@QAE_NJJ@Z 0045c220 f   sp_anime.obj
 0001:0005b3d0       ?SetFromTableText@SPCollisionProp@@QAE_NPAG@Z 0045c3d0 f   sp_anime.obj
 0001:0005b720       ?CalcBoundingRect@SPCollisionProp@@AAE_NXZ 0045c720 f   sp_anime.obj
 0001:0005b7a0       ??0SPAnimeScript@@QAE@AAV0@@Z 0045c7a0 f   sp_anime.obj
 0001:0005b8f0       ??1SPAnimeScript@@QAE@XZ   0045c8f0 f   sp_anime.obj
 0001:0005b970       ?ExecuteBind@SPAnimeScript@@QAEXPAVSPSerikoTask@@AAV?$JArray@VSPSerikoAnimationPlayPat@@@@AAV?$JArray@J@@PAVSPAnimeBase@@@Z 0045c970 f   sp_anime.obj
 0001:0005bb70       ?Execute@SPAnimeScript@@QAEXPAVSPSerikoTask@@JAAV?$JArray@VSPSerikoAnimationPlayPat@@@@@Z 0045cb70 f   sp_anime.obj
 0001:0005bcf0       ?AllWait@SPAnimeScript@@QAEKXZ 0045ccf0 f   sp_anime.obj
 0001:0005bd20       ??0SPAnimeBase@@QAE@PAVSPGhost@@AAV?$SPSparsePtrArray@PAVSPAnimeBase@@@@@Z 0045cd20 f   sp_anime.obj
 0001:0005be10       ?InitValue@SPAnimeBase@@QAEXXZ 0045ce10 f   sp_anime.obj
 0001:0005be50       ??1SPAnimeBase@@QAE@XZ     0045ce50 f   sp_anime.obj
 0001:0005bf40       ?LoadScript@SPAnimeBase@@QAEHPAD@Z 0045cf40 f   sp_anime.obj
 0001:0005c460       ?AddScript@SPAnimeBase@@QAEXPAVSPAnimeScript@@@Z 0045d460 f   sp_anime.obj
 0001:0005c590       ?LoadAreaNew@SPAnimeBase@@QAEHPAD@Z 0045d590 f   sp_anime.obj
 0001:0005cde0       ??1SPCollisionProp@@QAE@XZ 0045dde0 f i sp_anime.obj
 0001:0005ce40       ?AddFromAnotherBase@SPAnimeBase@@QAEXPAV1@@Z 0045de40 f   sp_anime.obj
 0001:0005d0e0       ?Release@SPAnimeBase@@QAEXXZ 0045e0e0 f   sp_anime.obj
 0001:0005d1c0       ?AllBindIDList@SPAnimeBase@@QAEXAAV?$JArray@J@@@Z 0045e1c0 f   sp_anime.obj
 0001:0005d330       ?BindOverlay@SPAnimeBase@@QAEXPAVSPSerikoTask@@AAV?$JArray@VSPSerikoAnimationPlayPat@@@@AAV?$JArray@J@@PAVJSurface@@PAXHH@Z 0045e330 f   sp_anime.obj
 0001:0005d5e0       ?SetBind@SPAnimeBase@@QAEXPAJK_N@Z 0045e5e0 f   sp_anime.obj
 0001:0005d650       ?IsSurfaceUsed@SPAnimeBase@@QAE_NJ@Z 0045e650 f   sp_anime.obj
 0001:0005d6a0       ?CreateDummyDef@SPAnimeBase@@QAEXJKK@Z 0045e6a0 f   sp_anime.obj
 0001:0005d7a0       ?CreateBoundingBoxSub@SPAnimeBase@@IAEHAAUtagRECT@@K@Z 0045e7a0 f   sp_anime.obj
 0001:0005d900       ?CreateBoundingBox@SPAnimeBase@@QAEXXZ 0045e900 f   sp_anime.obj
 0001:0005dac0       ?SetOffset@SPAnimeBase@@QAEXHH@Z 0045eac0 f   sp_anime.obj
 0001:0005db30       ?GetCollisionRectCompat@SPAnimeBase@@QAEHAAVJRect@@PAG@Z 0045eb30 f   sp_anime.obj
 0001:0005dbe0       ?GetPointDataIndex@SPAnimeBase@@QAEXKAAV?$JArray@VJPoint@@@@@Z 0045ebe0 f   sp_anime.obj
 0001:0005dc90       ?GetCollisionName@SPAnimeBase@@QAEPAGHHPAJ@Z 0045ec90 f   sp_anime.obj
 0001:0005dd00       ?DrawCollision@SPAnimeBase@@QAEXPAX@Z 0045ed00 f   sp_anime.obj
 0001:0005dd40       ?ReleaseSurfaceElement@SPAnimeBase@@QAEXXZ 0045ed40 f   sp_anime.obj
 0001:0005dda0       ?AddSurfaceElement@SPAnimeBase@@QAEHPAVSPSurface@@HHHH@Z 0045eda0 f   sp_anime.obj
 0001:0005e070       ?ElementRender@SPAnimeBase@@QAEHPAVJSurface@@HHHH@Z 0045f070 f   sp_anime.obj
 0001:0005ecd0       ?GetRegion@SPAnimeBase@@QAEPAXPAV1@@Z 0045fcd0 f   sp_anime.obj
 0001:0005edf0       ?ElementCombineRegionOffset@SPAnimeBase@@QAEXPAXHHH@Z 0045fdf0 f   sp_anime.obj
 0001:0005ee40       ?ClassificateScript@SPAnimeBase@@QAEXXZ 0045fe40 f   sp_anime.obj
 0001:0005f010       ?CheckInvalidDef@SPAnimeBase@@QAEHXZ 00460010 f   sp_anime.obj
 0001:0005f860       ?AddBalloonOffset@SPAnimeBase@@QAEAAUtagPOINT@@H@Z 00460860 f   sp_anime.obj
 0001:0005f8f0       ?GetBalloonOffset@SPAnimeBase@@QAEXHPAVSPSeriko@@AAUtagPOINT@@@Z 004608f0 f   sp_anime.obj
 0001:0005f970       ??4?$JArray@VJPoint@@@@QAEAAV0@ABV0@@Z 00460970 f i sp_anime.obj
 0001:0005fa80       ?Copy@?$JArray@K@@QAE_NPBKK@Z 00460a80 f i sp_anime.obj
 0001:0005fa80       ?Copy@?$JArray@J@@QAE_NPBJK@Z 00460a80 f i sp_anime.obj
 0001:0005fa80       ?Copy@?$JArray@PAX@@QAE_NPBQAXK@Z 00460a80 f i sp_anime.obj
 0001:0005fb80       ?Copy@?$JArray@VJPoint@@@@QAE_NPBVJPoint@@K@Z 00460b80 f i sp_anime.obj
 0001:0005fc80       ?ProcessDescript@SPBalloonFontPropMask@@QAE_NAAVJTokenStream@@PBD@Z 00460c80 f   sp_balloon.obj
 0001:00060060       ?Add@SPBalloonDescHolder@@QAEPAVSPBalloonDesc@@H@Z 00461060 f   sp_balloon.obj
 0001:00060150       ?Get@SPBalloonDescHolder@@QAEPAVSPBalloonDesc@@H@Z 00461150 f   sp_balloon.obj
 0001:00060180       ?ResetFontResource@SPBalloonDescHolder@@QAEXXZ 00461180 f   sp_balloon.obj
 0001:000601b0       ?Release@SPBalloonDescHolder@@QAEXXZ 004611b0 f   sp_balloon.obj
 0001:000601f0       ??0SPBalloonDesc@@QAE@PAVSPBalloon@@@Z 004611f0 f   sp_balloon.obj
 0001:00060430       ??_GSPBalloonFontProp@@UAEPAXI@Z 00461430 f i sp_balloon.obj
 0001:00060430       ??_ESPBalloonFontProp@@UAEPAXI@Z 00461430 f i sp_balloon.obj
 0001:00060460       ??0JRect@@QAE@XZ           00461460 f i sp_balloon.obj
 0001:00060460       ??0SPBalloonFontPropMask@@QAE@XZ 00461460 f i sp_balloon.obj
 0001:00060470       ??_ESPBalloonDesc@@UAEPAXI@Z 00461470 f i sp_balloon.obj
 0001:00060470       ??_GSPBalloonDesc@@UAEPAXI@Z 00461470 f i sp_balloon.obj
 0001:000604a0       ??1SPBalloonDesc@@UAE@XZ   004614a0 f i sp_balloon.obj
 0001:00060520       ?Release@SPBalloonDesc@@QAEXXZ 00461520 f   sp_balloon.obj
 0001:00060550       ?Width@SPBalloonDesc@@QAEJXZ 00461550 f   sp_balloon.obj
 0001:00060560       ?Height@SPBalloonDesc@@QAEJXZ 00461560 f   sp_balloon.obj
 0001:00060570       ?LoadDescript@SPBalloonDesc@@QAEHPAD@Z 00461570 f   sp_balloon.obj
 0001:00061890       ?SetDefault@SPBalloonDesc@@QAEHPAVSPBalloon@@HH@Z 00462890 f   sp_balloon.obj
 0001:00061e10       ??0SPBalloon@@QAE@PAVSPGhost@@@Z 00462e10 f   sp_balloon.obj
 0001:000620d0       ??_GSPBalloon@@UAEPAXI@Z   004630d0 f i sp_balloon.obj
 0001:000620d0       ??_ESPBalloon@@UAEPAXI@Z   004630d0 f i sp_balloon.obj
 0001:00062100       ??1SPBalloon@@UAE@XZ       00463100 f i sp_balloon.obj
 0001:00062250       ?Release@SPBalloon@@QAEXXZ 00463250 f   sp_balloon.obj
 0001:00062380       ??1SPBalloonDescHolder@@QAE@XZ 00463380 f i sp_balloon.obj
 0001:000623e0       ?LoadBalloon@SPBalloon@@QAEHPAD@Z 004633e0 f   sp_balloon.obj
 0001:00063640       ?ScanSurface@SPBalloon@@AAEHAAVSPBalloonDescHolder@@PAD1@Z 00464640 f   sp_balloon.obj
 0001:00063a40       ?LoadSurface@SPBalloon@@AAEHPAD@Z 00464a40 f   sp_balloon.obj
 0001:000642d0       ?FillLoadSurface@SPBalloon@@QAEHPAD@Z 004652d0 f   sp_balloon.obj
 0001:00064800       ?GetInput@SPBalloon@@QAEPAVSPBalloonDesc@@H@Z 00465800 f   sp_balloon.obj
 0001:00064850       ?GetPropA@SPBalloon@@QAEPAVSPBalloonDesc@@HH@Z 00465850 f   sp_balloon.obj
 0001:000648c0       ?ResetFontResourceAll@SPBalloon@@QAEXXZ 004658c0 f   sp_balloon.obj
 0001:00064910       ?VarGet@SPBalloon@@UAE_NPAVSPGhost@@PAGAAVJWString@@PAVSPVarSystemNode@@@Z 00465910 f   sp_balloon.obj
 0001:00064a30       ?VarSet@SPBalloon@@UAE_NPAVSPGhost@@PAG1PAVSPVarSystemNode@@@Z 00465a30 f   sp_balloon.obj
 0001:00064ae0       ??0SPBalloonWnd@@QAE@PAVSPGhost@@H@Z 00465ae0 f   sp_balloon.obj
 0001:00064e40       ??_GJDummyLockSection@@UAEPAXI@Z 00465e40 f i sp_balloon.obj
 0001:00064e40       ??_EJDummyLockSection@@UAEPAXI@Z 00465e40 f i sp_balloon.obj
 0001:00064e70       ??_ESPBalloonWnd@@UAEPAXI@Z 00465e70 f i sp_balloon.obj
 0001:00064e70       ??_GSPBalloonWnd@@UAEPAXI@Z 00465e70 f i sp_balloon.obj
 0001:00064ea0       ??1SPBalloonWnd@@UAE@XZ    00465ea0 f   sp_balloon.obj
 0001:00065020       ?OnCreate@SPBalloonWnd@@QAEXPAX0@Z 00466020 f   sp_balloon.obj
 0001:00065090       ?OnDestroy@SPBalloonWnd@@QAEXXZ 00466090 f   sp_balloon.obj
 0001:00065100       ?Release@SPBalloonWnd@@QAEXXZ 00466100 f   sp_balloon.obj
 0001:000652c0       ?Width@SPBalloonWnd@@QAEJXZ 004662c0 f   sp_balloon.obj
 0001:000652e0       ?CreateBackBuffer@SPBalloonWnd@@QAEHXZ 004662e0 f   sp_balloon.obj
 0001:000654b0       ?ResetGlobalFontHeight@SPBalloonWnd@@AAEXXZ 004664b0 f   sp_balloon.obj
 0001:000654f0       ?VarGet@SPBalloonWnd@@UAE_NPAVSPGhost@@PAGAAVJWString@@PAVSPVarSystemNode@@@Z 004664f0 f   sp_balloon.obj
 0001:00065720       ?VarSet@SPBalloonWnd@@UAE_NPAVSPGhost@@PAG1PAVSPVarSystemNode@@@Z 00466720 f   sp_balloon.obj
 0001:00065880       ?SetBalloon@SPBalloonWnd@@QAEHPAVSPBalloon@@IHPAUtagPOINT@@@Z 00466880 f   sp_balloon.obj
 0001:00065cd0       ?UpdateRegion@SPBalloonWnd@@QAEHXZ 00466cd0 f   sp_balloon.obj
 0001:00065d60       ?DrawBackBuffer@SPBalloonWnd@@QAEXH@Z 00466d60 f   sp_balloon.obj
 0001:000661c0       ?FillTextBuffer@SPBalloonWnd@@AAEXXZ 004671c0 f   sp_balloon.obj
 0001:000662a0       ?BlendTextBuffer@SPBalloonWnd@@AAEXXZ 004672a0 f   sp_balloon.obj
 0001:00066330       ?IsScrollUpLimit@SPBalloonWnd@@QAEHXZ 00467330 f   sp_balloon.obj
 0001:00066340       ?IsScrollDownLimit@SPBalloonWnd@@QAEHXZ 00467340 f   sp_balloon.obj
 0001:00066370       ?SetScrollToDownLimit@SPBalloonWnd@@QAEXXZ 00467370 f   sp_balloon.obj
 0001:00066390       ?DrawScrollArrowAuto@SPBalloonWnd@@AAEXXZ 00467390 f   sp_balloon.obj
 0001:000663f0       ?GetScrollRangeY@SPBalloonWnd@@QAEHXZ 004673f0 f   sp_balloon.obj
 0001:00066400       ?GetDefaultTextElementOffsetY@SPBalloonWnd@@QAEHXZ 00467400 f   sp_balloon.obj
 0001:00066410       ?IsMouseInScroolMarker@SPBalloonWnd@@QAEHHUtagPOINT@@@Z 00467410 f   sp_balloon.obj
 0001:000664b0       ?DrawScrollArrow@SPBalloonWnd@@AAEXH@Z 004674b0 f   sp_balloon.obj
 0001:00066630       ?SetAlpha@SPBalloonWnd@@QAEXH@Z 00467630 f   sp_balloon.obj
 0001:00066660       ?Present@SPBalloonWnd@@QAEXXZ 00467660 f   sp_balloon.obj
 0001:00066760       ?PresentDirtyRect@SPBalloonWnd@@QAEXH@Z 00467760 f   sp_balloon.obj
 0001:000668f0       ?NewString@SPBalloonWnd@@AAEPAVSPBalloonString@@PAV2@@Z 004678f0 f   sp_balloon.obj
 0001:00066b80       ??_GSPBalloonRefBlock@@AAEPAXI@Z 00467b80 f i sp_balloon.obj
 0001:00066bb0       ??1SPBalloonRefBlock@@AAE@XZ 00467bb0 f i sp_balloon.obj
 0001:00066c50       ??0SPBalloonString@@QAE@XZ 00467c50 f i sp_balloon.obj
 0001:00066d30       ?ClearStringCommand@SPBalloonWnd@@QAEHPAGH@Z 00467d30 f   sp_balloon.obj
 0001:000673a0       ?IsContentExist@SPBalloonWnd@@QAEIXZ 004683a0 f   sp_balloon.obj
 0001:000673c0       ?UpdateFlags@SPBalloonWnd@@AAEXXZ 004683c0 f   sp_balloon.obj
 0001:00067460       ?ClearString@SPBalloonWnd@@QAEXXZ 00468460 f   sp_balloon.obj
 0001:00067640       ?InitFontProp@SPBalloonWnd@@AAEXXZ 00468640 f   sp_balloon.obj
 0001:00067670       ?ResetFontResource@SPBalloonWnd@@AAEXXZ 00468670 f   sp_balloon.obj
 0001:00067690       ?ResetFontResourceReal@SPBalloonWnd@@AAEXXZ 00468690 f   sp_balloon.obj
 0001:00067720       ?CheckFontResource@SPBalloonWnd@@AAEXXZ 00468720 f   sp_balloon.obj
 0001:000677e0       ?IsNoWrapChar@SPBalloonWnd@@SIHG@Z 004687e0 f   sp_balloon.obj
 0001:00067800       ?IsSendNextChar@SPBalloonWnd@@SIHG@Z 00468800 f   sp_balloon.obj
 0001:00067820       ?GetWaitChar@SPBalloonWnd@@SIHG@Z 00468820 f   sp_balloon.obj
 0001:000678c0       ?AddString@SPBalloonWnd@@QAEXPAGK@Z 004688c0 f   sp_balloon.obj
 0001:00067cf0       ?AddMarker@SPBalloonWnd@@QAEXPAG@Z 00468cf0 f   sp_balloon.obj
 0001:00067e10       ?GetTextExtent@SPBalloonWnd@@AAEXPAVSPBalloonString@@@Z 00468e10 f   sp_balloon.obj
 0001:00067ed0       ?AddSelectableString@SPBalloonWnd@@QAEXPAG0HPAPAGI@Z 00468ed0 f   sp_balloon.obj
 0001:00068140       ?LockUpdate@SPBalloonWnd@@QAEXH@Z 00469140 f   sp_balloon.obj
 0001:00068180       ?UpdateBalloonScroll@SPBalloonWnd@@QAEXHH@Z 00469180 f   sp_balloon.obj
 0001:00068290       ?AddAnchorOrSelectable@SPBalloonWnd@@QAEXPAG_N@Z 00469290 f   sp_balloon.obj
 0001:000684d0       ?DrawString@SPBalloonWnd@@AAEXJ@Z 004694d0 f   sp_balloon.obj
 0001:00068640       ?DrawOneElement@SPBalloonWnd@@AAEHPAVSPBalloonString@@HH@Z 00469640 f   sp_balloon.obj
 0001:00069600       ?DrawSstpMarker@SPBalloonWnd@@AAEXXZ 0046a600 f   sp_balloon.obj
 0001:000697e0       ?DrawNetworkMarker@SPBalloonWnd@@AAEXPAG@Z 0046a7e0 f   sp_balloon.obj
 0001:00069a00       ?DrawProgressMsg@SPBalloonWnd@@AAEXXZ 0046aa00 f   sp_balloon.obj
 0001:00069bd0       ?SetProgress@SPBalloonWnd@@QAEHPAGHH@Z 0046abd0 f   sp_balloon.obj
 0001:00069c30       ?SetMarker@SPBalloonWnd@@QAEHPAG@Z 0046ac30 f   sp_balloon.obj
 0001:00069c90       ?GetSelectString@SPBalloonWnd@@QAEXPAVSPBalloonString@@AAVJWString@@@Z 0046ac90 f   sp_balloon.obj
 0001:00069cd0       ?GetSelectString@SPBalloonWnd@@QAEXKAAVJWString@@@Z 0046acd0 f   sp_balloon.obj
 0001:00069e70       ?SelectLine@SPBalloonWnd@@QAEJJJ@Z 0046ae70 f   sp_balloon.obj
 0001:00069ee0       ?SelectLineAndGet@SPBalloonWnd@@QAEPAVSPBalloonString@@JJAAJ@Z 0046aee0 f   sp_balloon.obj
 0001:00069f80       ?SelectLineInternal@SPBalloonWnd@@AAEJJJ@Z 0046af80 f   sp_balloon.obj
 0001:0006a100       ?StartOnline@SPBalloonWnd@@QAEXH@Z 0046b100 f   sp_balloon.obj
 0001:0006a160       ?ProcessOnline@SPBalloonWnd@@QAEXXZ 0046b160 f   sp_balloon.obj
 0001:0006a260       ?DrawOnline@SPBalloonWnd@@AAEXXZ 0046b260 f   sp_balloon.obj
 0001:0006a550       ?EndOnline@SPBalloonWnd@@QAEXXZ 0046b550 f   sp_balloon.obj
 0001:0006a5b0       ?StartWaiting@SPBalloonWnd@@QAEXJ@Z 0046b5b0 f   sp_balloon.obj
 0001:0006a640       ?DoWaiting@SPBalloonWnd@@QAEHXZ 0046b640 f   sp_balloon.obj
 0001:0006a8b0       ?EndWaiting@SPBalloonWnd@@QAEXXZ 0046b8b0 f   sp_balloon.obj
 0001:0006a8c0       ?DisableTimeoutTimer@SPBalloonWnd@@QAEXXZ 0046b8c0 f   sp_balloon.obj
 0001:0006a8f0       ?WaitUserInput@SPBalloonWnd@@QAEXXZ 0046b8f0 f   sp_balloon.obj
 0001:0006a9a0       ?OnUserInput@SPBalloonWnd@@QAEXXZ 0046b9a0 f   sp_balloon.obj
 0001:0006a9d0       ?ClearImageArray@SPBalloonWnd@@QAEXXZ 0046b9d0 f   sp_balloon.obj
 0001:0006aa30       ?AddImage@SPBalloonWnd@@QAEHPAGH@Z 0046ba30 f   sp_balloon.obj
 0001:0006b070       ?AdjustScrollPos@SPBalloonWnd@@AAEXPAVSPBalloonString@@@Z 0046c070 f   sp_balloon.obj
 0001:0006b0f0       ?SetOffsetString@SPBalloonWnd@@QAEHPBGH@Z 0046c0f0 f   sp_balloon.obj
 0001:0006b540       ?LineFeed@SPBalloonWnd@@QAEXHH@Z 0046c540 f   sp_balloon.obj
 0001:0006b570       ?LineFeedExt@SPBalloonWnd@@QAEXHH@Z 0046c570 f   sp_balloon.obj
 0001:0006b5a0       ?LineFeedProcessor@SPBalloonWnd@@AAEXXZ 0046c5a0 f   sp_balloon.obj
 0001:0006b790       ?ParseFontCommand@SPBalloonWnd@@QAEHPBGH@Z 0046c790 f   sp_balloon.obj
 0001:0006c780       ?GetAlign@SPBalloonWnd@@QAEHXZ 0046d780 f   sp_balloon.obj
 0001:0006c7b0       ?UpdateWindowPos@SPBalloonWnd@@AAEHPAUtagPOINT@@@Z 0046d7b0 f   sp_balloon.obj
 0001:0006ca60       ?Show@SPBalloonWnd@@QAE_N_N@Z 0046da60 f   sp_balloon.obj
 0001:0006cbc0       ?Hide@SPBalloonWnd@@QAE_N_N@Z 0046dbc0 f   sp_balloon.obj
 0001:0006ccd0       ?IsVisible@SPBalloonWnd@@QAEHXZ 0046dcd0 f   sp_balloon.obj
 0001:0006cce0       ?FadeProc@SPBalloonWnd@@QAEHXZ 0046dce0 f   sp_balloon.obj
 0001:0006ce70       ?GetDirection@SPBalloonWnd@@QAEHXZ 0046de70 f   sp_balloon.obj
 0001:0006cf80       ?SetDirection@SPBalloonWnd@@QAEXHPAUtagPOINT@@@Z 0046df80 f   sp_balloon.obj
 0001:0006cfb0       ?SetDirectionAuto@SPBalloonWnd@@QAEXPAUtagPOINT@@@Z 0046dfb0 f   sp_balloon.obj
 0001:0006cfe0       ?SetUserOffset@SPBalloonWnd@@QAEXABUtagPOINT@@H@Z 0046dfe0 f   sp_balloon.obj
 0001:0006d080       ??0SPBalloonRefBlock@@QAE@PAPAGK@Z 0046e080 f   sp_balloon.obj
 0001:0006d140       ?Clear@SPBalloonString@@QAEXXZ 0046e140 f   sp_balloon.obj
 0001:0006d2d0       ??1SPBalloonString@@QAE@XZ 0046e2d0 f   sp_balloon.obj
 0001:0006d3c0       ?IsJumpString@SPBalloonString@@QAEHXZ 0046e3c0 f   sp_balloon.obj
 0001:0006d3f0       ?GetJumpString@SPBalloonString@@QAEXAAVJWString@@@Z 0046e3f0 f   sp_balloon.obj
 0001:0006d500       ?Length@SPBalloonString@@QAEKXZ 0046e500 f   sp_balloon.obj
 0001:0006d530       ?Remove@SPBalloonString@@QAE_NJJ@Z 0046e530 f   sp_balloon.obj
 0001:0006d570       ?IsSpaceOnly@SPBalloonString@@QAE_NXZ 0046e570 f   sp_balloon.obj
 0001:0006d5c0       ?SetMarker@SPBalloonString@@QAEXPAVSPBalloonWnd@@I@Z 0046e5c0 f   sp_balloon.obj
 0001:0006d610       ?SetImage@SPBalloonString@@QAEXPAVSPSurface@@IABVJRect@@@Z 0046e610 f   sp_balloon.obj
 0001:0006d660       ?ProcessMaxHeight@SPBalloonString@@QAEXPAVSPBalloonWnd@@@Z 0046e660 f   sp_balloon.obj
 0001:0006d6a0       ?GetFont@SPBalloonString@@QAEPBVSPBalloonFontProp@@PAVSPBalloonWnd@@@Z 0046e6a0 f   sp_balloon.obj
 0001:0006d6c0       ?GetHeight@SPBalloonString@@QAEJPAVSPBalloonWnd@@@Z 0046e6c0 f   sp_balloon.obj
 0001:0006d740       ??1?$SPCacheObj@VSPBalloonString@@VJDummyLockSection@@VJDummyLock@@@@QAE@XZ 0046e740 f i sp_balloon.obj
 0001:0006d800       ??_ESPBalloonString@@QAEPAXI@Z 0046e800 f i sp_balloon.obj
 0001:0006d860       ?Last@?$JArray@PAX@@QAEAAPAXXZ 0046e860 f i sp_balloon.obj
 0001:0006d880       ?DeleteLast@?$JArray@PAX@@QAEXK@Z 0046e880 f i sp_balloon.obj
 0001:0006d8a0       ?CheckFontDifferent@SPBalloonFontProp@@ABE_NABV1@@Z 0046e8a0 f   sp_balloonfontprop.obj
 0001:0006d900       ??4SPBalloonFontProp@@QAEAAV0@ABV0@@Z 0046e900 f   sp_balloonfontprop.obj
 0001:0006da90       ??9SPBalloonFontProp@@QBE_NABV0@@Z 0046ea90 f   sp_balloonfontprop.obj
 0001:0006dd30       ?ResetFontResource@SPBalloonFontProp@@QAEXXZ 0046ed30 f   sp_balloonfontprop.obj
 0001:0006dd50       ??1SPBalloonFontProp@@UAE@XZ 0046ed50 f   sp_balloonfontprop.obj
 0001:0006dd70       ?Clear@SPBalloonFontProp@@QAEXXZ 0046ed70 f   sp_balloonfontprop.obj
 0001:0006ddb0       ?GetFontFace@SPBalloonFontProp@@QBEPBGXZ 0046edb0 f   sp_balloonfontprop.obj
 0001:0006ddd0       ?GetFontSize@SPBalloonFontProp@@QBEHXZ 0046edd0 f   sp_balloonfontprop.obj
 0001:0006ddf0       ?GetFont@SPBalloonFontProp@@QBEPAXXZ 0046edf0 f   sp_balloonfontprop.obj
 0001:0006dea0       ?CreateFontA@SPBalloonFontProp@@SAPAXHHHHHKKKKKKKKPBG@Z 0046eea0 f   sp_balloonfontprop.obj
 0001:0006df60       ?SetAnchorPenColor@SPBalloonFontProp@@QBEXAAVSPColor@@@Z 0046ef60 f   sp_balloonfontprop.obj
 0001:0006dfb0       ?SetAnchorNotselectPenColor@SPBalloonFontProp@@QBEXAAVSPColor@@@Z 0046efb0 f   sp_balloonfontprop.obj
 0001:0006e000       ?SetCursorPenColor@SPBalloonFontProp@@QBEXAAVSPColor@@@Z 0046f000 f   sp_balloonfontprop.obj
 0001:0006e040       ?Release@SPBindProp@@QAEXXZ 0046f040 f   sp_bind.obj
 0001:0006e0d0       ??1SPBindGroup@@QAE@XZ     0046f0d0 f i sp_bind.obj
 0001:0006e140       ?Load@SPBindProp@@QAEXPAG@Z 0046f140 f   sp_bind.obj
 0001:0006e250       ?Save@SPBindProp@@QAEXAAVJWString@@@Z 0046f250 f   sp_bind.obj
 0001:0006e320       ?GetFromEnableID@SPBindProp@@QAEPAVSPBindEntry@@H@Z 0046f320 f   sp_bind.obj
 0001:0006e390       ?GetFromFirstID@SPBindProp@@QAEPAVSPBindEntry@@H@Z 0046f390 f   sp_bind.obj
 0001:0006e3d0       ?GetFromMenuID@SPBindProp@@QAEPAVSPBindEntry@@H@Z 0046f3d0 f   sp_bind.obj
 0001:0006e400       ?GetFromName@SPBindProp@@QAEPAVSPBindEntry@@PAG0@Z 0046f400 f   sp_bind.obj
 0001:0006e470       ?GetGroupFromName@SPBindProp@@QAEPAVSPBindGroup@@PAG@Z 0046f470 f   sp_bind.obj
 0001:0006e4c0       ?NewGroupFromName@SPBindProp@@QAEPAVSPBindGroup@@PAG@Z 0046f4c0 f   sp_bind.obj
 0001:0006e670       ?GetMenuIndexFromID@SPBindProp@@QAEHH@Z 0046f670 f   sp_bind.obj
 0001:0006e6b0       ?ParseEntry@SPBindProp@@QAEHPAVSPGhost@@PADPAG@Z 0046f6b0 f   sp_bind.obj
 0001:0006ee40       ?CheckEntry@SPBindProp@@QAEJPAVSPGhost@@AAV?$JArray@J@@@Z 0046fe40 f   sp_bind.obj
 0001:0006f290       ?ValidateEntryFlag@SPBindProp@@QAEXPAVSPBindEntry@@PAV?$JPtrArray@PAVSPBindEntry@@@@@Z 00470290 f   sp_bind.obj
 0001:0006f2e0       ?GetThumbnail@SPBindEntry@@QAEPADPAVSPGhost@@@Z 004702e0 f   sp_bind.obj
 0001:0006f520       ?GetNotifyEntry@SPBindEntry@@QAEPAGKPAVSPGhost@@@Z 00470520 f   sp_bind.obj
 0001:0006f7f0       ??YJWString@@QAEAAV0@ABV0@@Z 004707f0 f i sp_bind.obj
 0001:0006f810       ?Add@JWString@@QAEXG@Z     00470810 f i sp_bind.obj
 0001:0006f930       ?Release@SPBindGroup@@QAEXXZ 00470930 f   sp_bind.obj
 0001:0006f940       ?Find@SPBindGroup@@QAEJPAVSPBindEntry@@@Z 00470940 f   sp_bind.obj
 0001:0006f970       ?SetOption@SPBindGroup@@QAEXPBG@Z 00470970 f   sp_bind.obj
 0001:0006f9c0       ?ValidateEntryFlag@SPBindGroup@@QAEXPAVSPBindEntry@@PAV?$JPtrArray@PAVSPBindEntry@@@@@Z 004709c0 f   sp_bind.obj
 0001:0006fcf0       ??1SPBindEntry@@QAE@XZ     00470cf0 f i sp_bind.obj
 0001:0006fd70       ?Release@SPCalendarIcon@@QAEXXZ 00470d70 f   sp_calendar.obj
 0001:0006fdf0       ?Load@SPCalendarIcon@@QAEHPAD@Z 00470df0 f   sp_calendar.obj
 0001:000701a0       ?GetSurface@SPCalendarIcon@@QAEPAVSPSurface@@PAD@Z 004711a0 f   sp_calendar.obj
 0001:000701f0       ??0SPCalendarDesc@@QAE@XZ  004711f0 f   sp_calendar.obj
 0001:000703c0       ?Release@SPCalendarDesc@@QAEXXZ 004713c0 f   sp_calendar.obj
 0001:00070420       ?Init@SPCalendarDesc@@QAEXXZ 00471420 f   sp_calendar.obj
 0001:00070570       ?LoadDescript@SPCalendarDesc@@QAEHPAD@Z 00471570 f   sp_calendar.obj
 0001:000710b0       ??4SPCalendarDesc@@QAEAAV0@AAV0@@Z 004720b0 f   sp_calendar.obj
 0001:000713d0       ?PlayTodaysEvent@SPCalendarCell@@QAEHXZ 004723d0 f   sp_calendar.obj
 0001:000717d0       ??0SPCalendar@@QAE@XZ      004727d0 f   sp_calendar.obj
 0001:00071a60       ??1SPSchedule@@QAE@XZ      00472a60 f i sp_calendar.obj
 0001:00071ad0       ??1SPCalendarProperty@@QAE@XZ 00472ad0 f i sp_calendar.obj
 0001:00071b60       ??0SPCalendarCell@@QAE@XZ  00472b60 f i sp_calendar.obj
 0001:00071bf0       ??1SPCalendarCell@@QAE@XZ  00472bf0 f i sp_calendar.obj
 0001:00071c50       ??1SPCalendar@@QAE@XZ      00472c50 f   sp_calendar.obj
 0001:00071ec0       ??1SPCalendarDesc@@QAE@XZ  00472ec0 f i sp_calendar.obj
 0001:00071fa0       ?Release@SPCalendar@@QAEXXZ 00472fa0 f   sp_calendar.obj
 0001:00071fb0       ?ReleaseSurface@SPCalendar@@QAEXXZ 00472fb0 f   sp_calendar.obj
 0001:00072040       ?Init@SPCalendar@@QAEHXZ   00473040 f   sp_calendar.obj
 0001:00072390       ?SetMonth@SPCalendar@@QAEHHHH@Z 00473390 f   sp_calendar.obj
 0001:000723d0       ?IsInMoveMonthRect@SPCalendar@@QAEHAAUtagPOINT@@H@Z 004733d0 f   sp_calendar.obj
 0001:00072440       ?MoveMonth@SPCalendar@@QAEHH@Z 00473440 f   sp_calendar.obj
 0001:000724e0       ?SetToday@SPCalendar@@QAEHXZ 004734e0 f   sp_calendar.obj
 0001:00072510       ?InitCell@SPCalendar@@IAEXXZ 00473510 f   sp_calendar.obj
 0001:00072ad0       ?GetToday@SPCalendar@@IAEXXZ 00473ad0 f   sp_calendar.obj
 0001:00072b20       ?CreateCalendar@SPCalendar@@QAEHXZ 00473b20 f   sp_calendar.obj
 0001:00073a30       ??0SPSurface@@QAE@XZ       00474a30 f i sp_calendar.obj
 0001:00073a80       ?DrawBackBuffer@SPCalendar@@QAEHXZ 00474a80 f   sp_calendar.obj
 0001:00073d40       ?DrawCell@SPCalendar@@IAEHHH@Z 00474d40 f   sp_calendar.obj
 0001:00073f40       ?DeleteYear@SPCalendar@@QAEXH@Z 00474f40 f   sp_calendar.obj
 0001:00073f70       ?DeleteMonth@SPCalendar@@QAEXHH@Z 00474f70 f   sp_calendar.obj
 0001:00074070       ?LoadSchedule@SPCalendar@@QAEHXZ 00475070 f   sp_calendar.obj
 0001:00074210       ?SelectCell@SPCalendar@@QAEHHH@Z 00475210 f   sp_calendar.obj
 0001:00074320       ?MoveCell@SPCalendar@@QAEHHH@Z 00475320 f   sp_calendar.obj
 0001:000743b0       ?GetCell@SPCalendar@@QAEPAVSPCalendarCell@@HH@Z 004753b0 f   sp_calendar.obj
 0001:000744a0       ?GetIconCell@SPCalendar@@QAEHPAVSPCalendarCell@@HH@Z 004754a0 f   sp_calendar.obj
 0001:00074550       ?Present@SPCalendar@@QAEHXZ 00475550 f   sp_calendar.obj
 0001:00074620       ?UpdateCalendar@SPCalendar@@QAEXXZ 00475620 f   sp_calendar.obj
 0001:00074640       ?NotifyTodaySchedule@SPCalendar@@QAE_NPAVSPGhost@@@Z 00475640 f   sp_calendar.obj
 0001:000748e0       ??YJWString@@QAEAAV0@PBG@Z 004758e0 f i sp_calendar.obj
 0001:00074910       ?ToString@JTime@@QAEXAAVJWString@@G@Z 00475910 f i sp_calendar.obj
 0001:00074bd0       ?GetTodaySchedule@SPCalendar@@QAE_N_N@Z 00475bd0 f   sp_calendar.obj
 0001:00074d40       ?CheckSchedule@SPCalendar@@QAEHPAVSPGhost@@HH@Z 00475d40 f   sp_calendar.obj
 0001:00075050       ?PlayScheduleEntry@SPCalendar@@QAEHPAVSPScheduleEntry@@@Z 00476050 f   sp_calendar.obj
 0001:00075240       ?PlayTodaysSchedule@SPCalendar@@QAEHXZ 00476240 f   sp_calendar.obj
 0001:00075450       ??1SPCalendarIconEntry@@QAE@XZ 00476450 f i sp_calendar.obj
 0001:000754a0       ??0SPCalendarProperty@@QAE@XZ 004764a0 f   sp_calprop.obj
 0001:00075590       ?Release@SPCalendarProperty@@QAEXXZ 00476590 f   sp_calprop.obj
 0001:000755f0       ?EnumSkins@SPCalendarProperty@@QAEHXZ 004765f0 f   sp_calprop.obj
 0001:00075790       ??1SPFolderList@@QAE@XZ    00476790 f i sp_calprop.obj
 0001:00075840       ?LoadSkinInfo@SPCalendarProperty@@IAEHPAVSPFolderListData@@@Z 00476840 f   sp_calprop.obj
 0001:00075b10       ??_GSPCalendarSkinProp@@UAEPAXI@Z 00476b10 f i sp_calprop.obj
 0001:00075b10       ??_ESPCalendarSkinProp@@UAEPAXI@Z 00476b10 f i sp_calprop.obj
 0001:00075b40       ??1SPCalendarSkinProp@@UAE@XZ 00476b40 f i sp_calprop.obj
 0001:00075bf0       ?EnumSensors@SPCalendarProperty@@QAEHXZ 00476bf0 f   sp_calprop.obj
 0001:00075db0       ?LoadSensorInfo@SPCalendarProperty@@IAEHPAVSPFolderListData@@@Z 00476db0 f   sp_calprop.obj
 0001:00076130       ??_ESPScheduleSensorProp@@UAEPAXI@Z 00477130 f i sp_calprop.obj
 0001:00076130       ??_GSPScheduleSensorProp@@UAEPAXI@Z 00477130 f i sp_calprop.obj
 0001:00076160       ??1SPScheduleSensorProp@@UAE@XZ 00477160 f i sp_calprop.obj
 0001:00076220       ?SetSkin@SPCalendarProperty@@QAEHJ@Z 00477220 f   sp_calprop.obj
 0001:00076270       ?SetSkin@SPCalendarProperty@@QAEHPAD@Z 00477270 f   sp_calprop.obj
 0001:000762b0       ?FindSkinIDFromPath@SPCalendarProperty@@QAEHPBD@Z 004772b0 f   sp_calprop.obj
 0001:000763c0       ?FindSkinIDFromRelativePath@SPCalendarProperty@@QAEHPBD@Z 004773c0 f   sp_calprop.obj
 0001:000764f0       ?_Sort@std@@YAXPAPAVSPCalendarSkinProp@@0U?$PredConverter@PAVSPCalendarSkinProp@@P6AHPAV1@0@Z@@0@Z 004774f0 f i sp_calprop.obj
 0001:00076630       ?_Sort@std@@YAXPAPAVSPScheduleSensorProp@@0U?$PredConverter@PAVSPScheduleSensorProp@@P6AHPAV1@0@Z@@0@Z 00477630 f i sp_calprop.obj
 0001:00076770       ?SPGetCharcodeReference@@YAGPAG@Z 00477770 f   sp_char.obj
 0001:000767d0       ?Notify@SPCmdNotifier@@QAEKKPAPAXKPAVSPCmdListener@@@Z 004777d0 f   sp_cmdlistener.obj
 0001:00076820       ?NotifyOne@SPCmdNotifier@@QAEKKPAPAXK@Z 00477820 f   sp_cmdlistener.obj
 0001:00076870       ?Add@SPCmdNotifier@@QAE_NPAVSPCmdListener@@_N@Z 00477870 f   sp_cmdlistener.obj
 0001:00076aa0       ?Delete@SPCmdNotifier@@QAE_NPAVSPCmdListener@@@Z 00477aa0 f   sp_cmdlistener.obj
 0001:00076bb0       ?Search@SPCmdNotifier@@QAEJPAVSPCmdListener@@@Z 00477bb0 f   sp_cmdlistener.obj
 0001:00076be0       ?Release@SPCmdNotifier@@QAEXXZ 00477be0 f   sp_cmdlistener.obj
 0001:00076c30       ?SPCDeleteFromNotify@SPCmdListener@@IAEXXZ 00477c30 f   sp_cmdlistener.obj
 0001:00076c60       ?SPCAddNotifier@SPCmdListener@@IAEXPAVSPCmdNotifier@@@Z 00477c60 f   sp_cmdlistener.obj
 0001:00076d40       ?SPCDeleteNotifier@SPCmdListener@@IAEXPAVSPCmdNotifier@@@Z 00477d40 f   sp_cmdlistener.obj
 0001:00076db0       ?Call@SPCmdListener@@SAKPAV1@KPAPAXK@Z 00477db0 f   sp_cmdlistener.obj
 0001:00076dd0       ?Set@SPColor@@QAEXHHH@Z    00477dd0 f   sp_color.obj
 0001:00076df0       ?Set@SPColor@@QAEXPBG00@Z  00477df0 f   sp_color.obj
 0001:00076e90       ?Set@SPColor@@QAEXPBG@Z    00477e90 f   sp_color.obj
 0001:00076fe0       ?Set@SPColor@@QAEXPAPBGJ@Z 00477fe0 f   sp_color.obj
 0001:00077010       ?Set@SPCommunicateData@@QAEXPAXPAVSPGhost@@PAD@Z 00478010 f   sp_communicatedata.obj
 0001:00077200       ?Set@SPCommunicateData@@QAEXAAV?$JArray@PAX@@AAV?$JPtrArray@PAVSPGhost@@@@PAD@Z 00478200 f   sp_communicatedata.obj
 0001:00077420       ?Send@SPCommunicateData@@QAEXPAVSPGhost@@@Z 00478420 f   sp_communicatedata.obj
 0001:00077590       ?Release@SPCookieClient@@QAEXXZ 00478590 f   sp_cookie.obj
 0001:000775e0       ?GetValue@SPCookieClient@@QAEPAGPAG@Z 004785e0 f   sp_cookie.obj
 0001:00077630       ?SetValue@SPCookieClient@@QAEHPAG0@Z 00478630 f   sp_cookie.obj
 0001:00077850       ?Release@SPCookie@@QAEXXZ  00478850 f   sp_cookie.obj
 0001:000778a0       ??1SPCookieClient@@QAE@XZ  004788a0 f i sp_cookie.obj
 0001:00077910       ?GetClient@SPCookie@@QAEPAVSPCookieClient@@PAGABVJSockAddr@@@Z 00478910 f   sp_cookie.obj
 0001:00077970       ?AddClient@SPCookie@@QAEPAVSPCookieClient@@PAGABVJSockAddr@@@Z 00478970 f   sp_cookie.obj
 0001:00077b30       ?Load@SPCookie@@QAEHPAD@Z  00478b30 f   sp_cookie.obj
 0001:00077eb0       ?Save@SPCookie@@QAEHXZ     00478eb0 f   sp_cookie.obj
 0001:000781a0       ??1SPCookieEntry@@QAE@XZ   004791a0 f i sp_cookie.obj
 0001:000781f0       ?Register@SPControlAdjuster@@QAEXHI@Z 004791f0 f   sp_ctrladjuster.obj
 0001:00078320       ?Release@SPControlAdjuster@@QAEXXZ 00479320 f   sp_ctrladjuster.obj
 0001:00078330       ?Init@SPControlAdjuster@@QAEXPAUHWND__@@@Z 00479330 f   sp_ctrladjuster.obj
 0001:00078370       ?OnSize@SPControlAdjuster@@QAEXXZ 00479370 f   sp_ctrladjuster.obj
 0001:00078450       ?GetSPDataPathList@@YAAAVSPDataPathList@@XZ 00479450 f   sp_datapathlist.obj
 0001:00078490       ??0SPDataPathList@@QAE@XZ  00479490 f i sp_datapathlist.obj
 0001:00078510       ?GetSPDataPathTitle@@YAPADW4SPDataPathListID@@@Z 00479510 f   sp_datapathlist.obj
 0001:00078530       ?GetSPDataPathListID@@YAPAGW4SPDataPathListID@@@Z 00479530 f   sp_datapathlist.obj
 0001:00078550       ?GetUnresolvePath@SPDataPathListData@@QAEXAAVJString@@@Z 00479550 f   sp_datapathlist.obj
 0001:000785e0       ?SetPath@SPDataPathListData@@QAEXPBD@Z 004795e0 f   sp_datapathlist.obj
 0001:000786c0       ?ProcessPath@SPDataPathListData@@SAXAAVJString@@@Z 004796c0 f   sp_datapathlist.obj
 0001:00078860       ?SetGroupName@SPDataPathListData@@QAEXPBG@Z 00479860 f   sp_datapathlist.obj
 0001:00078bf0       ??1TiXmlString@@QAE@XZ     00479bf0 f i sp_datapathlist.obj
 0001:00078bf0       ?quit@TiXmlString@@AAEXXZ  00479bf0 f i sp_datapathlist.obj
 0001:00078c10       ??1TiXmlText@@UAE@XZ       00479c10 f i sp_datapathlist.obj
 0001:00078c20       ??_ETiXmlText@@UAEPAXI@Z   00479c20 f i sp_datapathlist.obj
 0001:00078c20       ??_GTiXmlText@@UAEPAXI@Z   00479c20 f i sp_datapathlist.obj
 0001:00078c50       ??1TiXmlDeclaration@@UAE@XZ 00479c50 f i sp_datapathlist.obj
 0001:00078ca0       ?Print@TiXmlDeclaration@@UBEXPAU_iobuf@@H@Z 00479ca0 f i sp_datapathlist.obj
 0001:00078cc0       ??_GTiXmlDeclaration@@UAEPAXI@Z 00479cc0 f i sp_datapathlist.obj
 0001:00078cc0       ??_ETiXmlDeclaration@@UAEPAXI@Z 00479cc0 f i sp_datapathlist.obj
 0001:00078cf0       ??1TiXmlDocument@@UAE@XZ   00479cf0 f i sp_datapathlist.obj
 0001:00078d20       ?ToUnknown@TiXmlUnknown@@UBEPBV1@XZ 00479d20 f i sp_datapathlist.obj
 0001:00078d20       ?ToComment@TiXmlComment@@UAEPAV1@XZ 00479d20 f i sp_datapathlist.obj
 0001:00078d20       ?ToElement@TiXmlElement@@UAEPAV1@XZ 00479d20 f i sp_datapathlist.obj
 0001:00078d20       ?ToText@TiXmlText@@UBEPBV1@XZ 00479d20 f i sp_datapathlist.obj
 0001:00078d20       ?ToElement@TiXmlElement@@UBEPBV1@XZ 00479d20 f i sp_datapathlist.obj
 0001:00078d20       ?ToUnknown@TiXmlUnknown@@UAEPAV1@XZ 00479d20 f i sp_datapathlist.obj
 0001:00078d20       ?ToDocument@TiXmlDocument@@UBEPBV1@XZ 00479d20 f i sp_datapathlist.obj
 0001:00078d20       ?ToDeclaration@TiXmlDeclaration@@UAEPAV1@XZ 00479d20 f i sp_datapathlist.obj
 0001:00078d20       ?ToDocument@TiXmlDocument@@UAEPAV1@XZ 00479d20 f i sp_datapathlist.obj
 0001:00078d20       ?ToText@TiXmlText@@UAEPAV1@XZ 00479d20 f i sp_datapathlist.obj
 0001:00078d20       ?ToComment@TiXmlComment@@UBEPBV1@XZ 00479d20 f i sp_datapathlist.obj
 0001:00078d20       ?ToDeclaration@TiXmlDeclaration@@UBEPBV1@XZ 00479d20 f i sp_datapathlist.obj
 0001:00078d30       ??_GTiXmlDocument@@UAEPAXI@Z 00479d30 f i sp_datapathlist.obj
 0001:00078d30       ??_ETiXmlDocument@@UAEPAXI@Z 00479d30 f i sp_datapathlist.obj
 0001:00078d60       ?GetGroupNameFromXML@SPDataPathListData@@AAEXAAVJString@@@Z 00479d60 f   sp_datapathlist.obj
 0001:00078f00       ?GetGroupNameFromPath@SPDataPathListData@@AAEXAAVJString@@@Z 00479f00 f   sp_datapathlist.obj
 0001:00078fc0       ?Release@SPDataPathList@@QAEXXZ 00479fc0 f   sp_datapathlist.obj
 0001:00079040       ??4SPDataPathList@@QAEAAV0@AAV0@@Z 0047a040 f   sp_datapathlist.obj
 0001:00079250       ?Set@SPDataPathList@@QAEXW4SPDataPathListID@@HW4SPDataPathListStatus@@PBD@Z 0047a250 f   sp_datapathlist.obj
 0001:00079520       ??1SPDataPathListData@@QAE@XZ 0047a520 f i sp_datapathlist.obj
 0001:00079570       ?Swap@SPDataPathList@@QAEHW4SPDataPathListID@@KK@Z 0047a570 f   sp_datapathlist.obj
 0001:000795f0       ?GetToFolderList@SPDataPathList@@QAEHW4SPDataPathListID@@AAVSPFolderList@@@Z 0047a5f0 f   sp_datapathlist.obj
 0001:00079710       ?Get@SPDataPathList@@QAE?AW4SPDataPathListStatus@@W4SPDataPathListID@@KAAVJString@@@Z 0047a710 f   sp_datapathlist.obj
 0001:00079740       ?GetReal@SPDataPathList@@QAE?AW4SPDataPathListStatus@@W4SPDataPathListID@@KAAVJString@@@Z 0047a740 f   sp_datapathlist.obj
 0001:00079770       ?GetStatus@SPDataPathList@@QAE?AW4SPDataPathListStatus@@W4SPDataPathListID@@K@Z 0047a770 f   sp_datapathlist.obj
 0001:00079790       ?GetGroupName@SPDataPathList@@QAEPAGW4SPDataPathListID@@K@Z 0047a790 f   sp_datapathlist.obj
 0001:000797b0       ?SetGroupName@SPDataPathList@@QAEXW4SPDataPathListID@@KPBG@Z 0047a7b0 f   sp_datapathlist.obj
 0001:000797d0       ?GetNum@SPDataPathList@@QAEKW4SPDataPathListID@@@Z 0047a7d0 f   sp_datapathlist.obj
 0001:000797f0       ?GetEnableNum@SPDataPathList@@QAEKW4SPDataPathListID@@@Z 0047a7f0 f   sp_datapathlist.obj
 0001:00079830       ?GetFirst@SPDataPathList@@QAEHW4SPDataPathListID@@AAVJString@@@Z 0047a830 f   sp_datapathlist.obj
 0001:000798c0       ?GetTableW@SPDataPathList@@QAEPAPAGW4SPDataPathListID@@AAK@Z 0047a8c0 f   sp_datapathlist.obj
 0001:00079a60       ?Add@SPDataPathList@@QAEHW4SPDataPathListID@@PBD@Z 0047aa60 f   sp_datapathlist.obj
 0001:00079a80       ?Delete@SPDataPathList@@QAEXW4SPDataPathListID@@K@Z 0047aa80 f   sp_datapathlist.obj
 0001:00079b20       ?Clear@SPDataPathList@@QAEXW4SPDataPathListID@@@Z 0047ab20 f   sp_datapathlist.obj
 0001:00079b90       ?Find@SPDataPathList@@QAEHW4SPDataPathListID@@PAD@Z 0047ab90 f   sp_datapathlist.obj
 0001:00079c60       ?Load@SPDataPathList@@QAEXAAVSPSettings@@@Z 0047ac60 f   sp_datapathlist.obj
 0001:00079fb0       ?Save@SPDataPathList@@QAEXAAVSPSettings@@@Z 0047afb0 f   sp_datapathlist.obj
 0001:0007a1d0       ?CheckPathIsOK@SPDataPathList@@QAEHPAD@Z 0047b1d0 f   sp_datapathlist.obj
 0001:0007a300       ?SPSEDefaultFilter@@YGJPAU_EXCEPTION_POINTERS@@@Z 0047b300 f   sp_debugger.obj
 0001:0007a920       ?WriteEnvironment@@YAHPAD@Z 0047b920 f   sp_debugger.obj
 0001:0007b100       ?SPGetExceptionReasonTextA@@YAPADK@Z 0047c100 f   sp_debugger.obj
 0001:0007b150       ?SPGetExceptionReasonTextW@@YAPAGK@Z 0047c150 f   sp_debugger.obj
 0001:0007b5b0       ??1SPVersionInfo@@QAE@XZ   0047c5b0 f i sp_debugger.obj
 0001:0007bf00       ??0SPDecoder@@QAE@XZ       0047cf00 f   sp_decode.obj
 0001:0007bfb0       ??1SPDecoder@@QAE@XZ       0047cfb0 f   sp_decode.obj
 0001:0007bff0       ?MakeTempName@SPDecoder@@AAEXXZ 0047cff0 f   sp_decode.obj
 0001:0007c020       ?DecodeWithSearch@SPDecoder@@QAEPADPADDH@Z 0047d020 f   sp_decode.obj
 0001:0007c1a0       ?Decode@SPDecoder@@QAEPADPADH@Z 0047d1a0 f   sp_decode.obj
 0001:0007c2a0       ?Decode_D@SPDecoder@@AAEHPAD0HH@Z 0047d2a0 f   sp_decode.obj
 0001:0007c590       ?Decode_F@SPDecoder@@AAEHPAD0H@Z 0047d590 f   sp_decode.obj
 0001:0007c950       ?Decode_G@SPDecoder@@AAEHPAD0H@Z 0047d950 f   sp_decode.obj
 0001:0007cdf0       ?Load@SPDeleteTxt@@QAEHPAD@Z 0047ddf0 f   sp_deletetxt.obj
 0001:0007cfc0       ?Find@SPDeleteTxt@@QAEHPAD@Z 0047dfc0 f   sp_deletetxt.obj
 0001:0007d050       ?Execute@SPDeleteTxt@@QAEHPAD@Z 0047e050 f   sp_deletetxt.obj
 0001:0007d250       ?ProcessPath@SPDeleteTxt@@CAHAAVJWString@@@Z 0047e250 f   sp_deletetxt.obj
 0001:0007d2c0       ?Copy@SPDIBStretchCopy32@@SAXPAVJSurface@@0AAV?$JArray@K@@IIHH@Z 0047e2c0 f   sp_dibstretchcopy.obj
 0001:0007d4b0       ?GetSPDigest@@YAAAVSPDigest@@W4SPDigest_Type@@@Z 0047e4b0 f   sp_digest.obj
 0001:0007d610       ??0SPDigestMD5@@QAE@XZ     0047e610 f i sp_digest.obj
 0001:0007d630       ?Update@SPDigestMD5@@UAEXPBD@Z 0047e630 f i sp_digest.obj
 0001:0007d660       ?Update@SPDigestMD5@@UAEXPBXK@Z 0047e660 f i sp_digest.obj
 0001:0007d6b0       ?GetDigest@SPDigestMD5@@UAEPBEXZ 0047e6b0 f i sp_digest.obj
 0001:0007d770       ?GetDigestStr@SPDigestMD5@@UAEPBDXZ 0047e770 f i sp_digest.obj
 0001:0007d780       ??_ESPDigestMD5@@UAEPAXI@Z 0047e780 f i sp_digest.obj
 0001:0007d780       ??_GSPDigestMD5@@UAEPAXI@Z 0047e780 f i sp_digest.obj
 0001:0007d7b0       ??1SPDigestMD5@@UAE@XZ     0047e7b0 f i sp_digest.obj
 0001:0007d7b0       ??1SPDigestSHA512@@UAE@XZ  0047e7b0 f i sp_digest.obj
 0001:0007d7b0       ??1SPDigestSHA224@@UAE@XZ  0047e7b0 f i sp_digest.obj
 0001:0007d7b0       ??1SPDigestSHA256@@UAE@XZ  0047e7b0 f i sp_digest.obj
 0001:0007d7b0       ??1SPDigestSHA384@@UAE@XZ  0047e7b0 f i sp_digest.obj
 0001:0007d7b0       ??1SPDigestSHA1@@UAE@XZ    0047e7b0 f i sp_digest.obj
 0001:0007d7c0       ??_GSPDigest@@UAEPAXI@Z    0047e7c0 f i sp_digest.obj
 0001:0007d7c0       ??_ESPDigest@@UAEPAXI@Z    0047e7c0 f i sp_digest.obj
 0001:0007d7f0       ??0SPDigestSHA1@@QAE@XZ    0047e7f0 f i sp_digest.obj
 0001:0007d810       ?Update@SPDigestSHA1@@UAEXPBD@Z 0047e810 f i sp_digest.obj
 0001:0007d840       ?Update@SPDigestSHA1@@UAEXPBXK@Z 0047e840 f i sp_digest.obj
 0001:0007d890       ?GetDigest@SPDigestSHA1@@UAEPBEXZ 0047e890 f i sp_digest.obj
 0001:0007d900       ?GetDigestStr@SPDigestSHA1@@UAEPBDXZ 0047e900 f i sp_digest.obj
 0001:0007d910       ??_GSPDigestSHA224@@UAEPAXI@Z 0047e910 f i sp_digest.obj
 0001:0007d910       ??_ESPDigestSHA512@@UAEPAXI@Z 0047e910 f i sp_digest.obj
 0001:0007d910       ??_ESPDigestSHA384@@UAEPAXI@Z 0047e910 f i sp_digest.obj
 0001:0007d910       ??_ESPDigestSHA224@@UAEPAXI@Z 0047e910 f i sp_digest.obj
 0001:0007d910       ??_ESPDigestSHA256@@UAEPAXI@Z 0047e910 f i sp_digest.obj
 0001:0007d910       ??_GSPDigestSHA512@@UAEPAXI@Z 0047e910 f i sp_digest.obj
 0001:0007d910       ??_GSPDigestSHA256@@UAEPAXI@Z 0047e910 f i sp_digest.obj
 0001:0007d910       ??_GSPDigestSHA1@@UAEPAXI@Z 0047e910 f i sp_digest.obj
 0001:0007d910       ??_ESPDigestSHA1@@UAEPAXI@Z 0047e910 f i sp_digest.obj
 0001:0007d910       ??_GSPDigestSHA384@@UAEPAXI@Z 0047e910 f i sp_digest.obj
 0001:0007d940       ??0SPDigestSHA224@@QAE@XZ  0047e940 f i sp_digest.obj
 0001:0007d960       ?Update@SPDigestSHA224@@UAEXPBD@Z 0047e960 f i sp_digest.obj
 0001:0007d990       ?Update@SPDigestSHA224@@UAEXPBXK@Z 0047e990 f i sp_digest.obj
 0001:0007d9e0       ?GetDigest@SPDigestSHA224@@UAEPBEXZ 0047e9e0 f i sp_digest.obj
 0001:0007da50       ?GetDigestStr@SPDigestSHA224@@UAEPBDXZ 0047ea50 f i sp_digest.obj
 0001:0007da60       ??0SPDigestSHA256@@QAE@XZ  0047ea60 f i sp_digest.obj
 0001:0007da80       ?Update@SPDigestSHA256@@UAEXPBD@Z 0047ea80 f i sp_digest.obj
 0001:0007dab0       ?Update@SPDigestSHA256@@UAEXPBXK@Z 0047eab0 f i sp_digest.obj
 0001:0007db00       ?GetDigest@SPDigestSHA256@@UAEPBEXZ 0047eb00 f i sp_digest.obj
 0001:0007db70       ?GetDigestStr@SPDigestSHA256@@UAEPBDXZ 0047eb70 f i sp_digest.obj
 0001:0007db80       ??0SPDigestSHA384@@QAE@XZ  0047eb80 f i sp_digest.obj
 0001:0007dba0       ?Update@SPDigestSHA384@@UAEXPBD@Z 0047eba0 f i sp_digest.obj
 0001:0007dbd0       ?Update@SPDigestSHA384@@UAEXPBXK@Z 0047ebd0 f i sp_digest.obj
 0001:0007dc20       ?GetDigest@SPDigestSHA384@@UAEPBEXZ 0047ec20 f i sp_digest.obj
 0001:0007dc90       ?GetDigestStr@SPDigestSHA384@@UAEPBDXZ 0047ec90 f i sp_digest.obj
 0001:0007dca0       ??0SPDigestSHA512@@QAE@XZ  0047eca0 f i sp_digest.obj
 0001:0007dcc0       ?Update@SPDigestSHA512@@UAEXPBD@Z 0047ecc0 f i sp_digest.obj
 0001:0007dcf0       ?Update@SPDigestSHA512@@UAEXPBXK@Z 0047ecf0 f i sp_digest.obj
 0001:0007dd40       ?GetDigest@SPDigestSHA512@@UAEPBEXZ 0047ed40 f i sp_digest.obj
 0001:0007ddb0       ?GetDigestStr@SPDigestSHA512@@UAEPBDXZ 0047edb0 f i sp_digest.obj
 0001:0007de20       ?GetStrDigest@SPDigest@@SIXW4SPDigest_Type@@AAVJString@@PBDI@Z 0047ee20 f   sp_digest.obj
 0001:0007de60       ?GetStrDigest@SPDigest@@SIXW4SPDigest_Type@@PADPBDI@Z 0047ee60 f   sp_digest.obj
 0001:0007deb0       ?Get0ByteDigestStr@SPDigest@@SIPBDW4SPDigest_Type@@@Z 0047eeb0 f   sp_digest.obj
 0001:0007e180       ?GetFileDigest@SPDigest@@SI_NW4SPDigest_Type@@PAD1PAI@Z 0047f180 f   sp_digest.obj
 0001:0007e330       ?GetHMAC@SPDigest@@SIXPADPBD11@Z 0047f330 f   sp_digest.obj
 0001:0007e3e0       ?QueryUser@SPDirServProp@@QAEHPAVSPMessengerUser@@@Z 0047f3e0 f   sp_dirserv.obj
 0001:0007e840       ??1SPParamManager@@QAE@XZ  0047f840 f i sp_dirserv.obj
 0001:0007e8a0       ?OnOK@CSurfaceTest@@MAEXXZ 0047f8a0 f   sp_dirserv.obj
 0001:0007e8a0       _png_init_read_transformations 0047f8a0 f   sp_dirserv.obj
 0001:0007e8a0       ?Release@SPDirServLogon@@QAEXXZ 0047f8a0 f   sp_dirserv.obj
 0001:0007e8a0       ??1SPSystemInfo@@QAE@XZ    0047f8a0 f   sp_dirserv.obj
 0001:0007e8a0       _jpeg_mem_term             0047f8a0 f   sp_dirserv.obj
 0001:0007e8a0       ?OnChangeScheduleCaption@CScheduleDlg@@IAEXXZ 0047f8a0 f   sp_dirserv.obj
 0001:0007e8a0       ?OnOK@CDevPalette@@MAEXXZ  0047f8a0 f   sp_dirserv.obj
 0001:0007e8a0       ?Release@SPDirServProp@@QAEXXZ 0047f8a0 f   sp_dirserv.obj
 0001:0007e8a0       ?CompleteCommonData@SPGhostTimeEntry@@QAEXXZ 0047f8a0 f   sp_dirserv.obj
 0001:0007e8a0       ?OnChangeScheduleSubtitle@CScheduleDlg@@IAEXXZ 0047f8a0 f   sp_dirserv.obj
 0001:0007e8a0       ?OnChangeScheduleScript@CScheduleDlg@@IAEXXZ 0047f8a0 f   sp_dirserv.obj
 0001:0007e8b0       ?Start@SPDirServLogon@@UAEXXZ 0047f8b0 f   sp_dirserv.obj
 0001:0007e8e0       ?Loop@SPDirServLogon@@UAEHXZ 0047f8e0 f   sp_dirserv.obj
 0001:0007ed60       ?Logon@SPDirServLogon@@QAEHPAD00@Z 0047fd60 f   sp_dirserv.obj
 0001:0007edc0       ?Update@SPDirServLogon@@QAEHXZ 0047fdc0 f   sp_dirserv.obj
 0001:0007ee00       ?Logoff@SPDirServLogon@@QAEHXZ 0047fe00 f   sp_dirserv.obj
 0001:0007ee30       ?GetSPDirServManager@@YAAAVSPDirServManager@@XZ 0047fe30 f   sp_dirserv.obj
 0001:0007ee80       ??1SPDirServManager@@QAE@XZ 0047fe80 f i sp_dirserv.obj
 0001:0007ef40       ??0SPDirServManager@@QAE@XZ 0047ff40 f   sp_dirserv.obj
 0001:0007f030       ?Release@SPDirServManager@@QAEXXZ 00480030 f   sp_dirserv.obj
 0001:0007f110       ?GetService@SPDirServManager@@QAEPAVSPDirServProp@@PAD@Z 00480110 f   sp_dirserv.obj
 0001:0007f190       ?GetServiceByAddress@SPDirServManager@@QAEPAVSPDirServProp@@PAD@Z 00480190 f   sp_dirserv.obj
 0001:0007f210       ?GetLogon@SPDirServManager@@QAEPAVSPDirServLogon@@PAVSPDirServProp@@@Z 00480210 f   sp_dirserv.obj
 0001:0007f250       ?DeleteService@SPDirServManager@@QAEHPAVSPDirServProp@@@Z 00480250 f   sp_dirserv.obj
 0001:0007f320       ?AddService@SPDirServManager@@QAEHPAD00H@Z 00480320 f   sp_dirserv.obj
 0001:0007f530       ?Logon@SPDirServManager@@QAEHPAVSPDirServProp@@@Z 00480530 f   sp_dirserv.obj
 0001:0007f7a0       ??_ESPDirServLogon@@UAEPAXI@Z 004807a0 f i sp_dirserv.obj
 0001:0007f7a0       ??_GSPDirServLogon@@UAEPAXI@Z 004807a0 f i sp_dirserv.obj
 0001:0007f7d0       ??1SPDirServLogon@@UAE@XZ  004807d0 f i sp_dirserv.obj
 0001:0007f840       ?Logoff@SPDirServManager@@QAEHPAVSPDirServProp@@@Z 00480840 f   sp_dirserv.obj
 0001:0007f870       ?AutoLogon@SPDirServManager@@QAEHXZ 00480870 f   sp_dirserv.obj
 0001:0007f8b0       ?UpdateLogon@SPDirServManager@@QAEHXZ 004808b0 f   sp_dirserv.obj
 0001:0007f910       ?Load@SPDirServManager@@QAEHPAD@Z 00480910 f   sp_dirserv.obj
 0001:0007fb80       ?Save@SPDirServManager@@QAEHXZ 00480b80 f   sp_dirserv.obj
 0001:0007fe20       ??0?$JArray@UtagSPParamEntry@@@@QAE@K@Z 00480e20 f i sp_dirserv.obj
 0001:0007fe90       ?InternalLoad@SPDynLoad@@AAE_NXZ 00480e90 f   sp_dynload.obj
 0001:0007fec0       ?InternalUnload@SPDynLoad@@AAEXXZ 00480ec0 f   sp_dynload.obj
 0001:0007fee0       ?GetProc@SPDynLoad@@QAEPAXPBD@Z 00480ee0 f   sp_dynload.obj
 0001:0007ff10       ??0SPEnumString@@QAE@PAUIUnknown@@KPAPAGPAUIMalloc@@@Z 00480f10 f   sp_enumstring.obj
 0001:0007ffd0       ??1SPEnumString@@QAE@XZ    00480fd0 f   sp_enumstring.obj
 0001:00080070       ?QueryInterface@SPEnumString@@UAGJABU_GUID@@PAPAX@Z 00481070 f   sp_enumstring.obj
 0001:000800d0       ?AddRef@SPEnumString@@UAGKXZ 004810d0 f   sp_enumstring.obj
 0001:00080100       ?Release@SPEnumString@@UAGKXZ 00481100 f   sp_enumstring.obj
 0001:00080150       ?Next@SPEnumString@@UAGJKPAPAGPAK@Z 00481150 f   sp_enumstring.obj
 0001:00080270       ?Skip@SPEnumString@@UAGJK@Z 00481270 f   sp_enumstring.obj
 0001:000802b0       ?Reset@SPEnumString@@UAGJXZ 004812b0 f   sp_enumstring.obj
 0001:000802d0       ?Clone@SPEnumString@@UAGJPAPAUIEnumString@@@Z 004812d0 f   sp_enumstring.obj
 0001:00080380       ?Release@SPEventObject@@QAEXXZ 00481380 f   sp_eventobj.obj
 0001:000803a0       ?Create@SPEventObject@@QAE_N_N0@Z 004813a0 f   sp_eventobj.obj
 0001:00080410       ?Wait@SPEventObject@@QAE_NJ@Z 00481410 f   sp_eventobj.obj
 0001:00080460       ?WaitPump@SPEventObject@@QAE_NJ@Z 00481460 f   sp_eventobj.obj
 0001:000804b0       ?Pulse@SPEventObject@@QAEXXZ 004814b0 f   sp_eventobj.obj
 0001:000804c0       ?Activate@SPEventObject@@QAEXXZ 004814c0 f   sp_eventobj.obj
 0001:000804d0       ?DeActivate@SPEventObject@@QAEXXZ 004814d0 f   sp_eventobj.obj
 0001:000804e0       ?SetThru@SPEventObject@@QAEX_N@Z 004814e0 f   sp_eventobj.obj
 0001:00080500       ?Init@SPFileDialog@@AAEXXZ 00481500 f   sp_filedialog.obj
 0001:00080540       ?SetOpenFile@SPFileDialog@@QAEXPAD00@Z 00481540 f   sp_filedialog.obj
 0001:000805c0       ?SetSaveFile@SPFileDialog@@QAEXPAD0000@Z 004815c0 f   sp_filedialog.obj
 0001:00080680       ?DoModal@SPFileDialog@@QAEHPAUHWND__@@@Z 00481680 f   sp_filedialog.obj
 0001:000806d0       ?Get@SPFileTime@@QAEHPAD@Z 004816d0 f   sp_filetime.obj
 0001:00080740       ?Set@SPFileTime@@QAEHPADI@Z 00481740 f   sp_filetime.obj
 0001:000807e0       ?Close@SPFindFile@@QAEXXZ  004817e0 f   sp_findfile.obj
 0001:00080810       ?First@SPFindFile@@QAE_NPBD@Z 00481810 f   sp_findfile.obj
 0001:000809e0       ?Next@SPFindFile@@QAE_NXZ  004819e0 f   sp_findfile.obj
 0001:00080a90       ?IsDir@SPFindFile@@QAE_NXZ 00481a90 f   sp_findfile.obj
 0001:00080aa0       ?Set@SPFolderDialog@@QAEXPAD0@Z 00481aa0 f   sp_folderdialog.obj
 0001:00080ae0       ?BrowseCallbackProc@SPFolderDialog@@CGHPAUHWND__@@IJJ@Z 00481ae0 f   sp_folderdialog.obj
 0001:00080b10       ?DoModal@SPFolderDialog@@QAEHPAUHWND__@@@Z 00481b10 f   sp_folderdialog.obj
 0001:00080cb0       ?GetUnresolvePath@SPFolderListData@@QAEPADXZ 00481cb0 f   sp_folderlist.obj
 0001:00080cc0       ?SetSPProp@SPFolderListData@@QAEXPAVSPProp@@@Z 00481cc0 f   sp_folderlist.obj
 0001:00080d10       ?Release@SPFolderList@@QAEXXZ 00481d10 f   sp_folderlist.obj
 0001:00080db0       ??1SPFolderListData@@QAE@XZ 00481db0 f i sp_folderlist.obj
 0001:00080e10       ?AddFromFolder@SPFolderList@@QAEXPADPAG@Z 00481e10 f   sp_folderlist.obj
 0001:00081460       ?MakeList@SPFolderList@@QAEKXZ 00482460 f   sp_folderlist.obj
 0001:00081560       ??ASPFolderList@@QAEPAVSPFolderListData@@K@Z 00482560 f   sp_folderlist.obj
 0001:00081580       ?FindPath@SPFolderList@@QAEHPAD@Z 00482580 f   sp_folderlist.obj
 0001:000816d0       ?GetThumbnail@SPRecommendProp@@QAEPADPAVSPGhost@@@Z 004826d0 f   sp_ghost.obj
 0001:00081950       ?VarGet@SPShellProp@@UAE_NPAVSPGhost@@PAGAAVJWString@@PAVSPVarSystemNode@@@Z 00482950 f   sp_ghost.obj
 0001:000819c0       ?VarSet@SPShellProp@@UAE_NPAVSPGhost@@PAG1PAVSPVarSystemNode@@@Z 004829c0 f   sp_ghost.obj
 0001:000819e0       ?ReadDescript@SPShellProp@@UAEHXZ 004829e0 f   sp_ghost.obj
 0001:00081d30       ??0SPGhost@@QAE@XZ         00482d30 f   sp_ghost.obj
 0001:00082600       ?Alloc@JWString@@QAEXK@Z   00483600 f i sp_ghost.obj
 0001:00082770       ??0JDummyLockSection@@QAE@XZ 00483770 f i sp_ghost.obj
 0001:00082780       ??1SPSurfaceManager@@QAE@XZ 00483780 f i sp_ghost.obj
 0001:000827d0       ??_ESPGhost@@UAEPAXI@Z     004837d0 f i sp_ghost.obj
 0001:000827d0       ??_GSPGhost@@UAEPAXI@Z     004837d0 f i sp_ghost.obj
 0001:00082800       ??1SPGhost@@UAE@XZ         00483800 f   sp_ghost.obj
 0001:00082dd0       ?UnloadCompatibleData@SPGhost@@AAEXXZ 00483dd0 f   sp_ghost.obj
 0001:00082ef0       ??1SPTiming@@QAE@XZ        00483ef0 f i sp_ghost.obj
 0001:00082f50       ??1SPScript@@QAE@XZ        00483f50 f i sp_ghost.obj
 0001:00082fe0       ??1SPSong@@QAE@XZ          00483fe0 f i sp_ghost.obj
 0001:00083040       ??1SPNews@@QAE@XZ          00484040 f i sp_ghost.obj
 0001:00083100       ?ReleaseRecommendations@SPGhost@@AAEXH@Z 00484100 f   sp_ghost.obj
 0001:000831e0       ?Release@SPGhost@@QAEXXZ   004841e0 f   sp_ghost.obj
 0001:00083310       ?ReloadShiori@SPGhost@@QAEHXZ 00484310 f   sp_ghost.obj
 0001:00083350       ?ReloadMakoto@SPGhost@@QAEHXZ 00484350 f   sp_ghost.obj
 0001:000833b0       ?GetRecommendations@SPGhost@@QAEPAV?$JPtrArray@PAVSPRecommendProp@@@@H@Z 004843b0 f   sp_ghost.obj
 0001:000833e0       ?GetRecommendationsNum@SPGhost@@QAEKH@Z 004843e0 f   sp_ghost.obj
 0001:00083400       ?AddRecommendations@SPGhost@@QAEPAV?$JPtrArray@PAVSPRecommendProp@@@@H@Z 00484400 f   sp_ghost.obj
 0001:00083500       ?EnumRecommendations@SPGhost@@QAEHH@Z 00484500 f   sp_ghost.obj
 0001:00083b70       ?CheckRecommendationsNew@SPGhost@@AAEHHPAV?$JPtrArray@PAVSPRecommendProp@@@@PAG1@Z 00484b70 f   sp_ghost.obj
 0001:00083e30       ?EnumRecommendationsNew@SPGhost@@QAEHH@Z 00484e30 f   sp_ghost.obj
 0001:00083f70       ?EnumShells@SPGhost@@QAEHXZ 00484f70 f   sp_ghost.obj
 0001:00084250       ?LoadShellInfo@SPGhost@@AAEHPAVSPFolderListData@@@Z 00485250 f   sp_ghost.obj
 0001:00084560       ??_ESPShellProp@@UAEPAXI@Z 00485560 f i sp_ghost.obj
 0001:00084560       ??_GSPShellProp@@UAEPAXI@Z 00485560 f i sp_ghost.obj
 0001:00084590       ??1SPShellProp@@UAE@XZ     00485590 f i sp_ghost.obj
 0001:00084660       ?EnumSurfaceSetAsShell@SPGhost@@QAEHXZ 00485660 f   sp_ghost.obj
 0001:00084a50       ?FindLastInstalled@SPGhost@@QAEHI@Z 00485a50 f   sp_ghost.obj
 0001:00084b60       ?GetPropPtr@SPGhost@@QAEPAVSPProp@@IH@Z 00485b60 f   sp_ghost.obj
 0001:00084c30       ?FindShellIDFromPath@SPGhost@@QAEJPAD@Z 00485c30 f   sp_ghost.obj
 0001:00084c60       ?FindShellIDFromName@SPGhost@@QAEJPAG@Z 00485c60 f   sp_ghost.obj
 0001:00084cb0       ?SetTrayIconName@SPGhost@@AAEHPAG@Z 00485cb0 f   sp_ghost.obj
 0001:00084e20       ?SetTrayBalloon@SPGhost@@AAEHPAG@Z 00485e20 f   sp_ghost.obj
 0001:00085010       ?LoadGhost@SPGhost@@QAEHJH@Z 00486010 f   sp_ghost.obj
 0001:000859c0       ?ReloadGhost@SPGhost@@QAEHXZ 004869c0 f   sp_ghost.obj
 0001:00085a10       ?ReloadShellWait@SPGhost@@QAEHXZ 00486a10 f   sp_ghost.obj
 0001:00085a60       ?ReloadShell@SPGhost@@QAEHXZ 00486a60 f   sp_ghost.obj
 0001:00085a90       ?ReloadBalloon@SPGhost@@QAEHXZ 00486a90 f   sp_ghost.obj
 0001:00085ad0       ?ReloadDescript@SPGhost@@QAE_NPBG@Z 00486ad0 f   sp_ghost.obj
 0001:00085b90       ?ModuleUnload@SPGhost@@QAEXH@Z 00486b90 f   sp_ghost.obj
 0001:00085c00       ?ModuleUnloadDirectly@SPGhost@@QAEXXZ 00486c00 f   sp_ghost.obj
 0001:00085c30       ?LoadAfterModuleUnload@SPGhost@@QAEXXZ 00486c30 f   sp_ghost.obj
 0001:00085c90       ?LoadShell@SPGhost@@QAEHPADH@Z 00486c90 f   sp_ghost.obj
 0001:00086030       ?GetBalloonIDFromSetting@SPGhost@@QAEJXZ 00487030 f   sp_ghost.obj
 0001:000861a0       ?LoadGhostCore@SPGhost@@QAEXH@Z 004871a0 f   sp_ghost.obj
 0001:00086340       ?LoadMakotoGhost@SPGhost@@QAEHXZ 00487340 f   sp_ghost.obj
 0001:00086410       ?LoadMakotoShell@SPGhost@@QAEHXZ 00487410 f   sp_ghost.obj
 0001:00086510       ?LoadShiori@SPGhost@@QAEHH@Z 00487510 f   sp_ghost.obj
 0001:00086840       ?UnloadShiori@SPGhost@@QAEHH@Z 00487840 f   sp_ghost.obj
 0001:000868a0       ?UnloadMakotoGhost@SPGhost@@QAEXXZ 004878a0 f   sp_ghost.obj
 0001:000868e0       ?UnloadMakotoShell@SPGhost@@QAEXXZ 004878e0 f   sp_ghost.obj
 0001:00086920       ?LoadPiro@SPGhost@@QAEHXZ  00487920 f   sp_ghost.obj
 0001:00086b70       ?SetCompatibleMode@SPGhost@@QAEHHH@Z 00487b70 f   sp_ghost.obj
 0001:00087200       ?LoadShell@SPGhost@@QAEHJH@Z 00488200 f   sp_ghost.obj
 0001:000872f0       ?SaveShellSetting@SPGhost@@AAEXXZ 004882f0 f   sp_ghost.obj
 0001:00087340       ?GetODMFromShiori@SPGhost@@QAEHH@Z 00488340 f   sp_ghost.obj
 0001:00087910       ?LoadDescript@SPGhost@@QAE_NPAD@Z 00488910 f   sp_ghost.obj
 0001:00087e80       ?LoadDescriptOverride@SPGhost@@QAEHPADH@Z 00488e80 f   sp_ghost.obj
 0001:00088250       ?FindInstallAccept@SPGhost@@QAEHPAG@Z 00489250 f   sp_ghost.obj
 0001:000882d0       ?GetBalloonCursor@SPGhost@@QAEPAX_N@Z 004892d0 f   sp_ghost.obj
 0001:00088310       ?GetGhostCursor@SPGhost@@QAEPAX_N@Z 00489310 f   sp_ghost.obj
 0001:00088340       ?LoadBalloon@SPGhost@@QAEHJ@Z 00489340 f   sp_ghost.obj
 0001:00088560       ?DecodeEntity@SPGhost@@SIXAAVJWString@@@Z 00489560 f   sp_ghost.obj
 0001:00088730       ?NormalizeUnicodeStringC@SPGhost@@QAEXAAVJWString@@@Z 00489730 f   sp_ghost.obj
 0001:00088860       ?MoveCharWindow@SPGhost@@AAEXJAAVSPGhostMoveInfo@@_N@Z 00489860 f   sp_ghost.obj
 0001:00088880       ?HideChars@SPGhost@@QAEXXZ 00489880 f   sp_ghost.obj
 0001:00088890       ?ParseParameters@SPGhost@@SIHAAVJWString@@IAAV?$JArray@G@@AAJ@Z 00489890 f   sp_ghost.obj
 0001:00088bd0       ?ParametersToArray@SPGhost@@SIXPAGAAV?$JPtrArray@PAG@@@Z 00489bd0 f   sp_ghost.obj
 0001:00088dd0       ?ParseBracket@SPGhost@@SIHAAVJWString@@IAAV?$JArray@G@@@Z 00489dd0 f   sp_ghost.obj
 0001:00089030       ?ShowHideCharBalloon@SPGhost@@AAEXJ@Z 0048a030 f   sp_ghost.obj
 0001:00089080       ?ScanScriptToShowBalloon@SPGhost@@AAEHPBG_N@Z 0048a080 f   sp_ghost.obj
 0001:000893c0       ?DecodeProcClearState@SPGhost@@AAEXXZ 0048a3c0 f   sp_ghost.obj
 0001:000893f0       ?MoveCharAwayClose@SPGhost@@AAEXHHH@Z 0048a3f0 f   sp_ghost.obj
 0001:00089730       ??1SPGhostMoveInfo@@QAE@XZ 0048a730 f i sp_ghost.obj
 0001:000897b0       ?DecodeProcAnimeExec@SPGhost@@AAEKAAVJWString@@KAAV?$JArray@J@@AAH@Z 0048a7b0 f   sp_ghost.obj
 0001:00089970       ?DecodeProc@SPGhost@@AAEHAAVJWString@@PAVSPScriptQueueData@@@Z 0048a970 f   sp_ghost.obj
 0001:0008c000       ?GetGhostIDFromTag@SPGhost@@QAEJPAG_N@Z 0048d000 f   sp_ghost.obj
 0001:0008c270       ?ExecuteChange@SPGhost@@QAEHPAG0_N@Z 0048d270 f   sp_ghost.obj
 0001:0008c550       ?ExecuteExclamationTag@SPGhost@@AAEXPAGJJAAVJWString@@AAJJ@Z 0048d550 f   sp_ghost.obj
 0001:0008f080       ??1SPGhostRaiseTimerBlock@@QAE@XZ 00490080 f   sp_ghost.obj
 0001:0008f100       ?ExecuteRaiseTimer@SPGhost@@QAEXPAVSPGhostRaiseTimerBlock@@@Z 00490100 f   sp_ghost.obj
 0001:0008f1e0       ?ExecuteRaise@SPGhost@@QAEXPBGPAGJ@Z 004901e0 f   sp_ghost.obj
 0001:0008f600       ?ExecuteRaiseReal@SPGhost@@QAEXPBGPAGJ@Z 00490600 f   sp_ghost.obj
 0001:0008fe90       ?TranslateParam@SPGhost@@AAEXAAVJWString@@@Z 00490e90 f   sp_ghost.obj
 0001:00090d40       ?GetIconName@SPGhost@@QAE_NAAVJString@@@Z 00491d40 f   sp_ghost.obj
 0001:00090f00       ?GetIconMinimizeName@SPGhost@@QAE_NAAVJString@@@Z 00491f00 f   sp_ghost.obj
 0001:000910d0       ?UpdateMe@SPGhost@@QAEXPBG@Z 004920d0 f   sp_ghost.obj
 0001:000915c0       ??0JString@@QAE@PBD@Z      004925c0 f i sp_ghost.obj
 0001:00091610       ??0JWString@@QAE@PBG@Z     00492610 f i sp_ghost.obj
 0001:00091660       ??1SPUpdateListener@@UAE@XZ 00492660 f i sp_ghost.obj
 0001:00091700       ??_ESPUpdateListener@@UAEPAXI@Z 00492700 f i sp_ghost.obj
 0001:00091700       ??_GSPUpdateListener@@UAEPAXI@Z 00492700 f i sp_ghost.obj
 0001:00091730       ?GetUpdateURL@SPGhost@@QAE?AW4SPHttp_Type@@PAVJString@@0@Z 00492730 f   sp_ghost.obj
 0001:00091910       ?GetStatusText@SPGhost@@QAEPBGXZ 00492910 f   sp_ghost.obj
 0001:00091a50       ?ExecuteCommonDialog@SPGhost@@AAEXPBG0@Z 00492a50 f   sp_ghost.obj
 0001:00092790       ?ExecuteHttpGet@SPGhost@@AAEX_NPBG@Z 00493790 f   sp_ghost.obj
 0001:00093640       ?CheckString@SPGhost@@CAKPBG0@Z 00494640 f   sp_ghost.obj
 0001:00093680       ?Exit@SPGhost@@UAEHXZ      00494680 f   sp_ghost.obj
 0001:00093730       ?MakeVarPath@SPGhost@@AAE_NAAVJString@@@Z 00494730 f   sp_ghost.obj
 0001:000937c0       ?SetPriority@SPGhost@@QAEXXZ 004947c0 f   sp_ghost.obj
 0001:000937e0       ?SetPriorityAnimation@SPSerikoAnimation@@QAEXXZ 004947e0 f   sp_ghost.obj
 0001:000937e0       ?SetPriorityScript@SPGhost@@QAEXXZ 004947e0 f   sp_ghost.obj
 0001:00093800       ?Loop@SPGhost@@UAEHXZ      00494800 f   sp_ghost.obj
 0001:00093da0       ?TranslateScript@SPGhost@@QAEXAAVJWString@@PBG@Z 00494da0 f   sp_ghost.obj
 0001:00093e80       ?IsExecuteJumpString@SPGhost@@SIHPAG@Z 00494e80 f   sp_ghost.obj
 0001:00093f20       ?ExecuteJump@SPGhost@@QAEHPAD@Z 00494f20 f   sp_ghost.obj
 0001:00093ff0       ?ExecuteJump@SPGhost@@QAEHPAG@Z 00494ff0 f   sp_ghost.obj
 0001:00094020       ?ExecuteJumpFromBalloonStr@SPGhost@@QAEHPAVSPBalloonString@@@Z 00495020 f   sp_ghost.obj
 0001:00094130       ?ExecuteJumpExec@SPGhost@@AAEHPAGH@Z 00495130 f   sp_ghost.obj
 0001:00094380       ?PlayEntry@SPGhost@@QAEHPAGKKK@Z 00495380 f   sp_ghost.obj
 0001:000943f0       ?PlayEntry2@SPGhost@@QAEHPAG0KK@Z 004953f0 f   sp_ghost.obj
 0001:00094520       ?PlayEntryJump@SPGhost@@QAEHPAG0J@Z 00495520 f   sp_ghost.obj
 0001:00094620       ?PlayScript@SPGhost@@QAEHVSPShioriEventResult@@KKKPAVSPCmdListener@@@Z 00495620 f   sp_ghost.obj
 0001:000949a0       ?PlaySSTPScript@SPGhost@@QAEHPAGPAVSPSSTPData@@H@Z 004959a0 f   sp_ghost.obj
 0001:000951d0       ?BreakScriptNoEvent@SPGhost@@QAEXXZ 004961d0 f   sp_ghost.obj
 0001:00095200       ?BreakScript@SPGhost@@QAEXHHH@Z 00496200 f   sp_ghost.obj
 0001:000953d0       ?PlayAITalk@SPGhost@@QAEHXZ 004963d0 f   sp_ghost.obj
 0001:00095430       ?GetAITalkOrNewsCompatible@SPGhost@@QAEPBGXZ 00496430 f   sp_ghost.obj
 0001:000954b0       ?ExecuteHeadline@SPGhost@@QAE_NPAG@Z 004964b0 f   sp_ghost.obj
 0001:00095590       ?PlayTiming@SPGhost@@QAEHJJJJJ@Z 00496590 f   sp_ghost.obj
 0001:000956a0       ?CommunicateResponse@SPGhost@@QAEHPAG@Z 004966a0 f   sp_ghost.obj
 0001:00095710       ?CommunicateSSTP@SPGhost@@QAEHPAVSPSSTPData@@@Z 00496710 f   sp_ghost.obj
 0001:000958b0       ?BalloonCloseWithCheck@SPGhost@@QAEXH@Z 004968b0 f   sp_ghost.obj
 0001:000958e0       ?BalloonClose@SPGhost@@QAEHH@Z 004968e0 f   sp_ghost.obj
 0001:00095a40       ?ClearBalloons@SPGhost@@QAEHH@Z 00496a40 f   sp_ghost.obj
 0001:00095af0       ?HideBalloons@SPGhost@@QAE_NXZ 00496af0 f   sp_ghost.obj
 0001:00095b60       ?UpdateBalloons@SPGhost@@QAEXXZ 00496b60 f   sp_ghost.obj
 0001:00095b90       ?UpdateBalloonChar@SPGhost@@QAEXJ@Z 00496b90 f   sp_ghost.obj
 0001:00095bc0       ?SetCharBalloonTempAlpha@SPGhost@@QAEXJH@Z 00496bc0 f   sp_ghost.obj
 0001:00095be0       ?GetCharBalloonAlphaCalc@SPGhost@@QAEHJ@Z 00496be0 f   sp_ghost.obj
 0001:00095c40       ?CloseInputBox@SPGhost@@QAEXIPAG@Z 00496c40 f   sp_ghost.obj
 0001:00095c80       ?ShowInputBoxFromTag@SPGhost@@QAEXIPAGH@Z 00496c80 f   sp_ghost.obj
 0001:00095ce0       ?ShowInputBox@SPGhost@@QAEXIPAG0I@Z 00496ce0 f   sp_ghost.obj
 0001:00095d60       ?MakeIDAndNotify@SPGhost@@QAEXK@Z 00496d60 f   sp_ghost.obj
 0001:00095e70       ?ExitGhost@SPGhost@@QAEX_N@Z 00496e70 f   sp_ghost.obj
 0001:00095eb0       ?LockAllBalloonUpdate@SPGhost@@AAEXH@Z 00496eb0 f   sp_ghost.obj
 0001:00095ef0       ?DispMessage@SPGhost@@AAEXHAAVJWString@@@Z 00496ef0 f   sp_ghost.obj
 0001:00096050       ?DispMessageSync@SPGhost@@AAEXAAVJWString@@@Z 00497050 f   sp_ghost.obj
 0001:00096270       ?InitInstance@SPGhost@@UAEHXZ 00497270 f   sp_ghost.obj
 0001:00096290       ?ExitInstance@SPGhost@@UAEXH@Z 00497290 f   sp_ghost.obj
 0001:00096320       ?GetScript@SPGhost@@QAEPAGPAGH@Z 00497320 f   sp_ghost.obj
 0001:00096500       ?Wait@SPGhost@@AAEXH@Z     00497500 f   sp_ghost.obj
 0001:000965b0       ?WaitAbsolute@SPGhost@@AAEXPAGHH@Z 004975b0 f   sp_ghost.obj
 0001:00096660       ?ResetWait@SPGhost@@AAEXXZ 00497660 f   sp_ghost.obj
 0001:00096680       ?WaitTillScriptPlaying@SPGhost@@QAEXXZ 00497680 f   sp_ghost.obj
 0001:000966f0       ?NotifyHwnd@SPGhost@@QAEXK@Z 004976f0 f   sp_ghost.obj
 0001:00096920       ?NotifyFolder@SPGhost@@QAEXK@Z 00497920 f   sp_ghost.obj
 0001:00096a20       ?NotifyCmdListener@SPGhost@@QAEHKPAPAXH@Z 00497a20 f   sp_ghost.obj
 0001:00096a40       ?NotifyPiro@SPGhost@@AAEHH@Z 00497a40 f   sp_ghost.obj
 0001:00096b10       ?TestNewSpecification@SPGhost@@QAEHXZ 00497b10 f   sp_ghost.obj
 0001:00096d30       ?CheckNewSpecification@SPGhost@@QAEHXZ 00497d30 f   sp_ghost.obj
 0001:00096db0       ?OnMouseEvent@SPGhost@@QAEHPAGHHHABUtagPOINT@@0@Z 00497db0 f   sp_ghost.obj
 0001:00097000       ?OnDisplayChange@SPGhost@@QAEHH@Z 00498000 f   sp_ghost.obj
 0001:000970c0       ?OnFileDrop@SPGhost@@QAEHHPAD@Z 004980c0 f   sp_ghost.obj
 0001:00097210       ?OnTimeChange@SPGhost@@QAEHHKK@Z 00498210 f   sp_ghost.obj
 0001:00097400       ?OnNotifyEventThread@SPGhost@@QAE_NPAGPAPAGHKKK_N@Z 00498400 f   sp_ghost.obj
 0001:00097490       ?OnNotifyEventThread@SPGhost@@QAE_NAAVSPShioriEvent@@KKK@Z 00498490 f   sp_ghost.obj
 0001:00097560       ?OnNotifyEventThreadAllOther@SPGhost@@QAE_NAAVSPShioriEvent@@KKK@Z 00498560 f   sp_ghost.obj
 0001:00097630       ?OnNotifyEvent@SPGhost@@QAE_NPAGPAPAGHKKK_N@Z 00498630 f   sp_ghost.obj
 0001:000976c0       ?OnNotifyEvent@SPGhost@@QAE_NAAVSPShioriEvent@@KKK@Z 004986c0 f   sp_ghost.obj
 0001:000977b0       ?OnNotifyEventAllOther@SPGhost@@QAE_NAAVSPShioriEvent@@KKK@Z 004987b0 f   sp_ghost.obj
 0001:000977e0       ?OnSurfaceRestore@SPGhost@@QAEHXZ 004987e0 f   sp_ghost.obj
 0001:000978e0       ?SetSurfaceChar@SPGhost@@QAEHPBJKPAGHH_N@Z 004988e0 f   sp_ghost.obj
 0001:00097940       ?OnSurfaceChange@SPGhost@@QAEXHPAVSPAnimeBase@@@Z 00498940 f   sp_ghost.obj
 0001:00097a60       ?OnNotifyOtherGhost@SPGhost@@QAEHXZ 00498a60 f   sp_ghost.obj
 0001:00097a70       ?TalkBootMessage@SPGhost@@QAEXPAPAGK@Z 00498a70 f   sp_ghost.obj
 0001:00098220       ?GetChangeVanishScript@SPGhost@@QAE?AVSPShioriEventResult@@PAG0PAPAGH@Z 00499220 f   sp_ghost.obj
 0001:00098300       ?OnTeach@SPGhost@@QAEHPAG@Z 00499300 f   sp_ghost.obj
 0001:00098380       ?GetUserNameA@SPGhost@@QAEHXZ 00499380 f   sp_ghost.obj
 0001:000983b0       ?SaveBindInfo@SPGhost@@QAEXXZ 004993b0 f   sp_ghost.obj
 0001:000984d0       ?LoadBindInfo@SPGhost@@QAEXXZ 004994d0 f   sp_ghost.obj
 0001:00098540       ?GetCurrentShellProp@SPGhost@@QAEPAVSPShellProp@@XZ 00499540 f   sp_ghost.obj
 0001:00098570       ?GetCurrentBalloonProp@SPGhost@@QAEPAVSPBalloonProp@@XZ 00499570 f   sp_ghost.obj
 0001:000985a0       ?GetGhostProp@SPGhost@@QAEPAVSPGhostProp@@XZ 004995a0 f   sp_ghost.obj
 0001:000985d0       ?AddCharBalloon@SPGhost@@QAEPAVSPBalloonWnd@@J@Z 004995d0 f   sp_ghost.obj
 0001:000986d0       ?DeleteBallons@SPGhost@@QAEXH@Z 004996d0 f   sp_ghost.obj
 0001:00098740       ?PrepareToTalk@SPGhost@@AAE_NJ_N@Z 00499740 f   sp_ghost.obj
 0001:000987c0       ?StartBalloonTest@SPGhost@@QAEXXZ 004997c0 f   sp_ghost.obj
 0001:00098820       ?EndBalloonTest@SPGhost@@QAEXXZ 00499820 f   sp_ghost.obj
 0001:00098850       ?GetCharBalloon@SPGhost@@QAEPAVSPBalloonWnd@@J@Z 00499850 f   sp_ghost.obj
 0001:00098880       ?UpdateBalloonSelection@SPGhost@@QAEXXZ 00499880 f   sp_ghost.obj
 0001:00098920       ?ResetAllBalloonPos@SPGhost@@QAEXXZ 00499920 f   sp_ghost.obj
 0001:00098970       ?ResetAllBalloonFont@SPGhost@@QAEXXZ 00499970 f   sp_ghost.obj
 0001:000989a0       ?IsLocked@SPGhost@@QAEPBGXZ 004999a0 f   sp_ghost.obj
 0001:000989e0       ?IsMatch@SPGhost@@QAEHPBG00@Z 004999e0 f   sp_ghost.obj
 0001:00098a80       ?SetWallPaper@SPGhost@@QAEHPAG0@Z 00499a80 f   sp_ghost.obj
 0001:00098db0       ?MakeFullPath@SPGhost@@QAEXAAVJString@@PAG@Z 00499db0 f   sp_ghost.obj
 0001:00098e90       ?MakeFullPath@SPGhost@@QAEXAAVJString@@PAD@Z 00499e90 f   sp_ghost.obj
 0001:00098fa0       ?FindGhostFileFromRelPath@SPGhost@@QAEHAAVJString@@PBD@Z 00499fa0 f   sp_ghost.obj
 0001:00099140       ?LoadSettings@SPGhost@@AAEXXZ 0049a140 f   sp_ghost.obj
 0001:000992a0       ?ReloadSettings@SPGhost@@QAEXXZ 0049a2a0 f   sp_ghost.obj
 0001:000992e0       ?SuspendGhost@SPGhost@@QAEXXZ 0049a2e0 f   sp_ghost.obj
 0001:00099300       ?ResumeGhost@SPGhost@@QAEXXZ 0049a300 f   sp_ghost.obj
 0001:00099330       ?VarGet@SPGhost@@UAE_NPAV1@PAGAAVJWString@@PAVSPVarSystemNode@@@Z 0049a330 f   sp_ghost.obj
 0001:000997e0       ??1SPPropListNode@@UAE@XZ  0049a7e0 f i sp_ghost.obj
 0001:000997f0       ??_GSPPropListNode@@UAEPAXI@Z 0049a7f0 f i sp_ghost.obj
 0001:000997f0       ??_ESPPropListNode@@UAEPAXI@Z 0049a7f0 f i sp_ghost.obj
 0001:00099820       ?VarSet@SPGhost@@UAE_NPAV1@PAG1PAVSPVarSystemNode@@@Z 0049a820 f   sp_ghost.obj
 0001:00099aa0       ?GetActiveHeadline@SPGhost@@QAEPAVSPHeadline@@XZ 0049aaa0 f   sp_ghost.obj
 0001:00099ad0       ?StartOnline@SPGhost@@QAEXH@Z 0049aad0 f   sp_ghost.obj
 0001:00099af0       ?ResetOnline@SPGhost@@QAEXXZ 0049aaf0 f   sp_ghost.obj
 0001:00099b00       ?EndOnline@SPGhost@@QAEXXZ 0049ab00 f   sp_ghost.obj
 0001:00099b10       ?CacheSuspend@SPGhost@@QAEHXZ 0049ab10 f   sp_ghost.obj
 0001:00099ba0       ?CacheRestore@SPGhost@@QAEHH@Z 0049aba0 f   sp_ghost.obj
 0001:00099ca0       ?ResetDataCache@SPGhost@@QAEXXZ 0049aca0 f   sp_ghost.obj
 0001:00099cb0       ?SetAlignAll@SPGhost@@AAEXXZ 0049acb0 f   sp_ghost.obj
 0001:00099cf0       ?LoadModuleCharset@SPGhost@@QAEX_N@Z 0049acf0 f   sp_ghost.obj
 0001:00099e90       ?GetActivateSetting@SPGhost@@SAIPBG@Z 0049ae90 f   sp_ghost.obj
 0001:00099ee0       ?GetActivateSetting@SPGhost@@SAPBGI@Z 0049aee0 f   sp_ghost.obj
 0001:00099f10       ?OnNotifyOnline@SPGhost@@QAEXXZ 0049af10 f   sp_ghost.obj
 0001:0009a0c0       ?GetSelectModeAll@SPGhost@@QAEIXZ 0049b0c0 f   sp_ghost.obj
 0001:0009a110       ?SPCNotify@SPGhost@@UAE_NKPAPAXK@Z 0049b110 f   sp_ghost.obj
 0001:0009a160       ??0SPScriptQueueData@@AAE@XZ 0049b160 f   sp_ghost.obj
 0001:0009a2a0       ?Clear@SPScriptQueueData@@QAEXXZ 0049b2a0 f   sp_ghost.obj
 0001:0009a4f0       ??1SPCommunicateData@@QAE@XZ 0049b4f0 f i sp_ghost.obj
 0001:0009a550       ??1SPScriptQueueData@@AAE@XZ 0049b550 f   sp_ghost.obj
 0001:0009a630       ??1?$SPCacheObj@VSPScriptQueueData@@VJDummyLockSection@@VJDummyLock@@@@QAE@XZ 0049b630 f i sp_ghost.obj
 0001:0009a6f0       ?Delete@?$SPCacheObj@VSPScriptQueueData@@VJDummyLockSection@@VJDummyLock@@@@QAEXPAVSPScriptQueueData@@@Z 0049b6f0 f i sp_ghost.obj
 0001:0009a810       ?DeleteArray@?$SPCacheObj@VSPScriptQueueData@@VJDummyLockSection@@VJDummyLock@@@@QAEXAAV?$JPtrArray@PAVSPScriptQueueData@@@@@Z 0049b810 f i sp_ghost.obj
 0001:0009a8b0       ??0?$SPCacheObj@VSPRecommendProp@@VJDummyLockSection@@VJDummyLock@@@@QAE@K@Z 0049b8b0 f i sp_ghost.obj
 0001:0009a900       ??1?$SPCacheObj@VSPRecommendProp@@VJDummyLockSection@@VJDummyLock@@@@QAE@XZ 0049b900 f i sp_ghost.obj
 0001:0009a9c0       ?New@?$SPCacheObj@VSPRecommendProp@@VJDummyLockSection@@VJDummyLock@@@@QAEPAVSPRecommendProp@@XZ 0049b9c0 f i sp_ghost.obj
 0001:0009ab10       ??0SPRecommendProp@@QAE@XZ 0049bb10 f i sp_ghost.obj
 0001:0009ac50       ?DeleteArray@?$SPCacheObj@VSPRecommendProp@@VJDummyLockSection@@VJDummyLock@@@@QAEXAAV?$JPtrArray@PAVSPRecommendProp@@@@@Z 0049bc50 f i sp_ghost.obj
 0001:0009ad90       ??1SPRecommendProp@@QAE@XZ 0049bd90 f i sp_ghost.obj
 0001:0009ae00       ?Release@?$SPCacheObj@VSPScriptQueueData@@VJDummyLockSection@@VJDummyLock@@@@QAEXXZ 0049be00 f i sp_ghost.obj
 0001:0009ae90       ?ShiftRight@?$JArray@PAX@@QAEXJJ@Z 0049be90 f i sp_ghost.obj
 0001:0009ae90       ?ShiftRight@?$JArray@J@@QAEXJJ@Z 0049be90 f i sp_ghost.obj
 0001:0009af90       ?_Sort@std@@YAXPAPAVSPShellProp@@0U?$PredConverter@PAVSPShellProp@@P6AHPAV1@0@Z@@0@Z 0049bf90 f i sp_ghost.obj
 0001:0009b0d0       ??_ESPGhost@@W7AEPAXI@Z    0049c0d0 f i sp_ghost.obj
 0001:0009b0e0       ??0SPGhostLoader@@QAE@XZ   0049c0e0 f   sp_ghostloader.obj
 0001:0009b190       ??_ESPGhostLoader@@UAEPAXI@Z 0049c190 f i sp_ghostloader.obj
 0001:0009b190       ??_GSPGhostLoader@@UAEPAXI@Z 0049c190 f i sp_ghostloader.obj
 0001:0009b1c0       ??1SPGhostLoader@@UAE@XZ   0049c1c0 f   sp_ghostloader.obj
 0001:0009b2f0       ?Clear@SPGhostLoaderInfo@@QAEXXZ 0049c2f0 f   sp_ghostloader.obj
 0001:0009b3e0       ?ProcessCallTarget@SPGhostLoaderInfo@@QAEXXZ 0049c3e0 f   sp_ghostloader.obj
 0001:0009b520       ??1SPGhostLoaderInfo@@AAE@XZ 0049c520 f   sp_ghostloader.obj
 0001:0009b540       ?Loop@SPGhostLoader@@UAEHXZ 0049c540 f   sp_ghostloader.obj
 0001:0009b5b0       ?Exit@SPGhostLoader@@UAEHXZ 0049c5b0 f   sp_ghostloader.obj
 0001:0009b5f0       ?ExitInstance@SPGhostLoader@@UAEXH@Z 0049c5f0 f   sp_ghostloader.obj
 0001:0009b600       ?LoadGhost@SPGhostLoader@@QAEHPAVSPGhostLoaderInfo@@@Z 0049c600 f   sp_ghostloader.obj
 0001:0009b650       ?GhostLoadProc@SPGhostLoader@@AAEXPAVSPGhostLoaderInfo@@@Z 0049c650 f   sp_ghostloader.obj
 0001:0009b7e0       ?GhostLoadProcSub@SPGhostLoader@@AAEXPAVSPGhostLoaderInfo@@@Z 0049c7e0 f   sp_ghostloader.obj
 0001:0009b930       ?PlayMessenger@SPGhostLoader@@AAEXPAVSPGhostLoaderInfo@@PAVSPGhost@@H@Z 0049c930 f   sp_ghostloader.obj
 0001:0009ba60       ??1?$SPCacheObj@VSPGhostLoaderInfo@@VJCriticalSection@@VJLock@@@@QAE@XZ 0049ca60 f i sp_ghostloader.obj
 0001:0009bb60       ?Reset@?$SPCacheObj@VSPGhostLoaderInfo@@VJCriticalSection@@VJLock@@@@QAEXXZ 0049cb60 f i sp_ghostloader.obj
 0001:0009bcc0       ?Delete@?$SPCacheObj@VSPGhostLoaderInfo@@VJCriticalSection@@VJLock@@@@QAEXPAVSPGhostLoaderInfo@@@Z 0049ccc0 f i sp_ghostloader.obj
 0001:0009bdd0       ?Create@SPGhostMoveManagerInfo@@SAPAV1@PAVSPSerikoAnimation@@PAVSPGhostMoveInfo@@_N2@Z 0049cdd0 f   sp_ghostmovemanager.obj
 0001:0009c270       ?Execute@SPGhostMoveManagerInfo@@QAEHPAVSPSerikoAnimation@@@Z 0049d270 f   sp_ghostmovemanager.obj
 0001:0009c370       ?Loop@SPGhostMoveManager@@QAEJAAJ@Z 0049d370 f   sp_ghostmovemanager.obj
 0001:0009c4f0       ?Execute@SPGhostMoveManager@@QAE_NPAVSPGhostMoveInfo@@_N1@Z 0049d4f0 f   sp_ghostmovemanager.obj
 0001:0009c6a0       ?CalcMinimumTime@SPGhostMoveManager@@AAEXXZ 0049d6a0 f   sp_ghostmovemanager.obj
 0001:0009c6d0       ?CompleteNew@SPGhostTimeEntry@@QAEXXZ 0049d6d0 f   sp_ghosttime.obj
 0001:0009c6e0       ?CompleteOld@SPGhostTimeEntry@@QAEXXZ 0049d6e0 f   sp_ghosttime.obj
 0001:0009c7f0       ?GetNotifyData@SPGhostTimeEntry@@QAEAAVJWString@@K@Z 0049d7f0 f   sp_ghosttime.obj
 0001:0009ca90       ?VarGet@SPGhostTimeEntry@@QAE_NPAVSPGhostTime@@PAGAAVJWString@@PAVSPVarSystemNode@@@Z 0049da90 f   sp_ghosttime.obj
 0001:0009cc40       ?CheckStatus@SPGhostTimeEntry@@QAEXXZ 0049dc40 f   sp_ghosttime.obj
 0001:0009cc70       ?GetStatusText@SPGhostTimeEntry@@QAEPBGXZ 0049dc70 f   sp_ghosttime.obj
 0001:0009cca0       ??0SPGhostTime@@QAE@XZ     0049dca0 f   sp_ghosttime.obj
 0001:0009cd70       ??_GSPGhostTime@@UAEPAXI@Z 0049dd70 f i sp_ghosttime.obj
 0001:0009cd70       ??_ESPGhostTime@@UAEPAXI@Z 0049dd70 f i sp_ghosttime.obj
 0001:0009cda0       ??1SPGhostTime@@UAE@XZ     0049dda0 f i sp_ghosttime.obj
 0001:0009cec0       ?Release@SPGhostTime@@QAEXXZ 0049dec0 f   sp_ghosttime.obj
 0001:0009cef0       ?Load@SPGhostTime@@QAEHXZ  0049def0 f   sp_ghosttime.obj
 0001:0009d0e0       ?LoadNew@SPGhostTime@@AAEHPAD@Z 0049e0e0 f   sp_ghosttime.obj
 0001:0009d5e0       ??0SPGhostTimeEntry@@IAE@XZ 0049e5e0 f i sp_ghosttime.obj
 0001:0009d790       ??1SPGhostTimeEntry@@IAE@XZ 0049e790 f i sp_ghosttime.obj
 0001:0009d810       ?LoadOld@SPGhostTime@@AAEHPAD@Z 0049e810 f   sp_ghosttime.obj
 0001:0009de50       ?Save@SPGhostTime@@QAEHXZ  0049ee50 f   sp_ghosttime.obj
 0001:0009e630       ??YJString@@QAEAAV0@PBD@Z  0049f630 f i sp_ghosttime.obj
 0001:0009e710       ?FindCurrentEntryFromGhost@SPGhostTime@@QAEPAVSPGhostTimeEntry@@PAVSPGhost@@@Z 0049f710 f   sp_ghosttime.obj
 0001:0009e740       ?FindEntry@SPGhostTime@@AAEJPAG00@Z 0049f740 f   sp_ghosttime.obj
 0001:0009e7c0       ?DeleteCurrentGhost@SPGhostTime@@QAEHPAVSPGhost@@@Z 0049f7c0 f   sp_ghosttime.obj
 0001:0009e8e0       ?AddCurrentGhost@SPGhostTime@@QAEHPAVSPGhost@@H@Z 0049f8e0 f   sp_ghosttime.obj
 0001:0009ec10       ?TimerExec@SPGhostTime@@QAEXH@Z 0049fc10 f   sp_ghosttime.obj
 0001:0009ec70       ?AddTime@SPGhostTime@@QAEHXZ 0049fc70 f   sp_ghosttime.obj
 0001:0009ecc0       ?Sort@SPGhostTime@@QAEHXZ  0049fcc0 f   sp_ghosttime.obj
 0001:0009efc0       ?GetTotalTime@SPGhostTime@@QAEKXZ 0049ffc0 f   sp_ghosttime.obj
 0001:0009eff0       ?CheckStatus@SPGhostTime@@QAEXXZ 0049fff0 f   sp_ghosttime.obj
 0001:0009f020       ?DeleteEntry@SPGhostTime@@QAEXABVJWString@@000@Z 004a0020 f   sp_ghosttime.obj
 0001:0009f1c0       ?NotifyInfo@SPGhostTime@@QAEXPAVSPGhost@@@Z 004a01c0 f   sp_ghosttime.obj
 0001:0009f330       ?VarGet@SPGhostTime@@UAE_NPAVSPGhost@@PAGAAVJWString@@PAVSPVarSystemNode@@@Z 004a0330 f   sp_ghosttime.obj
 0001:0009f550       ??1?$SPCacheObj@VSPGhostTimeEntry@@VJDummyLockSection@@VJDummyLock@@@@QAE@XZ 004a0550 f i sp_ghosttime.obj
 0001:0009f610       ?Delete@?$SPCacheObj@VSPGhostTimeEntry@@VJDummyLockSection@@VJDummyLock@@@@QAEXPAVSPGhostTimeEntry@@@Z 004a0610 f i sp_ghosttime.obj
 0001:0009f780       ?DeleteArray@?$SPCacheObj@VSPGhostTimeEntry@@VJDummyLockSection@@VJDummyLock@@@@QAEXAAV?$JPtrArray@PAVSPGhostTimeEntry@@@@@Z 004a0780 f i sp_ghosttime.obj
 0001:0009f8d0       ??_ESPGhostTimeEntry@@IAEPAXI@Z 004a08d0 f i sp_ghosttime.obj
 0001:0009f930       ?_Sort@std@@YAXPAPAVSPGhostTimeEntry@@0U?$PredConverter@PAVSPGhostTimeEntry@@P6AHPAV1@0@Z@@0@Z 004a0930 f i sp_ghosttime.obj
 0001:0009fa70       ??0SPHeadline@@QAE@XZ      004a0a70 f   sp_headline.obj
 0001:0009fd90       ?Lock@SPModule@@UAEXXZ     004a0d90 f i sp_headline.obj
 0001:0009fda0       ?Unlock@SPModule@@UAEXXZ   004a0da0 f i sp_headline.obj
 0001:0009fdb0       ?GetModuleDesc@SPHeadline@@UAEPBGXZ 004a0db0 f i sp_headline.obj
 0001:0009fdc0       ??_ESPHeadline@@UAEPAXI@Z  004a0dc0 f i sp_headline.obj
 0001:0009fdc0       ??_GSPHeadline@@UAEPAXI@Z  004a0dc0 f i sp_headline.obj
 0001:0009fdf0       ??1SPHeadline@@UAE@XZ      004a0df0 f   sp_headline.obj
 0001:000a0110       ?VarGet@SPHeadline@@UAE_NPAVSPGhost@@PAGAAVJWString@@PAVSPVarSystemNode@@@Z 004a1110 f   sp_headline.obj
 0001:000a0180       ?VarSet@SPHeadline@@UAE_NPAVSPGhost@@PAG1PAVSPVarSystemNode@@@Z 004a1180 f   sp_headline.obj
 0001:000a01a0       ?Load@SPHeadline@@QAEHPAD@Z 004a11a0 f   sp_headline.obj
 0001:000a0410       ?Unload@SPHeadline@@QAEXXZ 004a1410 f   sp_headline.obj
 0001:000a0470       ?LoadScript@SPHeadline@@QAEHXZ 004a1470 f   sp_headline.obj
 0001:000a0810       ?ReadDescript@SPHeadline@@UAEHXZ 004a1810 f   sp_headline.obj
 0001:000a0e90       ?Execute@SPHeadline@@QAE_NPAVSPGhost@@H@Z 004a1e90 f   sp_headline.obj
 0001:000a1080       ?SPCNotify@SPHeadline@@UAE_NKPAPAXK@Z 004a2080 f   sp_headline.obj
 0001:000a10c0       ?CloseConnection@SPHeadline@@AAEXXZ 004a20c0 f   sp_headline.obj
 0001:000a10e0       ?ExecuteNext@SPHeadline@@QAE_NPAVSPGhost@@@Z 004a20e0 f   sp_headline.obj
 0001:000a1120       ?ExecuteOld@SPHeadline@@QAE_NPAVSPGhost@@@Z 004a2120 f   sp_headline.obj
 0001:000a1160       ?SplitOldData@SPHeadline@@AAEHPAVSPStaticStringArrayW@@00PAG@Z 004a2160 f   sp_headline.obj
 0001:000a1220       ?GetHeadline@SPHeadline@@AAEHPAVSPStaticStringArrayW@@00PAD@Z 004a2220 f   sp_headline.obj
 0001:000a1750       ?GetVersion@SPHeadline@@AAEHXZ 004a2750 f   sp_headline.obj
 0001:000a18b0       ?ThreadProc@SPHeadline@@QAEHXZ 004a28b0 f   sp_headline.obj
 0001:000a1990       ?ThreadProcSub@SPHeadline@@AAEXAAVJString@@@Z 004a2990 f   sp_headline.obj
 0001:000a1e00       ?ReadURL@SPHeadline@@AAEHPAD0@Z 004a2e00 f   sp_headline.obj
 0001:000a1f40       ?Failure@SPHeadline@@AAEXPAG0@Z 004a2f40 f   sp_headline.obj
 0001:000a2010       ?NotUpdated@SPHeadline@@AAEXXZ 004a3010 f   sp_headline.obj
 0001:000a2130       ?CheckSpecificDLL@SPHeadline@@AAEXH@Z 004a3130 f   sp_headline.obj
 0001:000a2300       ?PlayHeadline@SPHeadline@@AAE_NH@Z 004a3300 f   sp_headline.obj
 0001:000a30f0       ??_ESPHeadline@@WCBM@AEPAXI@Z 004a40f0 f i sp_headline.obj
 0001:000a3100       ??_ESPHeadline@@WDMM@AEPAXI@Z 004a4100 f i sp_headline.obj
 0001:000a3110       ??0SPHeadlineRSS@@QAE@XZ   004a4110 f   sp_headlinerss.obj
 0001:000a3250       ??1SPHeadlineRSS@@QAE@XZ   004a4250 f   sp_headlinerss.obj
 0001:000a32f0       ?Release@SPHeadlineRSS@@QAEXXZ 004a42f0 f   sp_headlinerss.obj
 0001:000a34d0       ?Parse@SPHeadlineRSS@@QAEHPAD@Z 004a44d0 f   sp_headlinerss.obj
 0001:000a3e10       ??1SPHeadlineRSSElement@@QAE@XZ 004a4e10 f i sp_headlinerss.obj
 0001:000a3e60       ?Sort@SPHeadlineRSS@@AAEXXZ 004a4e60 f   sp_headlinerss.obj
 0001:000a3eb0       ?GetSingleText@SPHeadlineRSS@@AAEHPBVTiXmlNode@@PAPBDIAAVJWString@@@Z 004a4eb0 f   sp_headlinerss.obj
 0001:000a40a0       ?WriteError@SPHeadlineRSS@@AAEXAAVTiXmlDocument@@PAG@Z 004a50a0 f   sp_headlinerss.obj
 0001:000a4120       ?GetFeedData@SPHeadlineRSS@@QAEXPAVSPStaticStringArrayW@@00@Z 004a5120 f   sp_headlinerss.obj
 0001:000a4350       ?SelectUpdateGhost@SPHeadlineRSS@@QAEXAAV?$JArray@K@@@Z 004a5350 f   sp_headlinerss.obj
 0001:000a44b0       ?GetNodes@SPHeadlineRSS@@CAPBVTiXmlNode@@PBV2@PBDAAV?$JPtrArray@PBVTiXmlNode@@@@PAPBVTiXmlAttribute@@H@Z 004a54b0 f   sp_headlinerss.obj
 0001:000a46a0       ?GetSingleNode@SPHeadlineRSS@@CAPBVTiXmlNode@@PBV2@PBDPAPBVTiXmlAttribute@@@Z 004a56a0 f   sp_headlinerss.obj
 0001:000a4710       ?_Stable_sort@std@@YAXPAPAVSPHeadlineRSSElement@@0PAH0U?$PredConverter@PAVSPHeadlineRSSElement@@P6AHPAV1@0@Z@@@Z 004a5710 f i sp_headlinerss.obj
 0001:000a48e0       ??1?$_Temp_iterator@PAVSPHeadlineRSSElement@@@std@@QAE@XZ 004a58e0 f i sp_headlinerss.obj
 0001:000a4900       ?_Stable_sort@std@@YAXPAPAVSPHeadlineRSSElement@@0HAAV?$_Temp_iterator@PAVSPHeadlineRSSElement@@@1@U?$PredConverter@PAVSPHeadlineRSSElement@@P6AHPAV1@0@Z@@@Z 004a5900 f i sp_headlinerss.obj
 0001:000a4c40       ?_Buffered_merge_sort@std@@YAXPAPAVSPHeadlineRSSElement@@0HAAV?$_Temp_iterator@PAVSPHeadlineRSSElement@@@1@U?$PredConverter@PAVSPHeadlineRSSElement@@P6AHPAV1@0@Z@@@Z 004a5c40 f i sp_headlinerss.obj
 0001:000a4ee0       ?_Buffered_merge@std@@YAXPAPAVSPHeadlineRSSElement@@00HHAAV?$_Temp_iterator@PAVSPHeadlineRSSElement@@@1@U?$PredConverter@PAVSPHeadlineRSSElement@@P6AHPAV1@0@Z@@@Z 004a5ee0 f i sp_headlinerss.obj
 0001:000a52c0       ??0?$_Temp_iterator@PAVSPHeadlineRSSElement@@@std@@QAE@ABV01@@Z 004a62c0 f i sp_headlinerss.obj
 0001:000a52e0       ?_Init@?$_Temp_iterator@PAVSPHeadlineRSSElement@@@std@@QAEAAV12@XZ 004a62e0 f i sp_headlinerss.obj
 0001:000a52f0       ?_Insertion_sort_1@std@@YAXPAPAVSPScheduleSensorProp@@0U?$PredConverter@PAVSPScheduleSensorProp@@P6AHPAV1@0@Z@@0@Z 004a62f0 f i sp_headlinerss.obj
 0001:000a52f0       ?_Insertion_sort_1@std@@YAXPAPAVSPShellProp@@0U?$PredConverter@PAVSPShellProp@@P6AHPAV1@0@Z@@0@Z 004a62f0 f i sp_headlinerss.obj
 0001:000a52f0       ?_Insertion_sort_1@std@@YAXPAPAVSPTimingEntry@@0U?$PredConverter@PAVSPTimingEntry@@P6AHPAV1@0@Z@@0@Z 004a62f0 f i sp_headlinerss.obj
 0001:000a52f0       ?_Insertion_sort_1@std@@YAXPAPAVSPCalendarSkinProp@@0U?$PredConverter@PAVSPCalendarSkinProp@@P6AHPAV1@0@Z@@0@Z 004a62f0 f i sp_headlinerss.obj
 0001:000a52f0       ?_Insertion_sort_1@std@@YAXPAPAVSPHeadlineRSSElement@@0U?$PredConverter@PAVSPHeadlineRSSElement@@P6AHPAV1@0@Z@@0@Z 004a62f0 f i sp_headlinerss.obj
 0001:000a5380       ?_Chunked_merge@std@@YAXPAPAVSPHeadlineRSSElement@@0AAV?$_Temp_iterator@PAVSPHeadlineRSSElement@@@1@HHU?$PredConverter@PAVSPHeadlineRSSElement@@P6AHPAV1@0@Z@@@Z 004a6380 f i sp_headlinerss.obj
 0001:000a5490       ?_Chunked_merge@std@@YAXPAPAVSPHeadlineRSSElement@@0AAPAPAV2@HHU?$PredConverter@PAVSPHeadlineRSSElement@@P6AHPAV1@0@Z@@@Z 004a6490 f i sp_headlinerss.obj
 0001:000a55f0       ?copy@std@@YA?AV?$_Temp_iterator@PAVSPHeadlineRSSElement@@@1@PAPAVSPHeadlineRSSElement@@0V21@@Z 004a65f0 f i sp_headlinerss.obj
 0001:000a5670       ?merge@std@@YAPAPAVSPHeadlineRSSElement@@PAPAV2@0000U?$PredConverter@PAVSPHeadlineRSSElement@@P6AHPAV1@0@Z@@@Z 004a6670 f i sp_headlinerss.obj
 0001:000a56f0       ?_Unguarded_insert@std@@YAXPAPAVSPShellProp@@PAV2@U?$PredConverter@PAVSPShellProp@@P6AHPAV1@0@Z@@@Z 004a66f0 f i sp_headlinerss.obj
 0001:000a56f0       ?_Unguarded_insert@std@@YAXPAPAVSPHeadlineRSSElement@@PAV2@U?$PredConverter@PAVSPHeadlineRSSElement@@P6AHPAV1@0@Z@@@Z 004a66f0 f i sp_headlinerss.obj
 0001:000a56f0       ?_Unguarded_insert@std@@YAXPAPAVSPTimingEntry@@PAV2@U?$PredConverter@PAVSPTimingEntry@@P6AHPAV1@0@Z@@@Z 004a66f0 f i sp_headlinerss.obj
 0001:000a56f0       ?_Unguarded_insert@std@@YAXPAPAVSPScheduleSensorProp@@PAV2@U?$PredConverter@PAVSPScheduleSensorProp@@P6AHPAV1@0@Z@@@Z 004a66f0 f i sp_headlinerss.obj
 0001:000a56f0       ?_Unguarded_insert@std@@YAXPAPAVSPCalendarSkinProp@@PAV2@U?$PredConverter@PAVSPCalendarSkinProp@@P6AHPAV1@0@Z@@@Z 004a66f0 f i sp_headlinerss.obj
 0001:000a5730       ?merge@std@@YA?AV?$_Temp_iterator@PAVSPHeadlineRSSElement@@@1@PAPAVSPHeadlineRSSElement@@000V21@U?$PredConverter@PAVSPHeadlineRSSElement@@P6AHPAV1@0@Z@@@Z 004a6730 f i sp_headlinerss.obj
 0001:000a5840       ?copy@std@@YAPAPAVSPHeadlineRSSElement@@PAPAV2@00@Z 004a6840 f i sp_headlinerss.obj
 0001:000a5870       ?_Lower_bound@std@@YAPAPAVSPHeadlineRSSElement@@PAPAV2@0ABQAV2@U?$PredConverter@PAVSPHeadlineRSSElement@@P6AHPAV1@0@Z@@PAH@Z 004a6870 f i sp_headlinerss.obj
 0001:000a58d0       ?rotate@std@@YAXPAPAVSPHeadlineRSSElement@@00@Z 004a68d0 f i sp_headlinerss.obj
 0001:000a5980       ?GetSPHistory@@YAAAVSPHistory@@XZ 004a6980 f   sp_history.obj
 0001:000a59c0       ??0SPHistory@@QAE@XZ       004a69c0 f i sp_history.obj
 0001:000a5b20       ??_GSPHistory@@UAEPAXI@Z   004a6b20 f i sp_history.obj
 0001:000a5b20       ??_ESPHistory@@UAEPAXI@Z   004a6b20 f i sp_history.obj
 0001:000a5b50       ??1SPHistory@@UAE@XZ       004a6b50 f i sp_history.obj
 0001:000a5cf0       ??_F?$JArray@J@@QAEXXZ     004a6cf0 f i sp_history.obj
 0001:000a5d00       ??_F?$JPtrArray@PAVSPDataPathListData@@@@QAEXXZ 004a6d00 f i sp_history.obj
 0001:000a5d00       ??_F?$JPtrArray@PAVSPScriptEntry@@@@QAEXXZ 004a6d00 f i sp_history.obj
 0001:000a5d00       ??_F?$JPtrArray@PAVJString@@@@QAEXXZ 004a6d00 f i sp_history.obj
 0001:000a5d20       ?Save@SPHistory@@QAEXH@Z   004a6d20 f   sp_history.obj
 0001:000a5db0       ?SaveOne@SPHistory@@AAEXH@Z 004a6db0 f   sp_history.obj
 0001:000a5ea0       ?Load@SPHistory@@QAEXXZ    004a6ea0 f   sp_history.obj
 0001:000a6100       ?GetGhost@SPHistory@@QAEPAVSPGhostProp@@K@Z 004a7100 f   sp_history.obj
 0001:000a6190       ?Get@SPHistory@@QAEPAVSPProp@@W4SPHistoryID@@K@Z 004a7190 f   sp_history.obj
 0001:000a6280       ?Add@SPHistory@@QAEXW4SPHistoryID@@PAVSPProp@@@Z 004a7280 f   sp_history.obj
 0001:000a64e0       ?ValidateCache@SPHistory@@AAEXW4SPHistoryID@@@Z 004a74e0 f   sp_history.obj
 0001:000a66e0       ?SetHistoryNum@SPHistory@@QAEXK@Z 004a76e0 f   sp_history.obj
 0001:000a6700       ?UpdateHistoryNum@SPHistory@@QAEXXZ 004a7700 f   sp_history.obj
 0001:000a67f0       ?VarGet@SPHistory@@UAE_NPAVSPGhost@@PAGAAVJWString@@PAVSPVarSystemNode@@@Z 004a77f0 f   sp_history.obj
 0001:000a6b30       ?DeleteAllObject@?$JPtrArray@PAVJString@@@@QAEXXZ 004a7b30 f i sp_history.obj
 0001:000a6b80       ??_GJString@@QAEPAXI@Z     004a7b80 f i sp_history.obj
 0001:000a6bb0       ?SetSSLVerify@SPHttp@@SAXH@Z 004a7bb0 f   sp_http.obj
 0001:000a6bd0       ?SetProxyAuth@SPHttp@@AAEXPBD0@Z 004a7bd0 f   sp_http.obj
 0001:000a6c90       ?SetConnectionAuth@SPHttp@@QAEXPBD0@Z 004a7c90 f   sp_http.obj
 0001:000a6ce0       ?SetCookie@SPHttp@@QAEXPBD@Z 004a7ce0 f   sp_http.obj
 0001:000a6d10       ?Connect@SPHttp@@QAEHPBD@Z 004a7d10 f   sp_http.obj
 0001:000a6e30       ?ConnectInternal@SPHttp@@QAEHPBD@Z 004a7e30 f   sp_http.obj
 0001:000a7170       ?Reconnect@SPHttp@@AAEHXZ  004a8170 f   sp_http.obj
 0001:000a74f0       ?ErrorText@SPHttp@@QAEPAGH@Z 004a84f0 f   sp_http.obj
 0001:000a7570       ?Close@SPHttp@@QAEXH@Z     004a8570 f   sp_http.obj
 0001:000a7780       ?Break@SPHttp@@QAEXXZ      004a8780 f   sp_http.obj
 0001:000a7790       ?CloseInternal@SPHttp@@QAEXH@Z 004a8790 f   sp_http.obj
 0001:000a77e0       ?IsSocketError@SPHttp@@AAEHXZ 004a87e0 f   sp_http.obj
 0001:000a7820       ?SetIfModifiedSince@SPHttp@@QAEXPBD@Z 004a8820 f   sp_http.obj
 0001:000a7880       ?RetryKeepAlive@SPHttp@@AAEHPBD00W4SPHttp_Method@@@Z 004a8880 f   sp_http.obj
 0001:000a78f0       ?ReadSimple@SPHttp@@QAEHPBD00W4SPHttp_Method@@@Z 004a88f0 f   sp_http.obj
 0001:000a79b0       ?ReadSimple@SPHttp@@QAEHPBDPBG0W4SPHttp_Method@@@Z 004a89b0 f   sp_http.obj
 0001:000a7b90       ?Read@SPHttp@@QAEHPBD00W4SPHttp_Method@@@Z 004a8b90 f   sp_http.obj
 0001:000a7c30       ?RealRead@SPHttp@@AAEHPBD00W4SPHttp_Method@@@Z 004a8c30 f   sp_http.obj
 0001:000a9400       ?RealReadHeader@SPHttp@@AAE_NAAVJString@@@Z 004aa400 f   sp_http.obj
 0001:000a9560       ?RealReadContent@SPHttp@@AAEHPAVSPStreamFilter@@PBDAAVJStream@@@Z 004aa560 f   sp_http.obj
 0001:000a96c0       ?SetFlag@SPHttp@@AAEXIH@Z  004aa6c0 f   sp_http.obj
 0001:000a9700       ?CallNotifyProc@SPHttp@@AAEXXZ 004aa700 f   sp_http.obj
 0001:000a9760       ?ExecAuth@SPHttp@@AAEHPBDPAD@Z 004aa760 f   sp_http.obj
 0001:000a9960       ?MakeConnectionAuth@SPHttp@@AAEHPAD0@Z 004aa960 f   sp_http.obj
 0001:000a9ac0       ?Redirect@SPHttp@@AAEHPBDPAD@Z 004aaac0 f   sp_http.obj
 0001:000a9db0       ?LastHost@SPHttp@@QAEXAAVJString@@H@Z 004aadb0 f   sp_http.obj
 0001:000a9f50       ?LastFullUrl@SPHttp@@QAEXAAVJWString@@HH@Z 004aaf50 f   sp_http.obj
 0001:000aa010       ?LastFullUrl@SPHttp@@QAEXAAVJString@@HH@Z 004ab010 f   sp_http.obj
 0001:000aa170       ?GetProtocolScheme@SPHttp@@SAPADW4SPHttp_Type@@@Z 004ab170 f   sp_http.obj
 0001:000aa1a0       ?GetDefaultPort@SPHttp@@QAEHXZ 004ab1a0 f   sp_http.obj
 0001:000aa1c0       ?FileProtocolHandler@SPHttp@@AAEHPBD0@Z 004ab1c0 f   sp_http.obj
 0001:000aa3e0       ?DataProtocolHandler@SPHttp@@AAEHPBD0@Z 004ab3e0 f   sp_http.obj
 0001:000aa690       ?SPBalloonProgressProc@@YAJPAXKK@Z 004ab690 f   sp_httputil.obj
 0001:000aa6b0       ?SPLoadIconFromFile@@YAPAUHICON__@@PADHII@Z 004ab6b0 f   sp_iconloader.obj
 0001:000aab80       ?SPInstallProc@@YAXPAVSPGhost@@PADH@Z 004abb80 f   sp_install.obj
 0001:000aabc0       ?SPInstallProc@@YAXPAVSPGhost@@PAVSPMultiFile@@H@Z 004abbc0 f   sp_install.obj
 0001:000aac70       ??0SPInstaller@@QAE@PAVSPGhost@@PAVSPMultiFile@@@Z 004abc70 f   sp_install.obj
 0001:000aad30       ??1SPInstaller@@QAE@XZ     004abd30 f   sp_install.obj
 0001:000aadc0       ?Install@SPInstaller@@QAE_NXZ 004abdc0 f   sp_install.obj
 0001:000aae20       ?ThreadProc@SPInstaller@@QAE_NXZ 004abe20 f   sp_install.obj
 0001:000ab0c0       ?InstallProc@SPInstaller@@AAE_NAAVSPKei@@PAD@Z 004ac0c0 f   sp_install.obj
 0001:000ad760       ?InstallFiles@SPInstaller@@AAEXPAD0_N0@Z 004ae760 f   sp_install.obj
 0001:000ad850       ?InstallFilesMask@SPInstaller@@AAEXPAD0_NPAV?$JPtrArray@PAD@@@Z 004ae850 f   sp_install.obj
 0001:000ada00       ??1SPDeleteTxt@@QAE@XZ     004aea00 f i sp_install.obj
 0001:000adaa0       ?OnFailed@SPInstaller@@AAEXPAG@Z 004aeaa0 f   sp_install.obj
 0001:000adb60       ?UpdateResources@SPInstaller@@AAEHXZ 004aeb60 f   sp_install.obj
 0001:000adba0       ?GetObjectName@SPInstaller@@AAEHAAVJString@@AAVJWString@@@Z 004aeba0 f   sp_install.obj
 0001:000ade90       ?GetObjectNameArray@SPInstaller@@AAEHAAVJString@@AAVJWString@@@Z 004aee90 f   sp_install.obj
 0001:000adfc0       ?GetSourceAndTarget@SPInstaller@@AAEHAAVSPSettings@@PADIAAVJString@@2@Z 004aefc0 f   sp_install.obj
 0001:000aeb20       ??1SPFindFile@@QAE@XZ      004afb20 f i sp_install.obj
 0001:000aee30       ?Complete@SPInstallEvent@@QAEHPAPAGH@Z 004afe30 f   sp_installevent.obj
 0001:000af000       ?Refuse@SPInstallEvent@@QAEHPAPAGH@Z 004b0000 f   sp_installevent.obj
 0001:000af0c0       ?Failure@SPInstallEvent@@QAEHPAPAGH@Z 004b00c0 f   sp_installevent.obj
 0001:000af180       ?Begin@SPInstallEvent@@QAEHPAPAGH@Z 004b0180 f   sp_installevent.obj
 0001:000af240       ??0SPIPMessenger@@QAE@XZ   004b0240 f   sp_ipmsgr.obj
 0001:000af3b0       ??1SPIPMessenger@@QAE@XZ   004b03b0 f   sp_ipmsgr.obj
 0001:000af4a0       ?Open@SPIPMessenger@@QAEHPAUHWND__@@@Z 004b04a0 f   sp_ipmsgr.obj
 0001:000af590       ?Close@SPIPMessenger@@QAEXXZ 004b0590 f   sp_ipmsgr.obj
 0001:000af610       ?ReleaseBroadcastAddr@SPIPMessenger@@AAEXXZ 004b0610 f   sp_ipmsgr.obj
 0001:000af680       ?Send@SPIPMessenger@@AAEHHVJSockAddr@@AAVSPIPMessengerMsgData@@@Z 004b0680 f   sp_ipmsgr.obj
 0001:000af760       ?SendToHelperFunc@SPIPMessenger@@AAEHABVJSockAddr@@HPBDK@Z 004b0760 f   sp_ipmsgr.obj
 0001:000af7d0       ?SendBroadcast@SPIPMessenger@@AAEHHAAVSPIPMessengerMsgData@@@Z 004b07d0 f   sp_ipmsgr.obj
 0001:000af950       ?MakeMsg@SPIPMessenger@@AAEHAAV?$JArray@D@@AAVSPIPMessengerMsgData@@@Z 004b0950 f   sp_ipmsgr.obj
 0001:000afc80       ?ProcReceive@SPIPMessenger@@QAEHKK@Z 004b0c80 f   sp_ipmsgr.obj
 0001:000b03e0       ?MessageRecv@SPIPMessenger@@QAEXPBDABVJSockAddr@@@Z 004b13e0 f   sp_ipmsgr.obj
 0001:000b0570       ?MessageSend@SPIPMessenger@@QAEHPAVSPMessengerUser@@PBDK@Z 004b1570 f   sp_ipmsgr.obj
 0001:000b05e0       ?SendMyProperty@SPIPMessenger@@AAEHHABVJSockAddr@@KH@Z 004b15e0 f   sp_ipmsgr.obj
 0001:000b0790       ?ScriptToMsg@SPIPMessenger@@QAEHAAV?$JArray@D@@PADH@Z 004b1790 f   sp_ipmsgr.obj
 0001:000b09e0       ?SavePref@SPIPMessenger@@QAEXXZ 004b19e0 f   sp_ipmsgr.obj
 0001:000b0ac0       ?LoadPref@SPIPMessenger@@QAEXXZ 004b1ac0 f   sp_ipmsgr.obj
 0001:000b0de0       ?InitBroadcastAddr@SPIPMessenger@@QAEXXZ 004b1de0 f   sp_ipmsgr.obj
 0001:000b0f90       ?AddBroadcastAddr@SPIPMessenger@@QAEXPAD@Z 004b1f90 f   sp_ipmsgr.obj
 0001:000b1120       ?DelBroadcastAddr@SPIPMessenger@@QAEXJ@Z 004b2120 f   sp_ipmsgr.obj
 0001:000b1230       ?Add@?$JArray@D@@QAEXPBDJ@Z 004b2230 f i sp_ipmsgr.obj
 0001:000b1310       ?Realloc@?$JArray@USPSerikoAnimationQueue@@@@QAE_NK@Z 004b2310 f i sp_ipmsgr.obj
 0001:000b1310       ?Realloc@?$JArray@VJSockAddr@@@@QAE_NK@Z 004b2310 f i sp_ipmsgr.obj
 0001:000b13c0       ??0SPKei@@QAE@XZ           004b23c0 f   sp_kei.obj
 0001:000b14e0       ??1SPKei@@QAE@XZ           004b24e0 f   sp_kei.obj
 0001:000b1500       ?Extract@SPKei@@QAEHPAD00H@Z 004b2500 f   sp_kei.obj
 0001:000b1590       ?CanExtract@SPKei@@QAEHPAD@Z 004b2590 f   sp_kei.obj
 0001:000b1620       ?CanExtractExtension@SPKei@@QAEPBDXZ 004b2620 f   sp_kei.obj
 0001:000b1640       ?Compress@SPKei@@QAEHPAD00H@Z 004b2640 f   sp_kei.obj
 0001:000b16c0       ?IsSelfUnpack@SPKei@@QAEHPAD@Z 004b26c0 f   sp_kei.obj
 0001:000b16f0       ??0SPLogData@@QAE@PBG0I@Z  004b26f0 f   sp_logdata.obj
 0001:000b1810       ??_GSPLogData@@UAEPAXI@Z   004b2810 f i sp_logdata.obj
 0001:000b1810       ??_ESPLogData@@UAEPAXI@Z   004b2810 f i sp_logdata.obj
 0001:000b1840       ??1SPLogData@@UAE@XZ       004b2840 f i sp_logdata.obj
 0001:000b18a0       ?Set@SPLogData@@QAEXPBG0I@Z 004b28a0 f   sp_logdata.obj
 0001:000b1a80       ?SetTime@SPLogData@@QAEXXZ 004b2a80 f   sp_logdata.obj
 0001:000b1a90       ?GetTime@SPLogData@@QAEXAAU_SYSTEMTIME@@@Z 004b2a90 f   sp_logdata.obj
 0001:000b1ab0       ?GetTypeText@SPScriptLogData@@UAEXAAVJString@@@Z 004b2ab0 f   sp_logdata.obj
 0001:000b1d00       ?GetIconID@SPScriptLogData@@UAEHXZ 004b2d00 f   sp_logdata.obj
 0001:000b1d20       ?GetTypeText@SPErrorLogData@@UAEXAAVJString@@@Z 004b2d20 f   sp_logdata.obj
 0001:000b1d40       ?GetIconID@SPErrorLogData@@UAEHXZ 004b2d40 f   sp_logdata.obj
 0001:000b1d90       ?LevelTextToNum@SPErrorLogData@@SAHPBD@Z 004b2d90 f   sp_logdata.obj
 0001:000b1e40       ?LevelNumToText@SPErrorLogData@@SAPBDI@Z 004b2e40 f   sp_logdata.obj
 0001:000b1e90       ?Release@SPLogManagerCore@@QAEXXZ 004b2e90 f   sp_logmanager.obj
 0001:000b1f00       ?SetNum@SPLogManagerCore@@QAEXI@Z 004b2f00 f   sp_logmanager.obj
 0001:000b1f30       ?Add@SPLogManagerCore@@QAEKPBG0I@Z 004b2f30 f   sp_logmanager.obj
 0001:000b2130       ?SetText@SPLogManagerCore@@QAE_NKPBG@Z 004b3130 f   sp_logmanager.obj
 0001:000b21d0       ?New@SPLogManagerScript@@EAEPAVSPLogData@@PBG0I@Z 004b31d0 f   sp_logmanager.obj
 0001:000b2240       ??_ESPScriptLogData@@UAEPAXI@Z 004b3240 f i sp_logmanager.obj
 0001:000b2240       ??_GSPScriptLogData@@UAEPAXI@Z 004b3240 f i sp_logmanager.obj
 0001:000b2270       ??1SPScriptLogData@@UAE@XZ 004b3270 f i sp_logmanager.obj
 0001:000b22d0       ?New@SPLogManagerError@@EAEPAVSPLogData@@PBG0I@Z 004b32d0 f   sp_logmanager.obj
 0001:000b2340       ??_ESPErrorLogData@@UAEPAXI@Z 004b3340 f i sp_logmanager.obj
 0001:000b2340       ??_GSPErrorLogData@@UAEPAXI@Z 004b3340 f i sp_logmanager.obj
 0001:000b2370       ??1SPErrorLogData@@UAE@XZ  004b3370 f i sp_logmanager.obj
 0001:000b23d0       ??0SPMakoto@@QAE@PAVSPGhost@@@Z 004b33d0 f   sp_makoto.obj
 0001:000b2540       ?GetModuleDesc@SPMakoto@@UAEPBGXZ 004b3540 f i sp_makoto.obj
 0001:000b2550       ??_ESPMakoto@@UAEPAXI@Z    004b3550 f i sp_makoto.obj
 0001:000b2550       ??_GSPMakoto@@UAEPAXI@Z    004b3550 f i sp_makoto.obj
 0001:000b2580       ??1SPMakoto@@UAE@XZ        004b3580 f i sp_makoto.obj
 0001:000b2600       ?LoadProc@SPMakoto@@QAEHPAD@Z 004b3600 f   sp_makoto.obj
 0001:000b2d60       ?Load@SPMakoto@@QAEHPAD@Z  004b3d60 f   sp_makoto.obj
 0001:000b3110       ?Unload@SPMakoto@@QAEXXZ   004b4110 f   sp_makoto.obj
 0001:000b31a0       ?Notify@SPMakoto@@QAE_NPBGPAPAGK@Z 004b41a0 f   sp_makoto.obj
 0001:000b3200       ?NotifyReal@SPMakoto@@AAE_NPBGPAPAGK@Z 004b4200 f   sp_makoto.obj
 0001:000b3590       ?Translate@SPMakoto@@QAEPBGPBG0H@Z 004b4590 f   sp_makoto.obj
 0001:000b35e0       ?TranslateReal@SPMakoto@@AAEPBGPBG0H@Z 004b45e0 f   sp_makoto.obj
 0001:000b3ae0       ?GetVersion@SPMakoto@@QAEHXZ 004b4ae0 f   sp_makoto.obj
 0001:000b3c90       ??_ESPMakoto@@WCBM@AEPAXI@Z 004b4c90 f i sp_makoto.obj
 0001:000b3ce0       ?Release@SPMenuItem@@QAEXXZ 004b4ce0 f   sp_menu.obj
 0001:000b3d90       ?DeleteChildren@SPMenuItem@@QAEXK@Z 004b4d90 f   sp_menu.obj
 0001:000b3e20       ?AddMenuItemW@SPMenuItem@@QAEPAV1@PAGK@Z 004b4e20 f   sp_menu.obj
 0001:000b4050       ??0SPMenuItem@@QAE@XZ      004b5050 f i sp_menu.obj
 0001:000b4120       ??1SPMenuItem@@QAE@XZ      004b5120 f i sp_menu.obj
 0001:000b4170       ?AddMenuItemA@SPMenuItem@@QAEPAV1@PADK@Z 004b5170 f   sp_menu.obj
 0001:000b4220       ?ModifyAsSubMenuParent@SPMenuItem@@QAEXPAX@Z 004b5220 f   sp_menu.obj
 0001:000b4240       ?SetMenu@SPMenuItem@@QAEHPAX@Z 004b5240 f   sp_menu.obj
 0001:000b4340       ?GetMenuItemByPosition@SPMenuItem@@QAEPAV1@H@Z 004b5340 f   sp_menu.obj
 0001:000b4370       ?GetMenuItemByCommand@SPMenuItem@@QAEPAV1@K@Z 004b5370 f   sp_menu.obj
 0001:000b43c0       ?ModifyMenuItemW@SPMenuItem@@QAEXPAG@Z 004b53c0 f   sp_menu.obj
 0001:000b4430       ?GetMenuHeight@SPMenuItem@@QAEHXZ 004b5430 f   sp_menu.obj
 0001:000b4460       ??0SPMenu@@QAE@XZ          004b5460 f   sp_menu.obj
 0001:000b45e0       ??1SPSimpleBrush@@QAE@XZ   004b55e0 f i sp_menu.obj
 0001:000b45f0       ??1SPMenu@@QAE@XZ          004b55f0 f   sp_menu.obj
 0001:000b4760       ?Release@SPMenu@@QAEXXZ    004b5760 f   sp_menu.obj
 0001:000b47e0       ?ReleaseFonts@SPMenu@@AAEXXZ 004b57e0 f   sp_menu.obj
 0001:000b4840       ?InitMenuProp@SPMenu@@QAEXXZ 004b5840 f   sp_menu.obj
 0001:000b4980       ?SetMenuFlag@SPMenu@@SIXAAIPAD@Z 004b5980 f   sp_menu.obj
 0001:000b49e0       ?SetMenuFlag@SPMenu@@SIXAAIPAG@Z 004b59e0 f   sp_menu.obj
 0001:000b4a40       ?LoadFromDescript@SPMenu@@QAEHPAD0H@Z 004b5a40 f   sp_menu.obj
 0001:000b4de0       ?LoadMenuDescript@SPMenu@@QAEHPAD@Z 004b5de0 f   sp_menu.obj
 0001:000b4f10       ?SetPath@SPMenu@@QAEXPAPADI@Z 004b5f10 f   sp_menu.obj
 0001:000b50d0       ?LoadSurface@SPMenu@@QAEHXZ 004b60d0 f   sp_menu.obj
 0001:000b51d0       ?LoadSurfaceBackground@SPMenu@@QAEHH@Z 004b61d0 f   sp_menu.obj
 0001:000b51f0       ?LoadSurfaceForeground@SPMenu@@QAEHH@Z 004b61f0 f   sp_menu.obj
 0001:000b5210       ?LoadSurfaceSidebar@SPMenu@@QAEHH@Z 004b6210 f   sp_menu.obj
 0001:000b5230       ?LoadMultipleMenuImage@SPMenu@@AAEHHAAVJString@@AAV?$JPtrArray@PAVJSurface@@@@@Z 004b6230 f   sp_menu.obj
 0001:000b5620       ?ShowPopup@SPMenu@@QAEXPAX0@Z 004b6620 f   sp_menu.obj
 0001:000b56b0       ?PreparePopup@SPMenu@@QAEXPAX0@Z 004b66b0 f   sp_menu.obj
 0001:000b5a10       ?MeasureItem@SPMenu@@QAEHHPAUtagMEASUREITEMSTRUCT@@@Z 004b6a10 f   sp_menu.obj
 0001:000b5b90       ?DrawItem@SPMenu@@QAEHHPAUtagDRAWITEMSTRUCT@@@Z 004b6b90 f   sp_menu.obj
 0001:000b6270       ?LoadSurfaceDataFromName@SPMenu@@AAEPAVJSurface@@PAD@Z 004b7270 f   sp_menu.obj
 0001:000b6460       ?NewItem@SPMenu@@SAPAVSPMenuItem@@XZ 004b7460 f   sp_menu.obj
 0001:000b6470       ?DeleteItem@SPMenu@@SAXPAVSPMenuItem@@@Z 004b7470 f   sp_menu.obj
 0001:000b6490       ??0?$SPCacheObj@VSPMenuItem@@VJDummyLockSection@@VJDummyLock@@@@QAE@K@Z 004b7490 f i sp_menu.obj
 0001:000b64e0       ??1?$SPCacheObj@VSPMenuItem@@VJDummyLockSection@@VJDummyLock@@@@QAE@XZ 004b74e0 f i sp_menu.obj
 0001:000b65a0       ?New@?$SPCacheObj@VSPMenuItem@@VJDummyLockSection@@VJDummyLock@@@@QAEPAVSPMenuItem@@XZ 004b75a0 f i sp_menu.obj
 0001:000b66e0       ?Delete@?$SPCacheObj@VSPMenuItem@@VJDummyLockSection@@VJDummyLock@@@@QAEXPAVSPMenuItem@@@Z 004b76e0 f i sp_menu.obj
 0001:000b6830       ?DeleteArray@?$SPCacheObj@VSPMenuItem@@VJDummyLockSection@@VJDummyLock@@@@QAEXAAV?$JPtrArray@PAVSPMenuItem@@@@@Z 004b7830 f i sp_menu.obj
 0001:000b6960       ??0SPMenuHack@@QAE@XZ      004b7960 f   sp_menuhack.obj
 0001:000b69d0       ??1SPMenuHack@@QAE@XZ      004b79d0 f   sp_menuhack.obj
 0001:000b6a10       ?EnterMenuLoop@SPMenuHack@@QAEXXZ 004b7a10 f   sp_menuhack.obj
 0001:000b6a30       ?ExitMenuLoop@SPMenuHack@@QAEXXZ 004b7a30 f   sp_menuhack.obj
 0001:000b6a70       ?GetMenuData@SPMenuHack@@QAEPAUtagSPMenuHackData@@PAUHWND__@@@Z 004b7a70 f   sp_menuhack.obj
 0001:000b6ac0       ?AddMenuData@SPMenuHack@@QAEPAUtagSPMenuHackData@@PAUHWND__@@@Z 004b7ac0 f   sp_menuhack.obj
 0001:000b6c40       ?RestoreMenu@SPMenuHack@@QAEXPAUtagSPMenuHackData@@@Z 004b7c40 f   sp_menuhack.obj
 0001:000b6c80       ?DeleteMenuData@SPMenuHack@@QAEXPAUtagSPMenuHackData@@@Z 004b7c80 f   sp_menuhack.obj
 0001:000b6d10       ?CallWndProc@SPMenuHack@@CGJHIJ@Z 004b7d10 f   sp_menuhack.obj
 0001:000b6e10       ?WindowProc@SPMenuHack@@CGJPAUHWND__@@IIJ@Z 004b7e10 f   sp_menuhack.obj
 0001:000b7100       ??0SPModule@@QAE@XZ        004b8100 f   sp_module.obj
 0001:000b7310       ??1JMutex@@UAE@XZ          004b8310 f i sp_module.obj
 0001:000b7360       ?Lock@JMutex@@UAEXXZ       004b8360 f i sp_module.obj
 0001:000b7370       ??_EJMutex@@UAEPAXI@Z      004b8370 f i sp_module.obj
 0001:000b7370       ??_GJMutex@@UAEPAXI@Z      004b8370 f i sp_module.obj
 0001:000b73a0       ?GetModuleDesc@SPModule@@UAEPBGXZ 004b83a0 f i sp_module.obj
 0001:000b73b0       ??_GSPModule@@UAEPAXI@Z    004b83b0 f i sp_module.obj
 0001:000b73b0       ??_ESPModule@@UAEPAXI@Z    004b83b0 f i sp_module.obj
 0001:000b73e0       ??1SPModule@@UAE@XZ        004b83e0 f   sp_module.obj
 0001:000b7520       ?Release@SPModule@@UAEXXZ  004b8520 f   sp_module.obj
 0001:000b7520       ?Unload@SPScheduleSensor@@QAEXXZ 004b8520 f   sp_module.obj
 0001:000b7560       ?ExecLoadSEH@SPModule@@QAEHP6AHPAXJ@Z0J@Z 004b8560 f   sp_module.obj
 0001:000b76d0       ?ExecUnloadSEH@SPModule@@QAEHP6AHXZ@Z 004b86d0 f   sp_module.obj
 0001:000b7820       ?ExecRequestSEH@SPModule@@QAEPAXP6APAXPAXPAJ@Z01@Z 004b8820 f   sp_module.obj
 0001:000b7980       ?ExecGetSEH@SPModule@@QAEPAGP6APAXPAJ@Z@Z 004b8980 f   sp_module.obj
 0001:000b7ad0       ?CallGetVersionAndLoad@SPModule@@IAE?AVSPModuleGetVersionResult@@PAG@Z 004b8ad0 f   sp_module.obj
 0001:000b7c80       ?GetGenericProcAddress@SPModule@@IAEXXZ 004b8c80 f   sp_module.obj
 0001:000b7ce0       ?SetPath@SPModule@@UAEXPAD@Z 004b8ce0 f   sp_module.obj
 0001:000b7d40       ?ToString@SPModule@@QAEPAGPAXJ@Z 004b8d40 f   sp_module.obj
 0001:000b7e10       ?ToHandleW@SPModule@@QAEPAXPBGAAJ@Z 004b8e10 f   sp_module.obj
 0001:000b7f10       ?ToHandleA@SPModule@@SAPAXPBDAAJ@Z 004b8f10 f   sp_module.obj
 0001:000b7f50       ?ToHandleA@SPModule@@SAPAXAAVJString@@AAJ@Z 004b8f50 f   sp_module.obj
 0001:000b7f70       ?GMFree@SPModule@@SAXPAX@Z 004b8f70 f   sp_module.obj
 0001:000b7fd0       ?GMSize@SPModule@@SAJPAXJ@Z 004b8fd0 f   sp_module.obj
 0001:000b8050       ?GetProcAddressModule@SPModule@@QAEPAXPAD@Z 004b9050 f   sp_module.obj
 0001:000b8090       ?ParseCharset@SPModule@@QAEXAAVSPParamManager@@@Z 004b9090 f   sp_module.obj
 0001:000b8150       ??_ESPModule@@WCBM@AEPAXI@Z 004b9150 f i sp_module.obj
 0001:000b8160       ?SendMessageA@SPMsgSenderSSTP@@UAEHPADH@Z 004b9160 f   sp_msgsender.obj
 0001:000b8350       ?Loop@SPMsgSenderSSTP@@UAEHXZ 004b9350 f   sp_msgsender.obj
 0001:000b8450       ?SendMessageA@SPMsgSenderIPMessenger@@UAEHPADH@Z 004b9450 f   sp_msgsender.obj
 0001:000b84a0       ?Loop@SPMsgSenderIPMessenger@@UAEHXZ 004b94a0 f   sp_msgsender.obj
 0001:000b8520       ??0SPMessengerUser@@QAE@XZ 004b9520 f   sp_msguser.obj
 0001:000b8680       ?Clear@SPMessengerUser@@QAEXXZ 004b9680 f   sp_msguser.obj
 0001:000b88b0       ??1SPMessengerUser@@QAE@XZ 004b98b0 f   sp_msguser.obj
 0001:000b89a0       ?GetAddress@SPMessengerUser@@QAEPADXZ 004b99a0 f   sp_msguser.obj
 0001:000b89e0       ?GetAddressNum@SPMessengerUser@@QAEABVJSockAddr@@XZ 004b99e0 f   sp_msguser.obj
 0001:000b8a10       ?SetAddress@SPMessengerUser@@QAEXPBD@Z 004b9a10 f   sp_msguser.obj
 0001:000b8a30       ?ClearAddress@SPMessengerUser@@QAEXXZ 004b9a30 f   sp_msguser.obj
 0001:000b8b10       ?IsSSTPAware@SPMessengerUser@@QAE_NXZ 004b9b10 f   sp_msguser.obj
 0001:000b8b20       ??8SPMessengerUser@@QAEHAAV0@@Z 004b9b20 f   sp_msguser.obj
 0001:000b8c40       ?AddLog@SPMessengerUser@@QAEXPBG0II_N@Z 004b9c40 f   sp_msguser.obj
 0001:000b8de0       ??_GSPMessengerLogData@@UAEPAXI@Z 004b9de0 f i sp_msguser.obj
 0001:000b8de0       ??_ESPMessengerLogData@@UAEPAXI@Z 004b9de0 f i sp_msguser.obj
 0001:000b8e10       ??1SPMessengerLogData@@UAE@XZ 004b9e10 f i sp_msguser.obj
 0001:000b8e70       ?DeleteLog@SPMessengerUser@@QAEXXZ 004b9e70 f   sp_msguser.obj
 0001:000b8ec0       ?GetTypeText@SPMessengerLogData@@UAEXAAVJString@@@Z 004b9ec0 f   sp_msguser.obj
 0001:000b8ef0       ?GetIconID@SPMessengerLogData@@UAEHXZ 004b9ef0 f   sp_msguser.obj
 0001:000b8f00       ?GetSPMessengerUserManager@@YAAAVSPMessengerUserManager@@XZ 004b9f00 f   sp_msguser.obj
 0001:000b8f50       ??0SPMessengerUserManager@@QAE@XZ 004b9f50 f   sp_msguser.obj
 0001:000b9000       ??1SPMessengerUserManager@@QAE@XZ 004ba000 f   sp_msguser.obj
 0001:000b9140       ?ConstructUser@SPMessengerUserManager@@QAEPAVSPMessengerUser@@ABVJSockAddr@@HH@Z 004ba140 f   sp_msguser.obj
 0001:000b92a0       ?DestructUser@SPMessengerUserManager@@QAEXPAVSPMessengerUser@@@Z 004ba2a0 f   sp_msguser.obj
 0001:000b93c0       ?GetUserByIPAddress@SPMessengerUserManager@@QAEPAVSPMessengerUser@@ABVJSockAddr@@@Z 004ba3c0 f   sp_msguser.obj
 0001:000b93f0       ?GetRegUserByIPAddress@SPMessengerUserManager@@QAEPAVSPMessengerUser@@ABVJSockAddr@@@Z 004ba3f0 f   sp_msguser.obj
 0001:000b9430       ?GetTempUserByIPAddress@SPMessengerUserManager@@QAEPAVSPMessengerUser@@ABVJSockAddr@@@Z 004ba430 f   sp_msguser.obj
 0001:000b9480       ?GetTempUser@SPMessengerUserManager@@QAEPAVSPMessengerUser@@PAV2@@Z 004ba480 f   sp_msguser.obj
 0001:000b94c0       ?AddUser@SPMessengerUserManager@@QAEHPAVSPMessengerUser@@@Z 004ba4c0 f   sp_msguser.obj
 0001:000b95b0       ?AddTempUser@SPMessengerUserManager@@QAEHPAVSPMessengerUser@@@Z 004ba5b0 f   sp_msguser.obj
 0001:000b96b0       ?DelUser@SPMessengerUserManager@@QAEHPAVSPMessengerUser@@@Z 004ba6b0 f   sp_msguser.obj
 0001:000b9730       ?DelTempUser@SPMessengerUserManager@@QAEHPAVSPMessengerUser@@@Z 004ba730 f   sp_msguser.obj
 0001:000b97b0       ?DelIPMessengerUsers@SPMessengerUserManager@@QAEHXZ 004ba7b0 f   sp_msguser.obj
 0001:000b9850       ?LoadUsers@SPMessengerUserManager@@QAEHPAD@Z 004ba850 f   sp_msguser.obj
 0001:000b9b90       ?SaveUsers@SPMessengerUserManager@@QAEHPAD@Z 004bab90 f   sp_msguser.obj
 0001:000b9e60       ?Release@SPMultiFile@@QAEXXZ 004bae60 f   sp_multifile.obj
 0001:000b9eb0       ?Add@SPMultiFile@@QAEXPAD@Z 004baeb0 f   sp_multifile.obj
 0001:000ba0b0       ?Delete@SPMultiFile@@QAEXK@Z 004bb0b0 f   sp_multifile.obj
 0001:000ba120       ?AddFromHDROP@SPMultiFile@@QAEXPAX@Z 004bb120 f   sp_multifile.obj
 0001:000ba320       ??1SPCalendarImage@@QAE@XZ 004bb320 f i sp_multifile.obj
 0001:000ba320       ??1SPFolderDialog@@QAE@XZ  004bb320 f i sp_multifile.obj
 0001:000ba320       ??1SPMCIPlayerDesc@@QAE@XZ 004bb320 f i sp_multifile.obj
 0001:000ba320       ??1SPMultiFileEntry@@QAE@XZ 004bb320 f i sp_multifile.obj
 0001:000ba330       ?Get@SPMultiFile@@QAEPAVSPMultiFileEntry@@K@Z 004bb330 f   sp_multifile.obj
 0001:000ba350       ?GetExtension@SPMultiFile@@QAEPBDK@Z 004bb350 f   sp_multifile.obj
 0001:000ba390       ?FindExtension@SPMultiFile@@QAEPAV1@PBD@Z 004bb390 f   sp_multifile.obj
 0001:000ba580       ??0SPNews@@QAE@AAVSPSettings@@@Z 004bb580 f   sp_news.obj
 0001:000ba6b0       ?Release@SPNews@@QAEXXZ    004bb6b0 f   sp_news.obj
 0001:000ba6c0       ?GetScript@SPNews@@QAEPAGXZ 004bb6c0 f   sp_news.obj
 0001:000ba710       ?Load@SPNews@@QAEHPAD@Z    004bb710 f   sp_news.obj
 0001:000ba8d0       ??0SPNotifyIcon@@QAE@XZ    004bb8d0 f   sp_notifyicon.obj
 0001:000ba960       ?SetIcon@SPNotifyIcon@@QAEXPAUHICON__@@@Z 004bb960 f   sp_notifyicon.obj
 0001:000ba980       ?GetIcon@SPNotifyIcon@@QAEPAUHICON__@@XZ 004bb980 f   sp_notifyicon.obj
 0001:000ba990       ?SetLargeIcon@SPNotifyIcon@@QAEXPAUHICON__@@@Z 004bb990 f   sp_notifyicon.obj
 0001:000ba9c0       ?GetLargeIcon@SPNotifyIcon@@QAEPAUHICON__@@XZ 004bb9c0 f   sp_notifyicon.obj
 0001:000ba9e0       ?Init@SPNotifyIcon@@QAEHPAXI@Z 004bb9e0 f   sp_notifyicon.obj
 0001:000baae0       ?InitVersion@SPNotifyIcon@@AAEXXZ 004bbae0 f   sp_notifyicon.obj
 0001:000bab40       ?SetText@SPNotifyIcon@@QAEXPBG@Z 004bbb40 f   sp_notifyicon.obj
 0001:000baca0       ?SetTrayBalloon@SPNotifyIcon@@QAEXPBG00H@Z 004bbca0 f   sp_notifyicon.obj
 0001:000baed0       ?GetTrayBalloonText@SPNotifyIcon@@QAEXAAVJWString@@@Z 004bbed0 f   sp_notifyicon.obj
 0001:000baf10       ?GetTrayBalloonTitle@SPNotifyIcon@@QAEXAAVJWString@@@Z 004bbf10 f   sp_notifyicon.obj
 0001:000baf50       ?Notify@SPNotifyIcon@@QAEHH@Z 004bbf50 f   sp_notifyicon.obj
 0001:000baf80       ?Add@SPNotifyIcon@@QAEHH@Z 004bbf80 f   sp_notifyicon.obj
 0001:000bafd0       ?Delete@SPNotifyIcon@@QAEHXZ 004bbfd0 f   sp_notifyicon.obj
 0001:000bb000       ?IsValid@SPOtherGhostProp@@QAEHXZ 004bc000 f   sp_other.obj
 0001:000bb020       ?Clear@SPOtherGhostProp@@QAEXXZ 004bc020 f   sp_other.obj
 0001:000bb220       ?IsMatch@SPOtherGhostProp@@QAEHPBG0@Z 004bc220 f   sp_other.obj
 0001:000bb280       ?AddData@SPOtherGhostProp@@QAEXPAD0@Z 004bc280 f   sp_other.obj
 0001:000bb4d0       ?MakeShioriEntry@SPOtherGhostProp@@QAEPAGXZ 004bc4d0 f   sp_other.obj
 0001:000bb510       ?MakeEntry@SPOtherGhostProp@@QAEXAAVJString@@@Z 004bc510 f   sp_other.obj
 0001:000bb850       ??1SPOtherGhost@@QAE@XZ    004bc850 f   sp_other.obj
 0001:000bb950       ?Release@SPOtherGhost@@QAEXXZ 004bc950 f   sp_other.obj
 0001:000bb960       ?GetPropByMD5@SPOtherGhost@@QAEPAVSPOtherGhostProp@@PBD@Z 004bc960 f   sp_other.obj
 0001:000bb980       ?GetPropByName@SPOtherGhost@@QAEPAVSPOtherGhostProp@@PBG0@Z 004bc980 f   sp_other.obj
 0001:000bb9d0       ?GetPropByGhostIndex@SPOtherGhost@@QAEPAVSPOtherGhostProp@@H@Z 004bc9d0 f   sp_other.obj
 0001:000bbb70       ?EliminateInvalidEntry@SPOtherGhost@@QAEXXZ 004bcb70 f   sp_other.obj
 0001:000bbc10       ?Add@SPOtherGhost@@QAEPAVSPOtherGhostProp@@PAD@Z 004bcc10 f   sp_other.obj
 0001:000bbd20       ?WriteFMOEntry@SPOtherGhost@@QAEIAAVJString@@@Z 004bcd20 f   sp_other.obj
 0001:000bbda0       ?GetHWndList@SPOtherGhost@@QAEXAAV?$JArray@PAX@@@Z 004bcda0 f   sp_other.obj
 0001:000bbed0       ?AddSHIORIEntry@SPOtherGhost@@QAEIAAVJWString@@IH@Z 004bced0 f   sp_other.obj
 0001:000bc060       ??1?$SPCacheObj@VSPOtherGhostProp@@VJDummyLockSection@@VJDummyLock@@@@QAE@XZ 004bd060 f i sp_other.obj
 0001:000bc120       ??1SPOtherGhostProp@@QAE@XZ 004bd120 f i sp_other.obj
 0001:000bc230       ?New@?$SPCacheObj@VSPOtherGhostProp@@VJDummyLockSection@@VJDummyLock@@@@QAEPAVSPOtherGhostProp@@XZ 004bd230 f i sp_other.obj
 0001:000bc380       ??0SPOtherGhostProp@@QAE@XZ 004bd380 f i sp_other.obj
 0001:000bc4a0       ?Delete@?$SPCacheObj@VSPOtherGhostProp@@VJDummyLockSection@@VJDummyLock@@@@QAEXPAVSPOtherGhostProp@@@Z 004bd4a0 f i sp_other.obj
 0001:000bc5c0       ?DeleteArray@?$SPCacheObj@VSPOtherGhostProp@@VJDummyLockSection@@VJDummyLock@@@@QAEXAAV?$JPtrArray@PAVSPOtherGhostProp@@@@@Z 004bd5c0 f i sp_other.obj
 0001:000bc660       ??_ESPOtherGhostProp@@QAEPAXI@Z 004bd660 f i sp_other.obj
 0001:000bc6c0       ??1SPOtherFINEServer@@QAE@XZ 004bd6c0 f   sp_otherfine.obj
 0001:000bc810       ??1SPOtherFINEServerProp@@AAE@XZ 004bd810 f i sp_otherfine.obj
 0001:000bc990       ?Clear@SPOtherFINEServerProp@@QAEXXZ 004bd990 f i sp_otherfine.obj
 0001:000bcba0       ?Release@SPOtherFINEServer@@QAEXXZ 004bdba0 f   sp_otherfine.obj
 0001:000bcbc0       ?Add@SPOtherFINEServer@@QAEPAVSPOtherFINEServerProp@@PAD@Z 004bdbc0 f   sp_otherfine.obj
 0001:000bccd0       ?WriteFMOEntry@SPOtherFINEServer@@QAEIAAVJString@@@Z 004bdcd0 f   sp_otherfine.obj
 0001:000bcd50       ?EliminateInvalidEntry@SPOtherFINEServer@@QAEXXZ 004bdd50 f   sp_otherfine.obj
 0001:000bce00       ?AddData@SPOtherFINEServerProp@@QAEXPAD0@Z 004bde00 f   sp_otherfine.obj
 0001:000bcf70       ?MakeEntry@SPOtherFINEServerProp@@QAEXAAVJString@@@Z 004bdf70 f   sp_otherfine.obj
 0001:000bd130       ??1?$SPCacheObj@VSPOtherFINEServerProp@@VJDummyLockSection@@VJDummyLock@@@@QAE@XZ 004be130 f i sp_otherfine.obj
 0001:000bd1f0       ?New@?$SPCacheObj@VSPOtherFINEServerProp@@VJDummyLockSection@@VJDummyLock@@@@QAEPAVSPOtherFINEServerProp@@XZ 004be1f0 f i sp_otherfine.obj
 0001:000bd340       ??0SPOtherFINEServerProp@@AAE@XZ 004be340 f i sp_otherfine.obj
 0001:000bd470       ?Delete@?$SPCacheObj@VSPOtherFINEServerProp@@VJDummyLockSection@@VJDummyLock@@@@QAEXPAVSPOtherFINEServerProp@@@Z 004be470 f i sp_otherfine.obj
 0001:000bd5a0       ?DeleteArray@?$SPCacheObj@VSPOtherFINEServerProp@@VJDummyLockSection@@VJDummyLock@@@@QAEXAAV?$JPtrArray@PAVSPOtherFINEServerProp@@@@@Z 004be5a0 f i sp_otherfine.obj
 0001:000bd6d0       ??_ESPOtherFINEServerProp@@AAEPAXI@Z 004be6d0 f i sp_otherfine.obj
 0001:000bd730       ?Release@SPParamManager@@QAEXXZ 004be730 f   sp_param.obj
 0001:000bd780       ?Set@SPParamManager@@QAEHPAXK@Z 004be780 f   sp_param.obj
 0001:000bd7e0       ?SetText@SPParamManager@@QAEHPAD@Z 004be7e0 f   sp_param.obj
 0001:000bd850       ?ParseValue@SPParamManager@@AAEHPAD@Z 004be850 f   sp_param.obj
 0001:000bda70       ?GetValue@SPParamManager@@QAEPADPBDH@Z 004bea70 f   sp_param.obj
 0001:000bdae0       ?GetValueAll@SPParamManager@@QAEXPBDAAV?$JPtrArray@PAD@@@Z 004beae0 f   sp_param.obj
 0001:000bdc10       ?GetValueReference@SPParamManager@@QAEXPBDAAV?$JPtrArray@PAD@@@Z 004bec10 f   sp_param.obj
 0001:000bdd20       ??0SPPiro@@QAE@XZ          004bed20 f   sp_piro.obj
 0001:000bdda0       ?GetModuleDesc@SPPiro@@UAEPBGXZ 004beda0 f i sp_piro.obj
 0001:000bddb0       ??_ESPPiro@@UAEPAXI@Z      004bedb0 f i sp_piro.obj
 0001:000bddb0       ??_GSPPiro@@UAEPAXI@Z      004bedb0 f i sp_piro.obj
 0001:000bdde0       ??1SPPiro@@UAE@XZ          004bede0 f i sp_piro.obj
 0001:000bddf0       ?Load@SPPiro@@QAEHPAD@Z    004bedf0 f   sp_piro.obj
 0001:000be0b0       ?Unload@SPPiro@@QAEXXZ     004bf0b0 f   sp_piro.obj
 0001:000be140       ?GetScript@SPPiro@@QAEPAGPAG@Z 004bf140 f   sp_piro.obj
 0001:000be1c0       ?GetSongResponse@SPPiro@@QAEPAGPAG@Z 004bf1c0 f   sp_piro.obj
 0001:000be240       ?GetNews@SPPiro@@QAEPAGXZ  004bf240 f   sp_piro.obj
 0001:000be250       ?GetProfile@SPPiro@@QAEPAGXZ 004bf250 f   sp_piro.obj
 0001:000be260       ?OnMinutes@SPPiro@@QAEPAGXZ 004bf260 f   sp_piro.obj
 0001:000be270       ?OnSecond@SPPiro@@QAEPAGXZ 004bf270 f   sp_piro.obj
 0001:000be280       ?OnFileDrop@SPPiro@@QAEPAGPAG@Z 004bf280 f   sp_piro.obj
 0001:000be300       ?OnMouseEvent@SPPiro@@QAEPAGPAGHJJJ@Z 004bf300 f   sp_piro.obj
 0001:000be4a0       ?Notify@SPPiro@@QAEHHHPAG0@Z 004bf4a0 f   sp_piro.obj
 0001:000be6d0       ??_ESPPiro@@WCBM@AEPAXI@Z  004bf6d0 f i sp_piro.obj
 0001:000be6e0       ??0SPPluginEvent@@QAE@PAVSPGhost@@AAVSPShioriEvent@@@Z 004bf6e0 f   sp_plugin.obj
 0001:000be730       ??0SPPlugin@@QAE@XZ        004bf730 f   sp_plugin.obj
 0001:000be8f0       ?GetModuleDesc@SPPlugin@@UAEPBGXZ 004bf8f0 f i sp_plugin.obj
 0001:000be900       ??_ESPPlugin@@UAEPAXI@Z    004bf900 f i sp_plugin.obj
 0001:000be900       ??_GSPPlugin@@UAEPAXI@Z    004bf900 f i sp_plugin.obj
 0001:000be930       ??1SPPlugin@@UAE@XZ        004bf930 f   sp_plugin.obj
 0001:000beaa0       ?WaitForMainThread@SPPlugin@@QAEXXZ 004bfaa0 f   sp_plugin.obj
 0001:000beab0       ?Signal@SPPlugin@@QAEXXZ   004bfab0 f   sp_plugin.obj
 0001:000beac0       ?VarGet@SPPlugin@@UAE_NPAVSPGhost@@PAGAAVJWString@@PAVSPVarSystemNode@@@Z 004bfac0 f   sp_plugin.obj
 0001:000beb10       ?VarSet@SPPlugin@@UAE_NPAVSPGhost@@PAG1PAVSPVarSystemNode@@@Z 004bfb10 f   sp_plugin.obj
 0001:000beb30       ?LoadFromMainThread@SPPlugin@@QAEHXZ 004bfb30 f   sp_plugin.obj
 0001:000beb80       ?Load@SPPlugin@@QAEHXZ     004bfb80 f   sp_plugin.obj
 0001:000bedb0       ?UnloadFromMainThread@SPPlugin@@QAEXXZ 004bfdb0 f   sp_plugin.obj
 0001:000bee00       ?Unload@SPPlugin@@QAEXXZ   004bfe00 f   sp_plugin.obj
 0001:000bee80       ?SetEnable@SPPlugin@@QAEXH@Z 004bfe80 f   sp_plugin.obj
 0001:000beee0       ?Configure@SPPlugin@@QAE_NPAVSPGhost@@@Z 004bfee0 f   sp_plugin.obj
 0001:000bef50       ?ConfigureOld@SPPlugin@@AAEXPAVSPGhost@@@Z 004bff50 f   sp_plugin.obj
 0001:000bf040       ?ReadDescript@SPPlugin@@UAEHXZ 004c0040 f   sp_plugin.obj
 0001:000bf5f0       ?NotifyFolder@SPPlugin@@QAEXK@Z 004c05f0 f   sp_plugin.obj
 0001:000bf6e0       ?RequestFromMainThread@SPPlugin@@QAE_NAAVSPPluginEvent@@@Z 004c06e0 f   sp_plugin.obj
 0001:000bf760       ?Request@SPPlugin@@QAE_NAAVSPPluginEvent@@@Z 004c0760 f   sp_plugin.obj
 0001:000bf830       ?ParseResponse@SPPlugin@@AAE_NPAXJPAVSPGhost@@_N@Z 004c0830 f   sp_plugin.obj
 0001:000c0050       ?ExecRequest@SPPlugin@@AAEPAXAAJPBGPAPAGJPAVSPGhost@@H@Z 004c1050 f   sp_plugin.obj
 0001:000c0590       ?GetVersionNew@SPPlugin@@AAEXXZ 004c1590 f   sp_plugin.obj
 0001:000c06a0       ?OnSecondChange@SPPlugin@@QAEHXZ 004c16a0 f   sp_plugin.obj
 0001:000c0750       ?OnGhostBoot@SPPlugin@@QAE_NPAVSPGhost@@@Z 004c1750 f   sp_plugin.obj
 0001:000c0860       ?OnGhostExit@SPPlugin@@QAE_NPAVSPGhost@@@Z 004c1860 f   sp_plugin.obj
 0001:000c08a0       ?OnGhostInfoUpdate@SPPlugin@@QAE_NPAVSPGhost@@@Z 004c18a0 f   sp_plugin.obj
 0001:000c08e0       ?OnGhostStateChange@SPPlugin@@AAE_NPAGPAVSPGhost@@_NH@Z 004c18e0 f   sp_plugin.obj
 0001:000c0b30       ?SPCNotify@SPPlugin@@UAE_NKPAPAXK@Z 004c1b30 f   sp_plugin.obj
 0001:000c0f80       ??_ESPPlugin@@WCBM@AEPAXI@Z 004c1f80 f i sp_plugin.obj
 0001:000c0f90       ??_ESPPlugin@@WDMM@AEPAXI@Z 004c1f90 f i sp_plugin.obj
 0001:000c0fa0       ?GetSPPluginManager@@YAAAVSPPluginManager@@XZ 004c1fa0 f   sp_pluginmanager.obj
 0001:000c0ff0       ??0SPPluginManager@@QAE@XZ 004c1ff0 f   sp_pluginmanager.obj
 0001:000c1040       ??_GSPPluginManager@@UAEPAXI@Z 004c2040 f i sp_pluginmanager.obj
 0001:000c1040       ??_ESPPluginManager@@UAEPAXI@Z 004c2040 f i sp_pluginmanager.obj
 0001:000c1070       ??1SPPluginManager@@UAE@XZ 004c2070 f   sp_pluginmanager.obj
 0001:000c10f0       ?VarGet@SPPluginManager@@UAE_NPAVSPGhost@@PAGAAVJWString@@PAVSPVarSystemNode@@@Z 004c20f0 f   sp_pluginmanager.obj
 0001:000c1220       ?VarSet@SPPluginManager@@UAE_NPAVSPGhost@@PAG1PAVSPVarSystemNode@@@Z 004c2220 f   sp_pluginmanager.obj
 0001:000c1350       ?Enumerate@SPPluginManager@@QAEHXZ 004c2350 f   sp_pluginmanager.obj
 0001:000c15c0       ?UpdatePluginList@SPPluginManager@@AAEXXZ 004c25c0 f   sp_pluginmanager.obj
 0001:000c16e0       ?SetEnable@SPPluginManager@@QAEXKH@Z 004c26e0 f   sp_pluginmanager.obj
 0001:000c1710       ?IsEnable@SPPluginManager@@QAE_NK@Z 004c2710 f   sp_pluginmanager.obj
 0001:000c1730       ?NotifyFolder@SPPluginManager@@QAEXK@Z 004c2730 f   sp_pluginmanager.obj
 0001:000c1760       ?SendInstalledPlugin@SPPluginManager@@QAEXPAVSPGhost@@@Z 004c2760 f   sp_pluginmanager.obj
 0001:000c1790       ?Load@SPPluginManager@@AAEHPAVSPFolderListData@@@Z 004c2790 f   sp_pluginmanager.obj
 0001:000c1a20       ?Release@SPPluginManager@@QAEXXZ 004c2a20 f   sp_pluginmanager.obj
 0001:000c1a70       ?RequestToAllFromMainThread@SPPluginManager@@QAEXHAAVSPPluginEvent@@@Z 004c2a70 f   sp_pluginmanager.obj
 0001:000c1ac0       ?RequestToAll@SPPluginManager@@QAEXHAAVSPPluginEvent@@@Z 004c2ac0 f   sp_pluginmanager.obj
 0001:000c1b10       ?OnConfigure@SPPluginManager@@QAEHHPAVSPGhost@@@Z 004c2b10 f   sp_pluginmanager.obj
 0001:000c1b40       ?OnSecondChange@SPPluginManager@@QAEXXZ 004c2b40 f   sp_pluginmanager.obj
 0001:000c1b70       ?OnGhostBoot@SPPluginManager@@QAEXPAVSPGhost@@@Z 004c2b70 f   sp_pluginmanager.obj
 0001:000c1bc0       ?OnGhostExit@SPPluginManager@@QAEXPAVSPGhost@@@Z 004c2bc0 f   sp_pluginmanager.obj
 0001:000c1c10       ?OnGhostInfoUpdate@SPPluginManager@@QAEXPAVSPGhost@@@Z 004c2c10 f   sp_pluginmanager.obj
 0001:000c1c60       ?FindIDFromPath@SPPluginManager@@QAEJPBDH@Z 004c2c60 f   sp_pluginmanager.obj
 0001:000c1c80       ?FindIDFromName@SPPluginManager@@QAEJPBG@Z 004c2c80 f   sp_pluginmanager.obj
 0001:000c1ca0       ?FindIDFromIDString@SPPluginManager@@QAEJPBG@Z 004c2ca0 f   sp_pluginmanager.obj
 0001:000c1cf0       ?GetNum@SPPluginManager@@QAEKXZ 004c2cf0 f   sp_pluginmanager.obj
 0001:000c1d00       ?GetPlugin@SPPluginManager@@QAEPAVSPPlugin@@K@Z 004c2d00 f   sp_pluginmanager.obj
 0001:000c1d20       ?_Sort_0@std@@YAXPAPAVSPPlugin@@0U?$PredConverter@PAVSPPlugin@@P6AHPAV1@0@Z@@0@Z 004c2d20 f i sp_pluginmanager.obj
 0001:000c1ff0       ?_Sort@std@@YAXPAPAVSPPlugin@@0U?$PredConverter@PAVSPPlugin@@P6AHPAV1@0@Z@@0@Z 004c2ff0 f i sp_pluginmanager.obj
 0001:000c2130       ?Release@SPPopAccount@@QAEXXZ 004c3130 f   sp_pop.obj
 0001:000c2190       ?LoginIMAP4@SPPopAccount@@AAEHXZ 004c3190 f   sp_pop.obj
 0001:000c2c10       ?LoginIMAP4Search@SPPopAccount@@AAEHXZ 004c3c10 f   sp_pop.obj
 0001:000c2e30       ?LoginIMAP4Fetch@SPPopAccount@@AAEHH@Z 004c3e30 f   sp_pop.obj
 0001:000c3020       ?GetMailListUIDLIMAP4@SPPopAccount@@AAEHXZ 004c4020 f   sp_pop.obj
 0001:000c3550       ??4SPStaticStringArrayW@@QAEAAV0@AAV0@@Z 004c4550 f i sp_pop.obj
 0001:000c3620       ?GetMailHeaderIMAP4@SPPopAccount@@AAEHXZ 004c4620 f   sp_pop.obj
 0001:000c3720       ?LoginPOP@SPPopAccount@@AAEHXZ 004c4720 f   sp_pop.obj
 0001:000c3b70       ?Login@SPPopAccount@@AAEHXZ 004c4b70 f   sp_pop.obj
 0001:000c3be0       ?Logout@SPPopAccount@@AAEXXZ 004c4be0 f   sp_pop.obj
 0001:000c3c50       ?Terminate@SPPopAccount@@QAEXXZ 004c4c50 f   sp_pop.obj
 0001:000c3c80       ?GetMailListUIDL@SPPopAccount@@AAEHXZ 004c4c80 f   sp_pop.obj
 0001:000c3cb0       ?GetMailList@SPPopAccount@@AAEHXZ 004c4cb0 f   sp_pop.obj
 0001:000c3d50       ?GetMailUIDL@SPPopAccount@@AAEHXZ 004c4d50 f   sp_pop.obj
 0001:000c3ff0       ?GetMailHeaderGeneric@SPPopAccount@@AAEHPADP6AH0@ZP6APAD0@Z@Z 004c4ff0 f   sp_pop.obj
 0001:000c4ee0       ?GetMailHeader@SPPopAccount@@AAEHXZ 004c5ee0 f   sp_pop.obj
 0001:000c4f70       ?CheckMail@SPPopAccount@@QAEHPAVSPBalloonWnd@@@Z 004c5f70 f   sp_pop.obj
 0001:000c4fc0       ?CheckMailMain@SPPopAccount@@AAEHXZ 004c5fc0 f   sp_pop.obj
 0001:000c52c0       ?GetAccountID@SPPopAccount@@AAEPADXZ 004c62c0 f   sp_pop.obj
 0001:000c5350       ?AddLastUIDL@SPPopAccount@@QAEXAAVJWString@@H@Z 004c6350 f   sp_pop.obj
 0001:000c5370       ?AddLastLIST@SPPopAccount@@QAEXAAVJWString@@H@Z 004c6370 f   sp_pop.obj
 0001:000c5390       ?AddLastHeaders@SPPopAccount@@QAEXAAVJWString@@H@Z 004c6390 f   sp_pop.obj
 0001:000c53b0       ?AddLastSummaryText@SPPopAccount@@QAEXAAVJWString@@H@Z 004c63b0 f   sp_pop.obj
 0001:000c53d0       ?AddLastTextGeneric@SPPopAccount@@AAEXAAVJWString@@HPBGAAVSPStaticStringArrayW@@@Z 004c63d0 f   sp_pop.obj
 0001:000c54d0       ?SetLastUIDL@SPPopAccount@@QAEXPBG@Z 004c64d0 f   sp_pop.obj
 0001:000c5510       ?GetSPPop@@YAAAVSPPop@@XZ  004c6510 f   sp_pop.obj
 0001:000c5560       ??0SPPop@@QAE@XZ           004c6560 f   sp_pop.obj
 0001:000c56a0       ??_ESPPop@@UAEPAXI@Z       004c66a0 f i sp_pop.obj
 0001:000c56a0       ??_GSPPop@@UAEPAXI@Z       004c66a0 f i sp_pop.obj
 0001:000c56d0       ??1SPPop@@UAE@XZ           004c66d0 f   sp_pop.obj
 0001:000c5820       ?Release@SPPop@@QAEXXZ     004c6820 f   sp_pop.obj
 0001:000c5870       ?CheckMail@SPPop@@QAEHPAVSPGhost@@JH@Z 004c6870 f   sp_pop.obj
 0001:000c5900       ?GetAccount@SPPop@@QAEPAVSPPopAccountProfile@@K@Z 004c6900 f   sp_pop.obj
 0001:000c5930       ?AddAccount@SPPop@@QAEXPAVSPPopAccountProfile@@@Z 004c6930 f   sp_pop.obj
 0001:000c5b90       ??_ESPPopAccount@@UAEPAXI@Z 004c6b90 f i sp_pop.obj
 0001:000c5b90       ??_GSPPopAccount@@UAEPAXI@Z 004c6b90 f i sp_pop.obj
 0001:000c5bc0       ??1SPPopAccount@@UAE@XZ    004c6bc0 f i sp_pop.obj
 0001:000c5e30       ?ModifyAccount@SPPop@@QAEXPAVSPPopAccountProfile@@K@Z 004c6e30 f   sp_pop.obj
 0001:000c5f00       ?DeleteAccount@SPPop@@QAEXK@Z 004c6f00 f   sp_pop.obj
 0001:000c5f80       ?SwapAccount@SPPop@@QAEXKK@Z 004c6f80 f   sp_pop.obj
 0001:000c5fd0       ?NotifyPopAccountToGhosts@SPPop@@AAEXXZ 004c6fd0 f   sp_pop.obj
 0001:000c6100       ?ProgressCounter@SPPop@@QAEHPAVSPGhost@@@Z 004c7100 f   sp_pop.obj
 0001:000c6190       ?Loop@SPPop@@UAEHXZ        004c7190 f   sp_pop.obj
 0001:000c6e30       ?SPCNotify@SPPop@@UAE_NKPAPAXK@Z 004c7e30 f   sp_pop.obj
 0001:000c6e80       ?LoadSetting@SPPop@@QAEHXZ 004c7e80 f   sp_pop.obj
 0001:000c7450       ??0SPPopAccountProfile@@QAE@XZ 004c8450 f i sp_pop.obj
 0001:000c75c0       ?SaveSetting@SPPop@@QAEHXZ 004c85c0 f   sp_pop.obj
 0001:000c7b40       ??1SPPopMessage@@QAE@XZ    004c8b40 f i sp_pop.obj
 0001:000c7b90       ??_ESPPop@@W7AEPAXI@Z      004c8b90 f i sp_pop.obj
 0001:000c7ba0       ?VarGet@SPProp@@UAE_NPAVSPGhost@@PAGAAVJWString@@PAVSPVarSystemNode@@@Z 004c8ba0 f   sp_prop.obj
 0001:000c7cf0       ?ReadDescript@SPProp@@UAEHXZ 004c8cf0 f   sp_prop.obj
 0001:000c7d00       ?LoadFromDescript@SPProp@@QAEHPADHAAVJTokenStream@@@Z 004c8d00 f   sp_prop.obj
 0001:000c7e90       ?GetReadmePath@SPProp@@QAEHAAVJString@@@Z 004c8e90 f   sp_prop.obj
 0001:000c7fc0       ?IsShortcut@SPProp@@QAEHXZ 004c8fc0 f   sp_prop.obj
 0001:000c8000       ?FindFromPath@SPProp@@SAJPAPAV1@KPBDH@Z 004c9000 f   sp_prop.obj
 0001:000c8170       ?FindFromRelativePath@SPProp@@SAJPAPAV1@KPBD@Z 004c9170 f   sp_prop.obj
 0001:000c82c0       ?FindFromName@SPProp@@SAJPAPAV1@KPBG@Z 004c92c0 f   sp_prop.obj
 0001:000c8310       ?GetThumbnail@SPProp@@UAEHAAVJString@@@Z 004c9310 f   sp_prop.obj
 0001:000c8340       ?GetThumbnailReal@SPProp@@IAEHAAVJString@@0@Z 004c9340 f   sp_prop.obj
 0001:000c8620       ?GetUpdateTime@SPProp@@QAEKXZ 004c9620 f   sp_prop.obj
 0001:000c87c0       ?LoadDeferredInfo@SPProp@@UAEXXZ 004c97c0 f   sp_prop.obj
 0001:000c87d0       ?VarGet@SPGhostProp@@UAE_NPAVSPGhost@@PAGAAVJWString@@PAVSPVarSystemNode@@@Z 004c97d0 f   sp_propdef.obj
 0001:000c8880       ?VarSet@SPGhostProp@@UAE_NPAVSPGhost@@PAG1PAVSPVarSystemNode@@@Z 004c9880 f   sp_propdef.obj
 0001:000c88e0       ?IsMatch@SPGhostProp@@QAEHPBG00@Z 004c98e0 f   sp_propdef.obj
 0001:000c8980       ?GetIconName@SPGhostProp@@QAEHAAVJString@@@Z 004c9980 f   sp_propdef.obj
 0001:000c8b50       ?GetThumbnail@SPGhostProp@@UAEHAAVJString@@@Z 004c9b50 f   sp_propdef.obj
 0001:000c8c30       ?LoadDeferredInfo@SPGhostProp@@UAEXXZ 004c9c30 f   sp_propdef.obj
 0001:000c8c40       ?ReadDescript@SPGhostProp@@UAEHXZ 004c9c40 f   sp_propdef.obj
 0001:000c8c50       ?ReadDescriptInternal@SPGhostProp@@AAEHXZ 004c9c50 f   sp_propdef.obj
 0001:000c9040       ?ReadDescript@SPBalloonProp@@UAEHXZ 004ca040 f   sp_propdef.obj
 0001:000c92d0       ?Encode@SPPunycode@@SA_NPBGAAVJString@@@Z 004ca2d0 f   sp_punycode.obj
 0001:000c96f0       ??0SPSchedule@@QAE@XZ      004ca6f0 f   sp_schedule.obj
 0001:000c9780       ?Release@SPSchedule@@QAEXXZ 004ca780 f   sp_schedule.obj
 0001:000c97d0       ?LoadFromStream@SPSchedule@@QAEHAAVJTokenStream@@@Z 004ca7d0 f   sp_schedule.obj
 0001:000c9c30       ??1SPScheduleEntry@@QAE@XZ 004cac30 f i sp_schedule.obj
 0001:000c9cb0       ?Load@SPSchedule@@QAEHPAD@Z 004cacb0 f   sp_schedule.obj
 0001:000c9d60       ?LoadFromMemory@SPSchedule@@QAEHPADJ@Z 004cad60 f   sp_schedule.obj
 0001:000c9dd0       ?Save@SPSchedule@@QAEHXZ   004cadd0 f   sp_schedule.obj
 0001:000ca140       ?SPSchedule_SortEntries@@YAXAAV?$JPtrArray@PAVSPScheduleEntry@@@@@Z 004cb140 f   sp_schedule.obj
 0001:000ca3f0       ?Add@SPSchedule@@QAEHPAVSPScheduleEntry@@@Z 004cb3f0 f   sp_schedule.obj
 0001:000ca5a0       ?AddWithCheck@SPSchedule@@QAEHPAVSPScheduleEntry@@@Z 004cb5a0 f   sp_schedule.obj
 0001:000ca670       ?GetSchedules@SPSchedule@@QAEHAAV?$JPtrArray@PAVSPScheduleEntry@@@@HHH@Z 004cb670 f   sp_schedule.obj
 0001:000ca7e0       ?Del@SPSchedule@@QAEHPAVSPScheduleEntry@@@Z 004cb7e0 f   sp_schedule.obj
 0001:000ca850       ?_Sort@std@@YAXPAPAVSPScheduleEntry@@0U?$PredConverter@PAVSPScheduleEntry@@P6AHPAV1@0@Z@@0@Z 004cb850 f i sp_schedule.obj
 0001:000ca990       ?_Unguarded_partition@std@@YAPAPAVSPGhostTimeEntry@@PAPAV2@0PAV2@U?$PredConverter@PAVSPGhostTimeEntry@@P6AHPAV1@0@Z@@@Z 004cb990 f i sp_schedule.obj
 0001:000ca990       ?_Unguarded_partition@std@@YAPAPAVSPTimingEntry@@PAPAV2@0PAV2@U?$PredConverter@PAVSPTimingEntry@@P6AHPAV1@0@Z@@@Z 004cb990 f i sp_schedule.obj
 0001:000ca990       ?_Unguarded_partition@std@@YAPAPAVSPScheduleEntry@@PAPAV2@0PAV2@U?$PredConverter@PAVSPScheduleEntry@@P6AHPAV1@0@Z@@@Z 004cb990 f i sp_schedule.obj
 0001:000caa10       ??0SPScheduleSensor@@QAE@XZ 004cba10 f   sp_schedulesensor.obj
 0001:000caca0       ?GetModuleDesc@SPScheduleSensor@@UAEPBGXZ 004cbca0 f i sp_schedulesensor.obj
 0001:000cacb0       ??_GSPScheduleSensor@@UAEPAXI@Z 004cbcb0 f i sp_schedulesensor.obj
 0001:000cacb0       ??_ESPScheduleSensor@@UAEPAXI@Z 004cbcb0 f i sp_schedulesensor.obj
 0001:000cace0       ??1SPScheduleSensor@@UAE@XZ 004cbce0 f   sp_schedulesensor.obj
 0001:000caf20       ?Load@SPScheduleSensor@@QAEHPAD0@Z 004cbf20 f   sp_schedulesensor.obj
 0001:000cb080       ?GetVersionNew@SPScheduleSensor@@AAEXXZ 004cc080 f   sp_schedulesensor.obj
 0001:000cb140       ?ExecRequest@SPScheduleSensor@@AAEPAXAAJPAGPAPAGH@Z 004cc140 f   sp_schedulesensor.obj
 0001:000cb530       ?GetSchedule@SPScheduleSensor@@QAEHPAVSPCalendar@@PAVSPScheduleSensorProp@@JJJ@Z 004cc530 f   sp_schedulesensor.obj
 0001:000cb840       ?PostSchedule@SPScheduleSensor@@QAEHPAVSPCalendar@@PAVSPScheduleSensorProp@@PAVSPScheduleEntry@@@Z 004cc840 f   sp_schedulesensor.obj
 0001:000cba70       ?SetupURLData@SPScheduleSensor@@AAEHAAVSPParamManager@@@Z 004cca70 f   sp_schedulesensor.obj
 0001:000cbc80       ?SetupPostDataNew@SPScheduleSensor@@AAEHAAVJWString@@@Z 004ccc80 f   sp_schedulesensor.obj
 0001:000cbda0       ?SetupPostDataOld@SPScheduleSensor@@AAEHAAVJWString@@@Z 004ccda0 f   sp_schedulesensor.obj
 0001:000cbea0       ?ProcessParam@SPScheduleSensor@@AAEXAAVJWString@@PAD@Z 004ccea0 f   sp_schedulesensor.obj
 0001:000cbee0       ?Loop@SPScheduleSensor@@UAEHXZ 004ccee0 f   sp_schedulesensor.obj
 0001:000cbf10       ?GetProc@SPScheduleSensor@@AAEXXZ 004ccf10 f   sp_schedulesensor.obj
 0001:000cc680       ?PostProc@SPScheduleSensor@@AAEXXZ 004cd680 f   sp_schedulesensor.obj
 0001:000cc920       ?ReadURL@SPScheduleSensor@@AAEHPAD@Z 004cd920 f   sp_schedulesensor.obj
 0001:000cc9d0       ?OnFailure@SPScheduleSensor@@AAEHPAG0@Z 004cd9d0 f   sp_schedulesensor.obj
 0001:000cca30       ??_ESPScheduleSensor@@WCBM@AEPAXI@Z 004cda30 f i sp_schedulesensor.obj
 0001:000cca40       ??_ESPScheduleSensor@@WDMM@AEPAXI@Z 004cda40 f i sp_schedulesensor.obj
 0001:000cca50       ?GetEntry@SPScriptCategory@@QAEPAVSPScriptEntry@@PAD@Z 004cda50 f   sp_script.obj
 0001:000ccad0       ??0SPScript@@QAE@XZ        004cdad0 f   sp_script.obj
 0001:000ccbc0       ?Release@SPScript@@QAEXXZ  004cdbc0 f   sp_script.obj
 0001:000ccc60       ??1SPScriptEntry@@QAE@XZ   004cdc60 f i sp_script.obj
 0001:000ccce0       ??1SPScriptCategory@@QAE@XZ 004cdce0 f i sp_script.obj
 0001:000ccdd0       ?LoadScript@SPScript@@QAEHPAD@Z 004cddd0 f   sp_script.obj
 0001:000cd000       ?LoadFromMemory@SPScript@@QAEHPADK@Z 004ce000 f   sp_script.obj
 0001:000cd0c0       ?LoadScriptFromStream@SPScript@@IAEHAAVJStream@@@Z 004ce0c0 f   sp_script.obj
 0001:000cd9d0       ?GetCategory@SPScript@@IAEPAVSPScriptCategory@@PAD@Z 004ce9d0 f   sp_script.obj
 0001:000cda50       ?GetEntryNoCategory@SPScript@@IAEPAVSPScriptEntry@@PAD@Z 004cea50 f   sp_script.obj
 0001:000cdae0       ?GetEntry@SPScript@@IAEPAVSPScriptEntry@@PAD0@Z 004ceae0 f   sp_script.obj
 0001:000cdb60       ?GetScript@SPScript@@QAEPAGPAG@Z 004ceb60 f   sp_script.obj
 0001:000cdc70       ?GetScriptWithCategory@SPScript@@QAEPAGPAD0@Z 004cec70 f   sp_script.obj
 0001:000cdc90       ?Copy@?$JArray@D@@QAE_NPBDK@Z 004cec90 f i sp_script.obj
 0001:000cddb0       ?SPLoadSerikoDLLs@@YIXXZ   004cedb0 f   sp_seriko.obj
 0001:000cddd0       ?SPIsLayeredWindowSupported@@YIHXZ 004cedd0 f   sp_seriko.obj
 0001:000cdde0       ??0SPSeriko@@QAE@XZ        004cede0 f   sp_seriko.obj
 0001:000ce090       ??1SPSeriko@@QAE@XZ        004cf090 f   sp_seriko.obj
 0001:000ce300       ?AllocAnimeBase@SPSeriko@@IAEPAVSPAnimeBase@@J@Z 004cf300 f   sp_seriko.obj
 0001:000ce4a0       ?LoadSurfaceOld@SPSeriko@@IAEHPBDPADJ@Z 004cf4a0 f   sp_seriko.obj
 0001:000ce720       ?GetSurfaceNum@SPSeriko@@IAEHPAD@Z 004cf720 f   sp_seriko.obj
 0001:000ce760       ?LoadSurfacePicts@SPSeriko@@QAEHPBDPAD@Z 004cf760 f   sp_seriko.obj
 0001:000ceac0       ?ProcessSurfaceDef@SPSeriko@@IAEKXZ 004cfac0 f   sp_seriko.obj
 0001:000cf180       ?LoadSurfaceAlias@SPSeriko@@QAEHPBDPADPAE@Z 004d0180 f   sp_seriko.obj
 0001:000cf700       ?Release@SPSeriko@@QAEXH@Z 004d0700 f   sp_seriko.obj
 0001:000cf8f0       ??1SPSurfaceTable@@QAE@XZ  004d08f0 f i sp_seriko.obj
 0001:000cf980       ?ReleaseSurface@SPSeriko@@QAEXXZ 004d0980 f   sp_seriko.obj
 0001:000cfb20       ?ReleaseBind@SPSeriko@@QAEXXZ 004d0b20 f   sp_seriko.obj
 0001:000cfb90       ??1SPBindProp@@QAE@XZ      004d0b90 f i sp_seriko.obj
 0001:000cfc50       ?BalloonDirection@SPSeriko@@SIHH@Z 004d0c50 f   sp_seriko.obj
 0001:000cfca0       ?SetDefault@SPSeriko@@QAEXPAVSPGhostProp@@@Z 004d0ca0 f   sp_seriko.obj
 0001:000cfcf0       ?LoadCursorA@SPSeriko@@QAEPAXPBD@Z 004d0cf0 f   sp_seriko.obj
 0001:000cfd10       ?LoadDescript@SPSeriko@@QAEHPADH@Z 004d0d10 f   sp_seriko.obj
 0001:000d06f0       ?StartAnimation@SPSeriko@@QAEXXZ 004d16f0 f   sp_seriko.obj
 0001:000d0720       ?StopAnimation@SPSeriko@@QAEXH@Z 004d1720 f   sp_seriko.obj
 0001:000d0750       ?SuspendAnimation@SPSeriko@@QAEXXZ 004d1750 f   sp_seriko.obj
 0001:000d0780       ?ResumeAnimation@SPSeriko@@QAEXXZ 004d1780 f   sp_seriko.obj
 0001:000d07d0       ?IsSurfaceDefinedChar@SPSeriko@@QAEHH@Z 004d17d0 f   sp_seriko.obj
 0001:000d0810       ?ShowCharWindow@SPSeriko@@QAEXHH@Z 004d1810 f   sp_seriko.obj
 0001:000d08a0       ?HideChars@SPSeriko@@QAEXXZ 004d18a0 f   sp_seriko.obj
 0001:000d08f0       ?LoadSettings@SPSeriko@@QAEXAAVSPSettings@@0@Z 004d18f0 f   sp_seriko.obj
 0001:000d0a00       ?SetScalingPercent@SPSeriko@@QAEXJJ@Z 004d1a00 f   sp_seriko.obj
 0001:000d0ac0       ?SetSurfaceChar@SPSeriko@@QAEHJPAGHH_N@Z 004d1ac0 f   sp_seriko.obj
 0001:000d0b20       ?SetSurfaceChar@SPSeriko@@QAEHJJH_N@Z 004d1b20 f   sp_seriko.obj
 0001:000d0ca0       ?GetBalloonOffsetChar@SPSeriko@@QAEXHAAUtagPOINT@@@Z 004d1ca0 f   sp_seriko.obj
 0001:000d0ce0       ?SetBalloonOffsetChar@SPSeriko@@QAEXHHHH@Z 004d1ce0 f   sp_seriko.obj
 0001:000d0d60       ?ResetBalloonOffset@SPSeriko@@QAEXXZ 004d1d60 f   sp_seriko.obj
 0001:000d0e20       ?SetPatternChar@SPSeriko@@QAEXJJH@Z 004d1e20 f   sp_seriko.obj
 0001:000d0e50       ?SetPatternCharArray@SPSeriko@@QAEXJAAV?$JArray@J@@H@Z 004d1e50 f   sp_seriko.obj
 0001:000d0e80       ?TalkChar@SPSeriko@@QAEXH@Z 004d1e80 f   sp_seriko.obj
 0001:000d0ea0       ?YenE@SPSeriko@@QAEXXZ     004d1ea0 f   sp_seriko.obj
 0001:000d0ed0       ?WaitAnimeChar@SPSeriko@@QAEXHH@Z 004d1ed0 f   sp_seriko.obj
 0001:000d0f00       ?ControlAnimeChar@SPSeriko@@QAEXJJJPAG@Z 004d1f00 f   sp_seriko.obj
 0001:000d0fb0       ?GetBaseRectChar@SPSeriko@@QAEXHAAVJRect@@@Z 004d1fb0 f   sp_seriko.obj
 0001:000d0ff0       ?ScaleMousePtChar@SPSeriko@@QAEXHAAVJPoint@@@Z 004d1ff0 f   sp_seriko.obj
 0001:000d1010       ?GetCollisionDataCharCompat@SPSeriko@@QAEXHAAVJRect@@PAG@Z 004d2010 f   sp_seriko.obj
 0001:000d1050       ?GetCollisionNameChar@SPSeriko@@QAEPAGHHHPAJ@Z 004d2050 f   sp_seriko.obj
 0001:000d1080       ?GetCollisionExecuteDataChar@SPSeriko@@QAEXHAAVJWString@@@Z 004d2080 f   sp_seriko.obj
 0001:000d10a0       ?CharKinokoPos@SPSeriko@@QAEXHPAUtagPOINT@@@Z 004d20a0 f   sp_seriko.obj
 0001:000d10c0       ?CharCenterPos@SPSeriko@@QAEXHPAUtagPOINT@@@Z 004d20c0 f   sp_seriko.obj
 0001:000d10e0       ?AddCharacter@SPSeriko@@QAEPAVSPSerikoAnimation@@H@Z 004d20e0 f   sp_seriko.obj
 0001:000d11e0       ?PresentChar@SPSeriko@@QAEXH@Z 004d21e0 f   sp_seriko.obj
 0001:000d1200       ?LockRedrawChar@SPSeriko@@QAEXHH@Z 004d2200 f   sp_seriko.obj
 0001:000d1220       ?UnlockRedrawAll@SPSeriko@@QAEXXZ 004d2220 f   sp_seriko.obj
 0001:000d1250       ?GetBindPropChar@SPSeriko@@QAEPAVSPBindProp@@H@Z 004d2250 f   sp_seriko.obj
 0001:000d1280       ?GetBindPropCharNum@SPSeriko@@QAEKH@Z 004d2280 f   sp_seriko.obj
 0001:000d12c0       ?AddBindPropChar@SPSeriko@@IAEPAVSPBindProp@@H@Z 004d22c0 f   sp_seriko.obj
 0001:000d13e0       ?GetBindEntryFromNameChar@SPSeriko@@QAEPAVSPBindEntry@@HPAG0@Z 004d23e0 f   sp_seriko.obj
 0001:000d1410       ?SPUpdateLayeredWindowAlpha@@YIHPAXHH0E@Z 004d2410 f   sp_seriko.obj
 0001:000d1470       ?SPSetWindowRgn@@YIXPAX0_N@Z 004d2470 f   sp_seriko.obj
 0001:000d14d0       ?SetCharAlpha@SPSeriko@@QAEXJH@Z 004d24d0 f   sp_seriko.obj
 0001:000d1510       ?SetCharTempAlpha@SPSeriko@@QAEXJH@Z 004d2510 f   sp_seriko.obj
 0001:000d1550       ?GetCharAlphaCalc@SPSeriko@@QAEHJ@Z 004d2550 f   sp_seriko.obj
 0001:000d15d0       ?GetNumCharacter@SPSeriko@@QAEKXZ 004d25d0 f   sp_seriko.obj
 0001:000d15e0       ?GetCharNumFromHwnd@SPSeriko@@QAEJPAX@Z 004d25e0 f   sp_seriko.obj
 0001:000d1640       ?GetCharHwnd@SPSeriko@@QAEPAUHWND__@@J@Z 004d2640 f   sp_seriko.obj
 0001:000d1680       ?SetCharHwnd@SPSeriko@@QAEXJPAUHWND__@@PAUHDC__@@@Z 004d2680 f   sp_seriko.obj
 0001:000d16c0       ?GetCursorChar@SPSeriko@@QAEPAXJW4SPSerikoCursorType@@PBG@Z 004d26c0 f   sp_seriko.obj
 0001:000d16e0       ?GetToolTipsChar@SPSeriko@@QAEPBGJPBG@Z 004d26e0 f   sp_seriko.obj
 0001:000d1700       ?MakeBoundingBox@SPSeriko@@IAEXXZ 004d2700 f   sp_seriko.obj
 0001:000d1880       ?LoadSurfaceTable@SPSeriko@@QAEHPBD@Z 004d2880 f   sp_seriko.obj
 0001:000d1c60       ?GetSurfaceTableChar@SPSeriko@@QAEPAVSPSurfaceTable@@H@Z 004d2c60 f   sp_seriko.obj
 0001:000d1c90       ?AddSurfaceTableChar@SPSeriko@@IAEPAVSPSurfaceTable@@H@Z 004d2c90 f   sp_seriko.obj
 0001:000d1db0       ?GetSerikoAnimation@SPSeriko@@QAEPAVSPSerikoAnimation@@H@Z 004d2db0 f   sp_seriko.obj
 0001:000d1de0       ?GetSurfaceIndexChar@SPSeriko@@QAEJJPAGHPAH@Z 004d2de0 f   sp_seriko.obj
 0001:000d2110       ?GetCurrentSurfaceIndexChar@SPSeriko@@QAEJJ@Z 004d3110 f   sp_seriko.obj
 0001:000d2160       ?DumpBuffer@SPSeriko@@QAEXJAAVJString@@@Z 004d3160 f   sp_seriko.obj
 0001:000d2180       ?SetScalingChar@SPSeriko@@QAEXJJJ@Z 004d3180 f   sp_seriko.obj
 0001:000d21b0       ?ExecuteMoveTagChar@SPSeriko@@QAEXJAAVSPGhostMoveInfo@@_N@Z 004d31b0 f   sp_seriko.obj
 0001:000d21e0       ?BindChangeNotify@SPSeriko@@QAEXH@Z 004d31e0 f   sp_seriko.obj
 0001:000d2200       ?GetAlignChar@SPSeriko@@QAEHH@Z 004d3200 f   sp_seriko.obj
 0001:000d2230       ?SetAlignChar@SPSeriko@@QAEXHH@Z 004d3230 f   sp_seriko.obj
 0001:000d2250       ?GetCurrentBasePosChar@SPSeriko@@QAEHHAAUtagPOINT@@@Z 004d3250 f   sp_seriko.obj
 0001:000d2280       ?GetExtentChar@SPSeriko@@QAEXHPAUtagRECT@@PAUtagPOINT@@11@Z 004d3280 f   sp_seriko.obj
 0001:000d22b0       ?SetWindowPosChar@SPSeriko@@QAEHHJJJJK@Z 004d32b0 f   sp_seriko.obj
 0001:000d22f0       ?ProcessMultipleSurfaceDef@SPSeriko@@IAEXPAVSPAnimeBase@@AAV?$JArray@J@@_NI@Z 004d32f0 f   sp_seriko.obj
 0001:000d23e0       ?LoadSurfaceProperties@SPSeriko@@QAEHPBD@Z 004d33e0 f   sp_seriko.obj
 0001:000d25e0       ?LoadSurfacePropertiesImpl@SPSeriko@@IAEHAAVJTokenStream@@PBD@Z 004d35e0 f   sp_seriko.obj
 0001:000d4460       ?SetPriorityAnimeThread@SPSeriko@@QAEXXZ 004d5460 f   sp_seriko.obj
 0001:000d4490       ?LoadSurfaceIndex@SPSeriko@@IAEPAVSPSurface@@PBDH@Z 004d5490 f   sp_seriko.obj
 0001:000d4550       ?LoadSurface@SPSeriko@@IAEPAVSPSurface@@PBDPAD@Z 004d5550 f   sp_seriko.obj
 0001:000d4570       ?SetForceAlign@SPSeriko@@QAEXPAG@Z 004d5570 f   sp_seriko.obj
 0001:000d45e0       ?GetForceAlign@SPSeriko@@QAEPAGXZ 004d55e0 f   sp_seriko.obj
 0001:000d4610       ?GetDefaultBalloonOffset@SPSeriko@@QAEAAUtagPOINT@@J@Z 004d5610 f   sp_seriko.obj
 0001:000d4670       ?AddDefaultBalloonOffset@SPSeriko@@IAEAAUtagPOINT@@J@Z 004d5670 f   sp_seriko.obj
 0001:000d4730       ?GetDefaultSurfaceIndexSetting@SPSeriko@@QAEJJ@Z 004d5730 f   sp_seriko.obj
 0001:000d4770       ?AddDefaultSurfaceIndexSetting@SPSeriko@@QAEAAJJ@Z 004d5770 f   sp_seriko.obj
 0001:000d49e0       ?GetDefaultBalloonIndexSetting@SPSeriko@@QAEJJ@Z 004d59e0 f   sp_seriko.obj
 0001:000d4a10       ?AddDefaultBalloonIndexSetting@SPSeriko@@QAEAAJJ@Z 004d5a10 f   sp_seriko.obj
 0001:000d4b60       ?GetBalloonAlign@SPSeriko@@QAEJJ@Z 004d5b60 f   sp_seriko.obj
 0001:000d4b90       ?AddBalloonAlign@SPSeriko@@QAEAAJJ@Z 004d5b90 f   sp_seriko.obj
 0001:000d4bb0       ?GetDefaultAlign@SPSeriko@@QAEJJ@Z 004d5bb0 f   sp_seriko.obj
 0001:000d4be0       ?AddDefaultAlign@SPSeriko@@QAEAAJJ@Z 004d5be0 f   sp_seriko.obj
 0001:000d4c00       ??1?$SPSparsePtrArray@PAVSPAnimeBase@@@@QAE@XZ 004d5c00 f i sp_seriko.obj
 0001:000d4cc0       ?DeleteAllObject@?$JPtrArray@PAV?$SPSparsePtrArrayDef@PAVSPAnimeBase@@@@@@QAEXXZ 004d5cc0 f i sp_seriko.obj
 0001:000d4d10       ??1?$SPSparsePtrArrayDef@PAVSPAnimeBase@@@@QAE@XZ 004d5d10 f i sp_seriko.obj
 0001:000d4dd0       ?Delete@?$SPSparsePtrArrayDef@PAVSPAnimeBase@@@@QAEXK@Z 004d5dd0 f i sp_seriko.obj
 0001:000d4e90       ?AddToArray@?$SPSparsePtrArrayDef@PAVSPAnimeBase@@@@QAEXAAV?$JPtrArray@PAVSPAnimeBase@@@@@Z 004d5e90 f i sp_seriko.obj
 0001:000d4fa0       ?GetIndexArray@?$SPSparsePtrArrayDef@PAVSPAnimeBase@@@@QAEXAAV?$JArray@K@@@Z 004d5fa0 f i sp_seriko.obj
 0001:000d50b0       ?Find@?$SPSparsePtrArrayDef@PAVSPAnimeBase@@@@QAEJK@Z 004d60b0 f i sp_seriko.obj
 0001:000d50e0       ?DeleteAllObject@?$JPtrArray@PAVSPAnimeBase@@@@QAEXXZ 004d60e0 f i sp_seriko.obj
 0001:000d5130       ?AddClear@?$JArray@PAX@@QAEKK@Z 004d6130 f i sp_seriko.obj
 0001:000d5220       ?Realloc@?$JArray@VSPSerikoAnimationPlayPat@@@@QAE_NK@Z 004d6220 f i sp_seriko.obj
 0001:000d5220       ?Realloc@?$JArray@VJPoint@@@@QAE_NK@Z 004d6220 f i sp_seriko.obj
 0001:000d5220       ?Realloc@?$JArray@UtagPOINT@@@@QAE_NK@Z 004d6220 f i sp_seriko.obj
 0001:000d52d0       ?Size@?$JArray@PAX@@QBEKXZ 004d62d0 f i sp_seriko.obj
 0001:000d52d0       ?Size@?$JArray@J@@QBEKXZ   004d62d0 f i sp_seriko.obj
 0001:000d52f0       ?Clear@SPSerikoTask@@QAEXXZ 004d62f0 f   sp_serikoanime.obj
 0001:000d5320       ?IsEnd@SPSerikoTask@@QAE_NXZ 004d6320 f   sp_serikoanime.obj
 0001:000d5360       ?IsRunnable@SPSerikoTask@@QAE_NXZ 004d6360 f   sp_serikoanime.obj
 0001:000d5390       ?IsFirstEntryWait@SPSerikoTask@@QAE_NXZ 004d6390 f   sp_serikoanime.obj
 0001:000d53b0       ?SetWait@SPSerikoTask@@QAEXPAVSPSeriko@@H@Z 004d63b0 f   sp_serikoanime.obj
 0001:000d5450       ?Run@SPSerikoTask@@QAE_NPAVSPSeriko@@K@Z 004d6450 f   sp_serikoanime.obj
 0001:000d54b0       ??0SPSerikoAnimation@@QAE@PAVSPSeriko@@J@Z 004d64b0 f   sp_serikoanime.obj
 0001:000d5740       ??_ESPSerikoAnimation@@UAEPAXI@Z 004d6740 f i sp_serikoanime.obj
 0001:000d5740       ??_GSPSerikoAnimation@@UAEPAXI@Z 004d6740 f i sp_serikoanime.obj
 0001:000d5770       ??1SPSerikoAnimation@@UAE@XZ 004d6770 f   sp_serikoanime.obj
 0001:000d59a0       ?Reset@SPSerikoAnimation@@QAEXXZ 004d69a0 f   sp_serikoanime.obj
 0001:000d5a30       ?Exit@SPSerikoAnimation@@UAEHXZ 004d6a30 f   sp_serikoanime.obj
 0001:000d5ae0       ?InitInstance@SPSerikoAnimation@@MAEHXZ 004d6ae0 f   sp_serikoanime.obj
 0001:000d5bf0       ?ExitInstance@SPSerikoAnimation@@MAEXH@Z 004d6bf0 f   sp_serikoanime.obj
 0001:000d5c40       ?ReleaseBuffer@SPSerikoAnimation@@AAEXXZ 004d6c40 f   sp_serikoanime.obj
 0001:000d5ca0       ?Release@SPSerikoAnimation@@QAEXXZ 004d6ca0 f   sp_serikoanime.obj
 0001:000d5cf0       ?CreateFadeSurface@SPSerikoAnimation@@QAEHXZ 004d6cf0 f   sp_serikoanime.obj
 0001:000d5d70       ?ReleaseFadeSurface@SPSerikoAnimation@@QAEXXZ 004d6d70 f   sp_serikoanime.obj
 0001:000d5dd0       ?SetSerikoAlign@SPSerikoAnimation@@QAEXH@Z 004d6dd0 f   sp_serikoanime.obj
 0001:000d5df0       ?GetSerikoAlign@SPSerikoAnimation@@QAEHXZ 004d6df0 f   sp_serikoanime.obj
 0001:000d5e20       ?InitSerikoAnime@SPSerikoAnimation@@QAEHXZ 004d6e20 f   sp_serikoanime.obj
 0001:000d5eb0       ?LockRedraw@SPSerikoAnimation@@QAEXH@Z 004d6eb0 f   sp_serikoanime.obj
 0001:000d5ee0       ?LockRedrawReal@SPSerikoAnimation@@AAEXH@Z 004d6ee0 f   sp_serikoanime.obj
 0001:000d5f30       ?DeleteTaskQueueAnime@SPSerikoAnimation@@AAEXXZ 004d6f30 f   sp_serikoanime.obj
 0001:000d5fe0       ?HideWindow@SPSerikoAnimation@@QAE_N_N@Z 004d6fe0 f   sp_serikoanime.obj
 0001:000d6040       ?PlayBase@SPSerikoAnimation@@QAEHPAVSPAnimeBase@@H_N@Z 004d7040 f   sp_serikoanime.obj
 0001:000d60d0       ?AnimeThreadFire@SPSerikoAnimation@@AAEXXZ 004d70d0 f   sp_serikoanime.obj
 0001:000d6110       ?InternalTalkParamUpdate@SPSerikoAnimation@@AAEXXZ 004d7110 f   sp_serikoanime.obj
 0001:000d62a0       ?InternalProcessBase@SPSerikoAnimation@@AAEXXZ 004d72a0 f   sp_serikoanime.obj
 0001:000d66a0       ??0SPSerikoTask@@QAE@XZ    004d76a0 f i sp_serikoanime.obj
 0001:000d66c0       ?InternalProcessTask@SPSerikoAnimation@@AAEH_N0@Z 004d76c0 f   sp_serikoanime.obj
 0001:000d6c80       ?WaitActivate@SPSerikoAnimation@@QAEXXZ 004d7c80 f   sp_serikoanime.obj
 0001:000d6c90       ?PlayPattern@SPSerikoAnimation@@QAEHJHIJJ@Z 004d7c90 f   sp_serikoanime.obj
 0001:000d6e50       ?PlayPatternArray@SPSerikoAnimation@@QAEHAAV?$JArray@J@@HI@Z 004d7e50 f   sp_serikoanime.obj
 0001:000d7030       ?Talk@SPSerikoAnimation@@QAEHXZ 004d8030 f   sp_serikoanime.obj
 0001:000d7070       ?YenE@SPSerikoAnimation@@QAEHXZ 004d8070 f   sp_serikoanime.obj
 0001:000d7090       ?WaitAnimation@SPSerikoAnimation@@QAEHJ@Z 004d8090 f   sp_serikoanime.obj
 0001:000d70b0       ?Offset@SPSerikoAnimation@@QAEHJJJ@Z 004d80b0 f   sp_serikoanime.obj
 0001:000d70d0       ?PlayTask@SPSerikoAnimation@@AAEHJHJ@Z 004d80d0 f   sp_serikoanime.obj
 0001:000d71e0       ?StopTask@SPSerikoAnimation@@AAEHJ@Z 004d81e0 f   sp_serikoanime.obj
 0001:000d7240       ?StopTaskInternal@SPSerikoAnimation@@AAE_NPAVSPSerikoTask@@@Z 004d8240 f   sp_serikoanime.obj
 0001:000d72a0       ?BlendCopySurface@SPSerikoAnimation@@AAEHPAVJSurface@@0H@Z 004d82a0 f   sp_serikoanime.obj
 0001:000d73e0       ?GetBaseRect@SPSerikoAnimation@@QAEXAAVJRect@@PAVSPAnimeBase@@@Z 004d83e0 f   sp_serikoanime.obj
 0001:000d74a0       ?GetBalloonOffset@SPSerikoAnimation@@QAEXAAUtagPOINT@@@Z 004d84a0 f   sp_serikoanime.obj
 0001:000d74c0       ?GetCurrentBasePos@SPSerikoAnimation@@QAEXAAUtagPOINT@@@Z 004d84c0 f   sp_serikoanime.obj
 0001:000d7540       ?GetExtent@SPSerikoAnimation@@QAEXPAUtagRECT@@PAUtagPOINT@@11@Z 004d8540 f   sp_serikoanime.obj
 0001:000d7800       ?WaitForNextPlayBase@SPSerikoAnimation@@AAEHXZ 004d8800 f   sp_serikoanime.obj
 0001:000d7850       ?Loop@SPSerikoAnimation@@UAEHXZ 004d8850 f   sp_serikoanime.obj
 0001:000d7f00       ?SetInitialTask@SPSerikoAnimation@@AAEXXZ 004d8f00 f   sp_serikoanime.obj
 0001:000d7f20       ?SetAlwaysTask@SPSerikoAnimation@@AAEXXZ 004d8f20 f   sp_serikoanime.obj
 0001:000d7f30       ?SetAllOptionTask@SPSerikoAnimation@@AAEKK@Z 004d8f30 f   sp_serikoanime.obj
 0001:000d7fa0       ?IsNewBase@SPSerikoAnimation@@AAEHXZ 004d8fa0 f   sp_serikoanime.obj
 0001:000d7fc0       ?ProcTask@SPSerikoAnimation@@AAEIPAVJSurface@@H_N1@Z 004d8fc0 f   sp_serikoanime.obj
 0001:000d8020       ?ProcTaskReal@SPSerikoAnimation@@AAEIPAVJSurface@@H_N1@Z 004d9020 f   sp_serikoanime.obj
 0001:000d8bc0       ?DrawTask@SPSerikoAnimation@@AAEIPAVJSurface@@HHH@Z 004d9bc0 f   sp_serikoanime.obj
 0001:000d8e90       ?DrawTaskSub@SPSerikoAnimation@@AAEXPAVJSurface@@PAX_NAAV?$JArray@VSPSerikoAnimationPlayPat@@@@@Z 004d9e90 f   sp_serikoanime.obj
 0001:000d9130       ?DrawWindowProc@SPSerikoAnimation@@AAEXPAVJSurface@@PAX@Z 004da130 f   sp_serikoanime.obj
 0001:000d91f0       ?DumpBuffer@SPSerikoAnimation@@QAEXAAVJString@@@Z 004da1f0 f   sp_serikoanime.obj
 0001:000d9290       ?DrawTaskMoveProc@SPSerikoAnimation@@AAEHXZ 004da290 f   sp_serikoanime.obj
 0001:000d9350       ?DrawCollisionRect@SPSerikoAnimation@@AAEXPAVJSurface@@@Z 004da350 f   sp_serikoanime.obj
 0001:000d9620       ?Wait@SPSerikoAnimation@@AAEJJ@Z 004da620 f   sp_serikoanime.obj
 0001:000d96b0       ?WaitReset@SPSerikoAnimation@@AAEXXZ 004da6b0 f   sp_serikoanime.obj
 0001:000d96d0       ?WaitRaw@SPSerikoAnimation@@AAE_NJ@Z 004da6d0 f   sp_serikoanime.obj
 0001:000d96f0       ?StopAllTask@SPSerikoAnimation@@AAEHK@Z 004da6f0 f   sp_serikoanime.obj
 0001:000d9750       ?GetTask@SPSerikoAnimation@@AAEPAVSPSerikoTask@@J@Z 004da750 f   sp_serikoanime.obj
 0001:000d9780       ?StopPattern@SPSerikoAnimation@@QAEHJ@Z 004da780 f   sp_serikoanime.obj
 0001:000d97c0       ?PausePattern@SPSerikoAnimation@@QAEHJ@Z 004da7c0 f   sp_serikoanime.obj
 0001:000d97f0       ?ResumePattern@SPSerikoAnimation@@QAEHJ@Z 004da7f0 f   sp_serikoanime.obj
 0001:000d9830       ?DeleteAllTask@SPSerikoAnimation@@AAEXXZ 004da830 f   sp_serikoanime.obj
 0001:000d9850       ?ScaleMousePt@SPSerikoAnimation@@QAEXAAVJPoint@@@Z 004da850 f   sp_serikoanime.obj
 0001:000d98a0       ?GetCollisionName@SPSerikoAnimation@@QAEPAGHHPAJ@Z 004da8a0 f   sp_serikoanime.obj
 0001:000d9900       ?GetCollisionDataCompat@SPSerikoAnimation@@QAEHAAVJRect@@PAG@Z 004da900 f   sp_serikoanime.obj
 0001:000d9950       ?GetCollisionExecuteData@SPSerikoAnimation@@QAEXAAVJWString@@@Z 004da950 f   sp_serikoanime.obj
 0001:000d9ba0       ?SetScale@SPSerikoAnimation@@QAEXJJ@Z 004daba0 f   sp_serikoanime.obj
 0001:000d9bc0       ?ExecuteMoveTag@SPSerikoAnimation@@QAEXAAVSPGhostMoveInfo@@_N@Z 004dabc0 f   sp_serikoanime.obj
 0001:000d9d60       ?SetAlpha@SPSerikoAnimation@@QAEXH@Z 004dad60 f   sp_serikoanime.obj
 0001:000d9da0       ?SetTempAlpha@SPSerikoAnimation@@QAEXH@Z 004dada0 f   sp_serikoanime.obj
 0001:000d9dc0       ?SAGetWindowPos@SPSerikoAnimation@@AAEXAAUtagPOINT@@@Z 004dadc0 f   sp_serikoanime.obj
 0001:000d9de0       ?SASetWindowPosInternal@SPSerikoAnimation@@AAEXJJJJK@Z 004dade0 f   sp_serikoanime.obj
 0001:000d9e40       ?SASetWindowPos@SPSerikoAnimation@@QAEXJJJJK@Z 004dae40 f   sp_serikoanime.obj
 0001:000d9e60       ?SASetWindowPosOnly@SPSerikoAnimation@@QAEXJJ@Z 004dae60 f   sp_serikoanime.obj
 0001:000d9e80       ?SAUpdateLayeredWindow@SPSerikoAnimation@@AAEHPAVJSurface@@@Z 004dae80 f   sp_serikoanime.obj
 0001:000d9f40       ?SAUpdateLayeredWindowAlpha@SPSerikoAnimation@@AAEHPAVJSurface@@H@Z 004daf40 f   sp_serikoanime.obj
 0001:000da000       ?SAUpdateLayeredWindowWithPos@SPSerikoAnimation@@AAEHAAUtagPOINT@@PAVJSurface@@@Z 004db000 f   sp_serikoanime.obj
 0001:000da0e0       ?InternalCalculateScalingFloat@SPSerikoAnimation@@AAEXXZ 004db0e0 f   sp_serikoanime.obj
 0001:000da180       ?InternalRedraw@SPSerikoAnimation@@AAEXPAX@Z 004db180 f   sp_serikoanime.obj
 0001:000da1c0       ?Redraw@SPSerikoAnimation@@QAEXH@Z 004db1c0 f   sp_serikoanime.obj
 0001:000da1e0       ?InternalBind@SPSerikoAnimation@@AAEXXZ 004db1e0 f   sp_serikoanime.obj
 0001:000da530       ?Bind@SPSerikoAnimation@@QAEXH@Z 004db530 f   sp_serikoanime.obj
 0001:000da550       ?SASetRgn@SPSerikoAnimation@@AAEXPAX@Z 004db550 f   sp_serikoanime.obj
 0001:000da7d0       ?Present@SPSerikoAnimation@@QAEHPAVJSurface@@@Z 004db7d0 f   sp_serikoanime.obj
 0001:000da860       ?ScaleSurface@SPSerikoAnimation@@AAEPAVJSurface@@PAV2@@Z 004db860 f   sp_serikoanime.obj
 0001:000da960       ?ScalePt@SPSerikoAnimation@@QAEXAAUtagPOINT@@H@Z 004db960 f   sp_serikoanime.obj
 0001:000daa10       ?ScalePtNoMirror@SPSerikoAnimation@@AAEXAAUtagPOINT@@@Z 004dba10 f   sp_serikoanime.obj
 0001:000daa70       ?ScaleRect@SPSerikoAnimation@@QAEXAAUtagRECT@@H@Z 004dba70 f   sp_serikoanime.obj
 0001:000dab80       ?ScaleRectNoMirror@SPSerikoAnimation@@AAEXAAUtagRECT@@@Z 004dbb80 f   sp_serikoanime.obj
 0001:000dac30       ??1?$SPCacheObj@VSPSerikoTask@@VJDummyLockSection@@VJDummyLock@@@@QAE@XZ 004dbc30 f i sp_serikoanime.obj
 0001:000dacb0       ?Release@?$SPCacheObj@VSPSerikoTask@@VJDummyLockSection@@VJDummyLock@@@@QAEXXZ 004dbcb0 f i sp_serikoanime.obj
 0001:000dacf0       ?DeleteArray@?$SPCacheObj@VSPSerikoTask@@VJDummyLockSection@@VJDummyLock@@@@QAEXAAV?$JPtrArray@PAVSPSerikoTask@@@@@Z 004dbcf0 f i sp_serikoanime.obj
 0001:000dad90       ?Size@?$JArray@USPSerikoAnimationQueue@@@@QBEKXZ 004dbd90 f i sp_serikoanime.obj
 0001:000dadb0       ?Get@SPSerikoCursorEntry@@QAEPAXPBG@Z 004dbdb0 f   sp_serikocursor.obj
 0001:000dade0       ?Set@SPSerikoCursorEntry@@QAEXPBGPAX@Z 004dbde0 f   sp_serikocursor.obj
 0001:000daf10       ??0SPSerikoCursor@@QAE@PAVSPSeriko@@@Z 004dbf10 f   sp_serikocursor.obj
 0001:000daf70       ??1SPSerikoCursor@@QAE@XZ  004dbf70 f   sp_serikocursor.obj
 0001:000dafd0       ?Release@SPSerikoCursor@@QAEXXZ 004dbfd0 f   sp_serikocursor.obj
 0001:000db020       ??1SPSerikoCursorEntry@@QAE@XZ 004dc020 f i sp_serikocursor.obj
 0001:000db0e0       ?Add@SPSerikoCursor@@QAEPAXJW4SPSerikoCursorType@@PBG1@Z 004dc0e0 f   sp_serikocursor.obj
 0001:000db240       ??0SPSerikoCursorEntry@@QAE@XZ 004dc240 f i sp_serikocursor.obj
 0001:000db2b0       ?Get@SPSerikoCursor@@QAEPAXJW4SPSerikoCursorType@@PBG@Z 004dc2b0 f   sp_serikocursor.obj
 0001:000db370       ?Load@SPSerikoCursor@@QAEPAXPBG@Z 004dc370 f   sp_serikocursor.obj
 0001:000db3d0       ?Load@SPSerikoCursor@@QAEPAXPBD@Z 004dc3d0 f   sp_serikocursor.obj
 0001:000db5e0       ?SetIntervalDefinition@SPSerikoImpl@@SIXPAVSPAnimeScript@@PAVSPAnimeBase@@PAD2@Z 004dc5e0 f   sp_serikoimpl.obj
 0001:000db8a0       ?SetAnimeDefinition@SPSerikoImpl@@SIXPAVSPAnimeScript@@PAVSPAnimeBase@@HHPAD2J@Z 004dc8a0 f   sp_serikoimpl.obj
 0001:000dc130       ?SetOptionDefinition@SPSerikoImpl@@SIXPAVSPAnimeScript@@PAVSPAnimeBase@@PAD@Z 004dd130 f   sp_serikoimpl.obj
 0001:000dc190       ?Get@SPSerikoToolTipsEntry@@QAEPBGPBG@Z 004dd190 f   sp_serikotooltips.obj
 0001:000dc1c0       ?Set@SPSerikoToolTipsEntry@@QAEXPBG0@Z 004dd1c0 f   sp_serikotooltips.obj
 0001:000dc370       ??1SPSerikoToolTipsEntry@@QAE@XZ 004dd370 f   sp_serikotooltips.obj
 0001:000dc480       ??0SPSerikoToolTips@@QAE@XZ 004dd480 f   sp_serikotooltips.obj
 0001:000dc490       ??1SPSerikoToolTips@@QAE@XZ 004dd490 f   sp_serikotooltips.obj
 0001:000dc4f0       ?Release@SPSerikoToolTips@@QAEXXZ 004dd4f0 f   sp_serikotooltips.obj
 0001:000dc530       ?Add@SPSerikoToolTips@@QAE_NJPBG0@Z 004dd530 f   sp_serikotooltips.obj
 0001:000dc680       ?Get@SPSerikoToolTips@@QAEPBGJPBG@Z 004dd680 f   sp_serikotooltips.obj
 0001:000dc6c0       ?Release@SPSettings@@QAEXXZ 004dd6c0 f   sp_setting.obj
 0001:000dc700       ?Load@SPSettings@@QAE_NPADKH@Z 004dd700 f   sp_setting.obj
 0001:000dc740       ?LoadOverride@SPSettings@@QAE_NPAD@Z 004dd740 f   sp_setting.obj
 0001:000dc980       ?Save@SPSettings@@QAE_NXZ  004dd980 f   sp_setting.obj
 0001:000dcc10       ?GetValue@SPSettings@@QBEPADPBDPAD@Z 004ddc10 f   sp_setting.obj
 0001:000dcc40       ?GetValueArrayW@SPSettings@@QBEHPBDAAV?$JPtrArray@PAG@@@Z 004ddc40 f   sp_setting.obj
 0001:000dce50       ?GetValueArrayA@SPSettings@@QBEHPBDAAVSPStaticStringArrayA@@@Z 004dde50 f   sp_setting.obj
 0001:000dcee0       ?GetValueEncode@SPSettings@@QBEPADPBD0PAD@Z 004ddee0 f   sp_setting.obj
 0001:000dcf20       ?GetValueNum@SPSettings@@QBEJPBDJ@Z 004ddf20 f   sp_setting.obj
 0001:000dcf70       ?GetValueNumU@SPSettings@@QBEKPBDK@Z 004ddf70 f   sp_setting.obj
 0001:000dcfc0       ?GetValueRect@SPSettings@@QBEHPBDAAUtagRECT@@@Z 004ddfc0 f   sp_setting.obj
 0001:000dd010       ?GetValueNumArray@SPSettings@@QBEHPBDPAHKH@Z 004de010 f   sp_setting.obj
 0001:000dd0b0       ?GetValuePoint@SPSettings@@QBEHPBDAAUtagPOINT@@@Z 004de0b0 f   sp_setting.obj
 0001:000dd0f0       ?GetValueBool@SPSettings@@QBE_NPBDH@Z 004de0f0 f   sp_setting.obj
 0001:000dd140       ?GetValueW@SPSettings@@QBEPAGPBDPAG@Z 004de140 f   sp_setting.obj
 0001:000dd170       ?GetAllValue@SPSettings@@QAEKAAV?$JPtrArray@PAD@@AAV?$JPtrArray@PAG@@@Z 004de170 f   sp_setting.obj
 0001:000dd2e0       ?AddValueW@SPSettings@@QAE_NPBDPBG@Z 004de2e0 f   sp_setting.obj
 0001:000dd3f0       ?AddValueEncode@SPSettings@@QAE_NPBD00@Z 004de3f0 f   sp_setting.obj
 0001:000dd420       ?AddValueNum@SPSettings@@QAE_NPBDJ@Z 004de420 f   sp_setting.obj
 0001:000dd460       ?AddValueNumU@SPSettings@@QAE_NPBDK@Z 004de460 f   sp_setting.obj
 0001:000dd4a0       ?AddValueNumArray@SPSettings@@QAE_NPBDPAHK@Z 004de4a0 f   sp_setting.obj
 0001:000dd5a0       ?AddValueRect@SPSettings@@QAE_NPBDABUtagRECT@@@Z 004de5a0 f   sp_setting.obj
 0001:000dd5f0       ?AddValuePoint@SPSettings@@QAE_NPBDABUtagPOINT@@@Z 004de5f0 f   sp_setting.obj
 0001:000dd640       ?AddValueBool@SPSettings@@QAE_NPBDH@Z 004de640 f   sp_setting.obj
 0001:000dd670       ?AddValue@SPSettings@@QAE_NPBD0@Z 004de670 f   sp_setting.obj
 0001:000dd720       ?AddValueArray@SPSettings@@QAE_NPBDPAPBDK@Z 004de720 f   sp_setting.obj
 0001:000dd830       ?AddValueArraySub@SPSettings@@AAE_NPBDK@Z 004de830 f   sp_setting.obj
 0001:000dd9f0       ?DeleteValue@SPSettings@@QAE_NPBD@Z 004de9f0 f   sp_setting.obj
 0001:000dda40       ??0SPShiori@@QAE@XZ        004dea40 f   sp_shiori.obj
 0001:000ddbf0       ?GetModuleDesc@SPShiori@@UAEPBGXZ 004debf0 f i sp_shiori.obj
 0001:000ddc00       ??_GSPShiori@@UAEPAXI@Z    004dec00 f i sp_shiori.obj
 0001:000ddc00       ??_ESPShiori@@UAEPAXI@Z    004dec00 f i sp_shiori.obj
 0001:000ddc30       ??1SPShiori@@UAE@XZ        004dec30 f   sp_shiori.obj
 0001:000ddd40       ?MakeShiori30Request@SPShiori@@AAEXAAVJString@@AAVSPShioriEvent@@PBG@Z 004ded40 f   sp_shiori.obj
 0001:000de0c0       ?MakeShioriLastReference@SPShiori@@AAEXAAV?$JPtrArray@PAVJWString@@@@@Z 004df0c0 f   sp_shiori.obj
 0001:000de1f0       ?MakeShioriLastReference@SPShiori@@AAEXPAPAGK0K@Z 004df1f0 f   sp_shiori.obj
 0001:000de3b0       ?GetLastReference@SPShiori@@QAEPAGXZ 004df3b0 f   sp_shiori.obj
 0001:000de3d0       ?Load@SPShiori@@QAEHPAD@Z  004df3d0 f   sp_shiori.obj
 0001:000deed0       ?Unload@SPShiori@@QAEXXZ   004dfed0 f   sp_shiori.obj
 0001:000defb0       ?CommunicateSSTP@SPShiori@@QAE?AVSPShioriEventResult@@PAG0PAVSPSSTPData@@@Z 004dffb0 f   sp_shiori.obj
 0001:000df840       ?GetWord@SPShiori@@QAEPAGPAG@Z 004e0840 f   sp_shiori.obj
 0001:000dfd20       ?GetSentence@SPShiori@@QAE?AVSPShioriEventResult@@PAG@Z 004e0d20 f   sp_shiori.obj
 0001:000e0060       ?ProcessOldResponse@SPShiori@@AAEPAGPAG@Z 004e1060 f   sp_shiori.obj
 0001:000e0470       ?GetAIString@SPShiori@@QAE?AVSPShioriEventResult@@XZ 004e1470 f   sp_shiori.obj
 0001:000e0710       ?GetShioriInfo@SPShiori@@QAEXXZ 004e1710 f   sp_shiori.obj
 0001:000e07a0       ?SendNotify@SPShiori@@QAEHPAG0PAPAGH@Z 004e17a0 f   sp_shiori.obj
 0001:000e0b30       ?SendNotifyImpl@SPShiori@@AAEHAAVJString@@@Z 004e1b30 f   sp_shiori.obj
 0001:000e0c30       ?NotifyEnvironment@SPShiori@@QAEHXZ 004e1c30 f   sp_shiori.obj
 0001:000e11f0       ?NotifyBindInfo@SPShiori@@QAEH_N@Z 004e21f0 f   sp_shiori.obj
 0001:000e13f0       ?NotifySelfInfo@SPShiori@@QAEHXZ 004e23f0 f   sp_shiori.obj
 0001:000e15f0       ?NotifyFontInfo@SPShiori@@QAEHXZ 004e25f0 f   sp_shiori.obj
 0001:000e18f0       ?NotifyUserInfo@SPShiori@@QAEHXZ 004e28f0 f   sp_shiori.obj
 0001:000e19f0       ?NotifyInstalledGhost@SPShiori@@QAEHXZ 004e29f0 f   sp_shiori.obj
 0001:000e1b40       ?NotifyInstalledShell@SPShiori@@QAEHXZ 004e2b40 f   sp_shiori.obj
 0001:000e1ca0       ?NotifyInstalledBalloon@SPShiori@@QAEHXZ 004e2ca0 f   sp_shiori.obj
 0001:000e1df0       ?NotifyInstalledHeadline@SPShiori@@QAEHXZ 004e2df0 f   sp_shiori.obj
 0001:000e1f40       ?NotifyOtherGhost@SPShiori@@QAEHXZ 004e2f40 f   sp_shiori.obj
 0001:000e23b0       ?OnGhostClose@SPShiori@@QAE?AVSPShioriEventResult@@_N0@Z 004e33b0 f   sp_shiori.obj
 0001:000e24e0       ?SendEvent@SPShiori@@QAE?AVSPShioriEventResult@@AAVSPShioriEvent@@@Z 004e34e0 f   sp_shiori.obj
 0001:000e29d0       ??0SPModuleEvent@@QAE@ABV0@@Z 004e39d0 f i sp_shiori.obj
 0001:000e2a00       ?Teach@SPShiori@@QAE?AVSPShioriEventResult@@PAG@Z 004e3a00 f   sp_shiori.obj
 0001:000e30c0       ?SendCommunicate@SPShiori@@QAEHAAVSPParamManager@@@Z 004e40c0 f   sp_shiori.obj
 0001:000e3a90       ?GetLastCommunicateData@SPShiori@@QAEPAVSPCommunicateData@@XZ 004e4a90 f   sp_shiori.obj
 0001:000e3ab0       ?WriteLog@SPShiori@@AAEXPADPAXHK@Z 004e4ab0 f   sp_shiori.obj
 0001:000e3cd0       ?Request@SPShiori@@AAEPAGAAVJString@@@Z 004e4cd0 f   sp_shiori.obj
 0001:000e3f40       ?GetStringBool@SPShiori@@QAEHPAGH@Z 004e4f40 f   sp_shiori.obj
 0001:000e3f80       ?GetString@SPShiori@@QAEPAGPAG@Z 004e4f80 f   sp_shiori.obj
 0001:000e4360       ?GetVersion@SPShiori@@QAEHXZ 004e5360 f   sp_shiori.obj
 0001:000e4620       ?SetLogEnable@SPShiori@@QAEXH@Z 004e5620 f   sp_shiori.obj
 0001:000e4650       ?GetLogEnable@SPShiori@@QAEHXZ 004e5650 f   sp_shiori.obj
 0001:000e4660       ?SetBaseWareID@SPShiori@@QAEXPAG@Z 004e5660 f   sp_shiori.obj
 0001:000e4680       ?CallRequestAndLog@SPShiori@@AAEPAXAAVJString@@AAJ@Z 004e5680 f   sp_shiori.obj
 0001:000e4700       ?Translate@SPShiori@@QAEPBGPBG0H@Z 004e5700 f   sp_shiori.obj
 0001:000e49b0       ?ResetDataCache@SPShiori@@QAEXXZ 004e59b0 f   sp_shiori.obj
 0001:000e49c0       ?GetMenuAvailableTableChar@SPShiori@@QAEPAEII@Z 004e59c0 f   sp_shiori.obj
 0001:000e4a80       ?ResetMenuAvailableTableChar@SPShiori@@AAEXXZ 004e5a80 f   sp_shiori.obj
 0001:000e4ad0       ?ParseGenericHeaders@SPShiori@@AAEXAAVSPParamManager@@@Z 004e5ad0 f   sp_shiori.obj
 0001:000e4db0       ?ClearTeachArray@SPShiori@@QAEXXZ 004e5db0 f   sp_shiori.obj
 0001:000e4e20       ?GetVersionNumber@SPShiori@@QAEXAAH0@Z 004e5e20 f   sp_shiori.obj
 0001:000e4e60       ?SetVersionNumber@SPShiori@@QAEXPBD@Z 004e5e60 f   sp_shiori.obj
 0001:000e4f10       ?LoadModuleAndModifySpecificDLL@SPShiori@@AAEPADAAVJString@@@Z 004e5f10 f   sp_shiori.obj
 0001:000e5540       ?RevertSpecificDLL@SPShiori@@AAEXPAD@Z 004e6540 f   sp_shiori.obj
 0001:000e55b0       ??_ESPShiori@@WCBM@AEPAXI@Z 004e65b0 f i sp_shiori.obj
 0001:000e55c0       ?Decode@SPSimpleEncode@@QAEPADPBD0@Z 004e65c0 f   sp_simpleencode.obj
 0001:000e5750       ?Encode@SPSimpleEncode@@QAEPADPBD0@Z 004e6750 f   sp_simpleencode.obj
 0001:000e5930       ?Get@SPSimpleThreadManager@@SAAAV1@XZ 004e6930 f   sp_simplethread.obj
 0001:000e5980       ??0SPSimpleThreadManager@@AAE@XZ 004e6980 f   sp_simplethread.obj
 0001:000e59b0       ??1SPSimpleThreadManager@@QAE@XZ 004e69b0 f   sp_simplethread.obj
 0001:000e5a30       ?BeginThread@SPSimpleThreadManager@@QAEPAXP6AXPAXPCH@Z0_N@Z 004e6a30 f   sp_simplethread.obj
 0001:000e5bf0       ?GetThreadNum@SPSimpleThreadManager@@QAEK_N@Z 004e6bf0 f   sp_simplethread.obj
 0001:000e5c70       ?TerminateAllThread@SPSimpleThreadManager@@QAEXXZ 004e6c70 f   sp_simplethread.obj
 0001:000e5d30       ?FindThreadFromProc@SPSimpleThreadManager@@QAEPAXP6AXPAXPCH@Z@Z 004e6d30 f   sp_simplethread.obj
 0001:000e5dd0       ?Release@SPSong@@QAEXXZ    004e6dd0 f   sp_song.obj
 0001:000e5e20       ?LoadSong@SPSong@@QAEHPAD@Z 004e6e20 f   sp_song.obj
 0001:000e5fe0       ?LoadSongFromStream@SPSong@@IAEHAAVJStream@@@Z 004e6fe0 f   sp_song.obj
 0001:000e62e0       ?GetScript@SPSong@@QAEPAGPAG@Z 004e72e0 f   sp_song.obj
 0001:000e6340       ??1SPSongEntry@@QAE@XZ     004e7340 f i sp_song.obj
 0001:000e6410       ??0SPScriptPlayer@@QAE@XZ  004e7410 f   sp_splayer.obj
 0001:000e6f40       ?Alloc@JString@@QAEXK@Z    004e7f40 f i sp_splayer.obj
 0001:000e7090       ??0SPStaticStringArrayA@@QAE@XZ 004e8090 f i sp_splayer.obj
 0001:000e70f0       ??0SPLogManagerCore@@QAE@XZ 004e80f0 f i sp_splayer.obj
 0001:000e7130       ??_ESPLogManagerCore@@UAEPAXI@Z 004e8130 f i sp_splayer.obj
 0001:000e7130       ??_GSPLogManagerCore@@UAEPAXI@Z 004e8130 f i sp_splayer.obj
 0001:000e7160       ??1SPLogManagerCore@@UAE@XZ 004e8160 f i sp_splayer.obj
 0001:000e71e0       ?SettingName@SPLogManagerScript@@UAEPBDXZ 004e81e0 f i sp_splayer.obj
 0001:000e71f0       ?Unlock@JStreamObject@@UAEHXZ 004e81f0 f i sp_splayer.obj
 0001:000e71f0       ?IsExecutable@SPLogManagerScript@@UAEHXZ 004e81f0 f i sp_splayer.obj
 0001:000e71f0       ?Lock@JStreamObject@@UAEHXZ 004e81f0 f i sp_splayer.obj
 0001:000e71f0       ?Pixel@JSurfaceObject@@UAEJXZ 004e81f0 f i sp_splayer.obj
 0001:000e71f0       ?InitInstance@JThreadLoop@@UAEHXZ 004e81f0 f i sp_splayer.obj
 0001:000e7200       ?SettingName@SPLogManagerError@@UAEPBDXZ 004e8200 f i sp_splayer.obj
 0001:000e7210       ?ToComment@TiXmlNode@@UBEPBVTiXmlComment@@XZ 004e8210 f i sp_splayer.obj
 0001:000e7210       ?ToDocument@TiXmlNode@@UBEPBVTiXmlDocument@@XZ 004e8210 f i sp_splayer.obj
 0001:000e7210       ?GetPalette@JSurfaceObject@@UAEPAUtagRGBQUAD@@XZ 004e8210 f i sp_splayer.obj
 0001:000e7210       ?ToUnknown@TiXmlNode@@UAEPAVTiXmlUnknown@@XZ 004e8210 f i sp_splayer.obj
 0001:000e7210       ?ToElement@TiXmlNode@@UAEPAVTiXmlElement@@XZ 004e8210 f i sp_splayer.obj
 0001:000e7210       ?ToDocument@TiXmlNode@@UAEPAVTiXmlDocument@@XZ 004e8210 f i sp_splayer.obj
 0001:000e7210       ?Handle@JSurfaceObject@@UAEPAXXZ 004e8210 f i sp_splayer.obj
 0001:000e7210       ?ToText@TiXmlNode@@UBEPBVTiXmlText@@XZ 004e8210 f i sp_splayer.obj
 0001:000e7210       ?ToUnknown@TiXmlNode@@UBEPBVTiXmlUnknown@@XZ 004e8210 f i sp_splayer.obj
 0001:000e7210       ?ToElement@TiXmlNode@@UBEPBVTiXmlElement@@XZ 004e8210 f i sp_splayer.obj
 0001:000e7210       ?ToText@TiXmlNode@@UAEPAVTiXmlText@@XZ 004e8210 f i sp_splayer.obj
 0001:000e7210       ?ToDeclaration@TiXmlNode@@UAEPAVTiXmlDeclaration@@XZ 004e8210 f i sp_splayer.obj
 0001:000e7210       ?BitmapBits@JSurfaceObject@@UAEPAEXZ 004e8210 f i sp_splayer.obj
 0001:000e7210       ?ToComment@TiXmlNode@@UAEPAVTiXmlComment@@XZ 004e8210 f i sp_splayer.obj
 0001:000e7210       ?GetAlphaPlane@JSurface@@UAEPAEXZ 004e8210 f i sp_splayer.obj
 0001:000e7210       ?DetachStream@JMappedStream@@EAEPAVJStreamObject@@XZ 004e8210 f i sp_splayer.obj
 0001:000e7210       ?Bitmap@JSurfaceObject@@UAEPAXXZ 004e8210 f i sp_splayer.obj
 0001:000e7210       ?IsExecutable@SPLogManagerError@@UAEHXZ 004e8210 f i sp_splayer.obj
 0001:000e7210       ?ToDeclaration@TiXmlNode@@UBEPBVTiXmlDeclaration@@XZ 004e8210 f i sp_splayer.obj
 0001:000e7210       ?Pitch@JSurfaceObject@@UAEJXZ 004e8210 f i sp_splayer.obj
 0001:000e7220       ??0SPVanish@@QAE@XZ        004e8220 f i sp_splayer.obj
 0001:000e72c0       ??1?$JPtrArray@PAG@@QAE@XZ 004e82c0 f i sp_splayer.obj
 0001:000e72c0       ??1?$JPtrArray@PAVCCharBodyWnd@@@@QAE@XZ 004e82c0 f i sp_splayer.obj
 0001:000e72c0       ??1?$JPtrArray@PAVSPTimeClientData@@@@QAE@XZ 004e82c0 f i sp_splayer.obj
 0001:000e72c0       ??1?$JPtrArray@PAVSPCalendarImage@@@@QAE@XZ 004e82c0 f i sp_splayer.obj
 0001:000e72c0       ??1?$JPtrArray@PAVSPBalloonFontProp@@@@QAE@XZ 004e82c0 f i sp_splayer.obj
 0001:000e72c0       ??1?$JPtrArray@PAVSPSerikoToolTipsEntry@@@@QAE@XZ 004e82c0 f i sp_splayer.obj
 0001:000e72c0       ??1?$JPtrArray@PAVSPBalloonProp@@@@QAE@XZ 004e82c0 f i sp_splayer.obj
 0001:000e72c0       ??1?$JPtrArray@PAV?$JPtrArray@PAVSPRecommendProp@@@@@@QAE@XZ 004e82c0 f i sp_splayer.obj
 0001:000e72c0       ??1?$JPtrArray@PAVSPCollisionProp@@@@QAE@XZ 004e82c0 f i sp_splayer.obj
 0001:000e72c0       ??1?$JArray@UtagSPControlAdjusterData@@@@QAE@XZ 004e82c0 f i sp_splayer.obj
 0001:000e72c0       ??1?$JPtrArray@PAVSPHeadline@@@@QAE@XZ 004e82c0 f i sp_splayer.obj
 0001:000e72c0       ??1?$JPtrArray@PAVSPLogData@@@@QAE@XZ 004e82c0 f i sp_splayer.obj
 0001:000e72c0       ??1?$JPtrArray@PAVSPScriptEntry@@@@QAE@XZ 004e82c0 f i sp_splayer.obj
 0001:000e72c0       ??1?$JPtrArray@PAVSPUpdateFileDef@@@@QAE@XZ 004e82c0 f i sp_splayer.obj
 0001:000e72c0       ??1?$JPtrArray@PAVSPAnimePat@@@@QAE@XZ 004e82c0 f i sp_splayer.obj
 0001:000e72c0       ??1?$JPtrArray@PAVSPSerikoAnimation@@@@QAE@XZ 004e82c0 f i sp_splayer.obj
 0001:000e72c0       ??1?$JPtrArray@PAVSPMCIPlayerDesc@@@@QAE@XZ 004e82c0 f i sp_splayer.obj
 0001:000e72c0       ??1?$JPtrArray@PAVSPDirServLogon@@@@QAE@XZ 004e82c0 f i sp_splayer.obj
 0001:000e72c0       ??1?$JPtrArray@PAVSPDeviceInfo@@@@QAE@XZ 004e82c0 f i sp_splayer.obj
 0001:000e72c0       ??1?$JPtrArray@PAVSPSTMThreadDesc@@@@QAE@XZ 004e82c0 f i sp_splayer.obj
 0001:000e72c0       ?Release@?$JArray@D@@QAEXXZ 004e82c0 f i sp_splayer.obj
 0001:000e72c0       ?Release@?$JArray@G@@QAEXXZ 004e82c0 f i sp_splayer.obj
 0001:000e72c0       ??1?$JPtrArray@PAVSPCookieEntry@@@@QAE@XZ 004e82c0 f i sp_splayer.obj
 0001:000e72c0       ??1?$JPtrArray@PAVSPCmdListener@@@@QAE@XZ 004e82c0 f i sp_splayer.obj
 0001:000e72c0       ??1?$JPtrArray@PAE@@QAE@XZ 004e82c0 f i sp_splayer.obj
 0001:000e72c0       ??1?$JPtrArray@PAVSPScript@@@@QAE@XZ 004e82c0 f i sp_splayer.obj
 0001:000e72c0       ??1?$JPtrArray@PAVSPMultiFileEntry@@@@QAE@XZ 004e82c0 f i sp_splayer.obj
 0001:000e72c0       ??1?$JPtrArray@PAVSPSurfaceTestData@@@@QAE@XZ 004e82c0 f i sp_splayer.obj
 0001:000e72c0       ??1?$JPtrArray@PAVSPScriptCategory@@@@QAE@XZ 004e82c0 f i sp_splayer.obj
 0001:000e72c0       ??1?$JPtrArray@PAVSPCmdNotifier@@@@QAE@XZ 004e82c0 f i sp_splayer.obj
 0001:000e72c0       ??1SPSimpleEncode@@QAE@XZ  004e82c0 f i sp_splayer.obj
 0001:000e72c0       ??1?$JArray@K@@QAE@XZ      004e82c0 f i sp_splayer.obj
 0001:000e72c0       ?Release@?$JArray@J@@QAEXXZ 004e82c0 f i sp_splayer.obj
 0001:000e72c0       ?Release@?$JArray@UtagSPParamEntry@@@@QAEXXZ 004e82c0 f i sp_splayer.obj
 0001:000e72c0       ??1?$JPtrArray@PAVSPGhostTimeEntry@@@@QAE@XZ 004e82c0 f i sp_splayer.obj
 0001:000e72c0       ??1?$JPtrArray@PAVCInputWnd@@@@QAE@XZ 004e82c0 f i sp_splayer.obj
 0001:000e72c0       ??1?$JPtrArray@PAVCPlaySSFScript@@@@QAE@XZ 004e82c0 f i sp_splayer.obj
 0001:000e72c0       ??1?$JPtrArray@P6AXKPAX0@Z@@QAE@XZ 004e82c0 f i sp_splayer.obj
 0001:000e72c0       ??1?$JPtrArray@PBVTiXmlNode@@@@QAE@XZ 004e82c0 f i sp_splayer.obj
 0001:000e72c0       ??1?$JPtrArray@PAVSPDataPathListData@@@@QAE@XZ 004e82c0 f i sp_splayer.obj
 0001:000e72c0       ??1?$JArray@VCListDialogData@@@@QAE@XZ 004e82c0 f i sp_splayer.obj
 0001:000e72c0       ??1?$JArray@UtagSPMenuHackData@@@@QAE@XZ 004e82c0 f i sp_splayer.obj
 0001:000e72c0       ??1?$JPtrArray@PAVSPHeadlineRSSElement@@@@QAE@XZ 004e82c0 f i sp_splayer.obj
 0001:000e72c0       ??1?$JArray@VJPoint@@@@QAE@XZ 004e82c0 f i sp_splayer.obj
 0001:000e72c0       ??1?$JPtrArray@PAVSPLanguageProp@@@@QAE@XZ 004e82c0 f i sp_splayer.obj
 0001:000e72c0       ??1?$JArray@PAX@@QAE@XZ    004e82c0 f i sp_splayer.obj
 0001:000e72c0       ??1?$JPtrArray@PAVJSurface@@@@QAE@XZ 004e82c0 f i sp_splayer.obj
 0001:000e72c0       ??1?$JPtrArray@PAVSPSongEntry@@@@QAE@XZ 004e82c0 f i sp_splayer.obj
 0001:000e72c0       ??1?$JPtrArray@PAVSPSSTPData@@@@QAE@XZ 004e82c0 f i sp_splayer.obj
 0001:000e72c0       ??1?$JPtrArray@PAVSPSSTPServerSocket@@@@QAE@XZ 004e82c0 f i sp_splayer.obj
 0001:000e72c0       ??1?$JPtrArray@PAVSPCalendarIconEntry@@@@QAE@XZ 004e82c0 f i sp_splayer.obj
 0001:000e72c0       ??1?$JPtrArray@PAVCSSPPropertyData@@@@QAE@XZ 004e82c0 f i sp_splayer.obj
 0001:000e72c0       ??1?$JPtrArray@PAVSPGhostLoaderInfo@@@@QAE@XZ 004e82c0 f i sp_splayer.obj
 0001:000e72c0       ??1?$JPtrArray@PAVSPUpdateEntry@@@@QAE@XZ 004e82c0 f i sp_splayer.obj
 0001:000e72c0       ??1?$JPtrArray@PAVSPBalloonImage@@@@QAE@XZ 004e82c0 f i sp_splayer.obj
 0001:000e72c0       ??1?$JPtrArray@PAVSPScheduleEntry@@@@QAE@XZ 004e82c0 f i sp_splayer.obj
 0001:000e72c0       ??1?$JPtrArray@PAVSPSerikoTask@@@@QAE@XZ 004e82c0 f i sp_splayer.obj
 0001:000e72c0       ??1?$JPtrArray@PAVSPAnimeBase@@@@QAE@XZ 004e82c0 f i sp_splayer.obj
 0001:000e72c0       ??1?$JPtrArray@PAVSPBindEntry@@@@QAE@XZ 004e82c0 f i sp_splayer.obj
 0001:000e72c0       ??1?$JPtrArray@PAVJGIFImage@@@@QAE@XZ 004e82c0 f i sp_splayer.obj
 0001:000e72c0       ??1?$JPtrArray@PAVSPBalloonDesc@@@@QAE@XZ 004e82c0 f i sp_splayer.obj
 0001:000e72c0       ??1?$JPtrArray@PAVSPScriptQueueData@@@@QAE@XZ 004e82c0 f i sp_splayer.obj
 0001:000e72c0       ??1?$JPtrArray@PAVSPGhost@@@@QAE@XZ 004e82c0 f i sp_splayer.obj
 0001:000e72c0       ??1?$JPtrArray@PAVSPBalloonDescHolder@@@@QAE@XZ 004e82c0 f i sp_splayer.obj
 0001:000e72c0       ??1?$JPtrArray@PAVSPGhostSet@@@@QAE@XZ 004e82c0 f i sp_splayer.obj
 0001:000e72c0       ??1?$JPtrArray@PAVSPAnimeSurfaceElement@@@@QAE@XZ 004e82c0 f i sp_splayer.obj
 0001:000e72c0       ??1?$JArray@VJSockAddr@@@@QAE@XZ 004e82c0 f i sp_splayer.obj
 0001:000e72c0       ?Release@?$JArray@PAX@@QAEXXZ 004e82c0 f i sp_splayer.obj
 0001:000e72c0       ??1?$JArray@USPSerikoAnimationQueue@@@@QAE@XZ 004e82c0 f i sp_splayer.obj
 0001:000e72c0       ??1?$JPtrArray@PAVSPBindGroup@@@@QAE@XZ 004e82c0 f i sp_splayer.obj
 0001:000e72c0       ??1?$JArray@D@@QAE@XZ      004e82c0 f i sp_splayer.obj
 0001:000e72c0       ??1?$JPtrArray@PAVSPBalloonWnd@@@@QAE@XZ 004e82c0 f i sp_splayer.obj
 0001:000e72c0       ??1?$JPtrArray@PAVSPCalendarSkinProp@@@@QAE@XZ 004e82c0 f i sp_splayer.obj
 0001:000e72c0       ?Release@?$JArray@VJPoint@@@@QAEXXZ 004e82c0 f i sp_splayer.obj
 0001:000e72c0       ??1?$JPtrArray@PAVSPPopMessage@@@@QAE@XZ 004e82c0 f i sp_splayer.obj
 0001:000e72c0       ??1?$JPtrArray@PAVSPScheduleSensorProp@@@@QAE@XZ 004e82c0 f i sp_splayer.obj
 0001:000e72c0       ??1?$JPtrArray@PAVSPBindProp@@@@QAE@XZ 004e82c0 f i sp_splayer.obj
 0001:000e72c0       ??1?$JArray@VJRect@@@@QAE@XZ 004e82c0 f i sp_splayer.obj
 0001:000e72c0       ??1?$JPtrArray@PAVSPRecommendProp@@@@QAE@XZ 004e82c0 f i sp_splayer.obj
 0001:000e72c0       ??1?$JPtrArray@PAD@@QAE@XZ 004e82c0 f i sp_splayer.obj
 0001:000e72c0       ??1?$JPtrArray@PAVSPOtherGhostProp@@@@QAE@XZ 004e82c0 f i sp_splayer.obj
 0001:000e72c0       ??1?$JPtrArray@PAUHMENU__@@@@QAE@XZ 004e82c0 f i sp_splayer.obj
 0001:000e72c0       ?Release@?$JArray@K@@QAEXXZ 004e82c0 f i sp_splayer.obj
 0001:000e72c0       ??1?$JPtrArray@PAVSPSurface@@@@QAE@XZ 004e82c0 f i sp_splayer.obj
 0001:000e72c0       ??1?$JPtrArray@PAVSPMenuItem@@@@QAE@XZ 004e82c0 f i sp_splayer.obj
 0001:000e72c0       ??1?$JPtrArray@PAVSPCookieClient@@@@QAE@XZ 004e82c0 f i sp_splayer.obj
 0001:000e72c0       ??1?$JPtrArray@PAVSPAnimeScript@@@@QAE@XZ 004e82c0 f i sp_splayer.obj
 0001:000e72c0       ??1?$JPtrArray@PAVSPPopAccount@@@@QAE@XZ 004e82c0 f i sp_splayer.obj
 0001:000e72c0       ??1?$JArray@VSPSerikoAnimationPlayPat@@@@QAE@XZ 004e82c0 f i sp_splayer.obj
 0001:000e72c0       ??1?$JPtrArray@PAVSPGhostProp@@@@QAE@XZ 004e82c0 f i sp_splayer.obj
 0001:000e72c0       ??1?$JPtrArray@PAVJString@@@@QAE@XZ 004e82c0 f i sp_splayer.obj
 0001:000e72c0       ??1?$JPtrArray@PAVSPDirServProp@@@@QAE@XZ 004e82c0 f i sp_splayer.obj
 0001:000e72c0       ??1?$JPtrArray@PAVSPPlugin@@@@QAE@XZ 004e82c0 f i sp_splayer.obj
 0001:000e72c0       ??1?$JPtrArray@PBD@@QAE@XZ 004e82c0 f i sp_splayer.obj
 0001:000e72c0       ??1?$JPtrArray@PAV?$SPSparsePtrArrayDef@PAVSPAnimeBase@@@@@@QAE@XZ 004e82c0 f i sp_splayer.obj
 0001:000e72c0       ??1?$JPtrArray@PAVSPShellProp@@@@QAE@XZ 004e82c0 f i sp_splayer.obj
 0001:000e72c0       ??1?$JPtrArray@PAVSPMessengerLogData@@@@QAE@XZ 004e82c0 f i sp_splayer.obj
 0001:000e72c0       ??1?$JPtrArray@PAVSPMessengerUser@@@@QAE@XZ 004e82c0 f i sp_splayer.obj
 0001:000e72c0       ??1?$JArray@UtagSPParamEntry@@@@QAE@XZ 004e82c0 f i sp_splayer.obj
 0001:000e72c0       ??1?$JArray@J@@QAE@XZ      004e82c0 f i sp_splayer.obj
 0001:000e72c0       ??1?$JPtrArray@PAVSPBalloonString@@@@QAE@XZ 004e82c0 f i sp_splayer.obj
 0001:000e72c0       ??1?$JPtrArray@PAVSPSerikoCursorEntry@@@@QAE@XZ 004e82c0 f i sp_splayer.obj
 0001:000e72c0       ??1?$JArray@UtagPOINT@@@@QAE@XZ 004e82c0 f i sp_splayer.obj
 0001:000e72c0       ??1?$JArray@G@@QAE@XZ      004e82c0 f i sp_splayer.obj
 0001:000e72c0       ??1?$JPtrArray@PAVSPGhostRaiseTimerBlock@@@@QAE@XZ 004e82c0 f i sp_splayer.obj
 0001:000e72c0       ??1?$JPtrArray@PAVSPSurfaceTable@@@@QAE@XZ 004e82c0 f i sp_splayer.obj
 0001:000e72c0       ??1?$JPtrArray@PAVSPProp@@@@QAE@XZ 004e82c0 f i sp_splayer.obj
 0001:000e72c0       ??1?$JPtrArray@PAVJWString@@@@QAE@XZ 004e82c0 f i sp_splayer.obj
 0001:000e72c0       ??1?$JArray@UtagCTW_GHOSTTIMEDATA@@@@QAE@XZ 004e82c0 f i sp_splayer.obj
 0001:000e72c0       ??1?$JPtrArray@PAVSPTimingEntry@@@@QAE@XZ 004e82c0 f i sp_splayer.obj
 0001:000e72c0       ??1?$JPtrArray@PAVSPVanishData@@@@QAE@XZ 004e82c0 f i sp_splayer.obj
 0001:000e72c0       ??1?$JPtrArray@PAVSPOtherFINEServerProp@@@@QAE@XZ 004e82c0 f i sp_splayer.obj
 0001:000e72c0       ??1?$JPtrArray@PAVSPFolderListData@@@@QAE@XZ 004e82c0 f i sp_splayer.obj
 0001:000e72f0       ??1SPLogManagerScript@@UAE@XZ 004e82f0 f i sp_splayer.obj
 0001:000e7370       ??1SPLogManagerError@@UAE@XZ 004e8370 f i sp_splayer.obj
 0001:000e73f0       ??_ESPLogManagerScript@@UAEPAXI@Z 004e83f0 f i sp_splayer.obj
 0001:000e73f0       ??_GSPLogManagerScript@@UAEPAXI@Z 004e83f0 f i sp_splayer.obj
 0001:000e7420       ??_ESPLogManagerError@@UAEPAXI@Z 004e8420 f i sp_splayer.obj
 0001:000e7420       ??_GSPLogManagerError@@UAEPAXI@Z 004e8420 f i sp_splayer.obj
 0001:000e7450       ??1SPScriptPlayer@@QAE@XZ  004e8450 f   sp_splayer.obj
 0001:000e7b10       ?SetHeapFlags@SPScriptPlayer@@AAEXXZ 004e8b10 f   sp_splayer.obj
 0001:000e7ba0       ?UseExceptionHandler@SPScriptPlayer@@QAEXH@Z 004e8ba0 f   sp_splayer.obj
 0001:000e7c80       ?CreateFINEFMO@SPScriptPlayer@@QAEXXZ 004e8c80 f   sp_splayer.obj
 0001:000e7d20       ?CreateFMO@SPScriptPlayer@@QAEXPAD@Z 004e8d20 f   sp_splayer.obj
 0001:000e7e60       ?Init@SPScriptPlayer@@QAEXXZ 004e8e60 f   sp_splayer.obj
 0001:000e89c0       ?Release@SPScriptPlayer@@QAEXXZ 004e99c0 f   sp_splayer.obj
 0001:000e8c50       ??1SPVanish@@QAE@XZ        004e9c50 f i sp_splayer.obj
 0001:000e8cc0       ?PreInit@SPScriptPlayer@@QAEXXZ 004e9cc0 f   sp_splayer.obj
 0001:000e9310       ?MultiLanguageSetup@SPScriptPlayer@@AAEHXZ 004ea310 f   sp_splayer.obj
 0001:000e95b0       ?EnumMultiLanguageSettings@SPScriptPlayer@@AAEXXZ 004ea5b0 f   sp_splayer.obj
 0001:000e9920       ?LoadLanguageInfo@SPScriptPlayer@@AAEXPAD@Z 004ea920 f   sp_splayer.obj
 0001:000e9e60       ?GetResHandle@SPScriptPlayer@@QAEPAXIPADPAK@Z 004eae60 f   sp_splayer.obj
 0001:000e9f20       ?GetResHandleMalloc@SPScriptPlayer@@QAEPAXIPADPAK@Z 004eaf20 f   sp_splayer.obj
 0001:000e9f90       ?StopInfoCacheThread@SPScriptPlayer@@QAEXXZ 004eaf90 f   sp_splayer.obj
 0001:000e9fd0       ?EnumGhosts@SPScriptPlayer@@QAEHP6AJPAXKK@Z0@Z 004eafd0 f   sp_splayer.obj
 0001:000ea350       ?LoadGhostInfo@SPScriptPlayer@@AAEHPAVSPFolderListData@@AAV?$JPtrArray@PAVSPGhostProp@@@@@Z 004eb350 f   sp_splayer.obj
 0001:000ea590       ??_GSPGhostProp@@UAEPAXI@Z 004eb590 f i sp_splayer.obj
 0001:000ea590       ??_ESPGhostProp@@UAEPAXI@Z 004eb590 f i sp_splayer.obj
 0001:000ea5c0       ??1SPGhostProp@@UAE@XZ     004eb5c0 f i sp_splayer.obj
 0001:000ea6a0       ?LoadGhostInfoNH@SPScriptPlayer@@AAEXAAV?$JPtrArray@PAVSPGhostProp@@@@@Z 004eb6a0 f   sp_splayer.obj
 0001:000eab50       ?ReloadAllBalloons@SPScriptPlayer@@QAEHPAD@Z 004ebb50 f   sp_splayer.obj
 0001:000eabc0       ?EnumBalloons@SPScriptPlayer@@QAEHP6AJPAXKK@Z0@Z 004ebbc0 f   sp_splayer.obj
 0001:000eadd0       ?LoadBalloonInfo@SPScriptPlayer@@AAEHPAVSPFolderListData@@AAV?$JPtrArray@PAVSPBalloonProp@@@@@Z 004ebdd0 f   sp_splayer.obj
 0001:000eaff0       ??_GSPBalloonProp@@UAEPAXI@Z 004ebff0 f i sp_splayer.obj
 0001:000eaff0       ??_ESPBalloonProp@@UAEPAXI@Z 004ebff0 f i sp_splayer.obj
 0001:000eb020       ??1SPBalloonProp@@UAE@XZ   004ec020 f i sp_splayer.obj
 0001:000eb0d0       ?EnumHeadlines@SPScriptPlayer@@QAEHP6AJPAXKK@Z0@Z 004ec0d0 f   sp_splayer.obj
 0001:000eb310       ?LoadHeadlineInfo@SPScriptPlayer@@AAEHPAVSPFolderListData@@AAV?$JPtrArray@PAVSPHeadline@@@@@Z 004ec310 f   sp_splayer.obj
 0001:000eb480       ?MakeRSSDirectory@SPScriptPlayer@@QAEHAAVJString@@@Z 004ec480 f   sp_splayer.obj
 0001:000eb550       ?GetProxyType@SPScriptPlayer@@SI?AW4SPSPlayer_Proxy_Type@@PAD@Z 004ec550 f   sp_splayer.obj
 0001:000eb5b0       ?SaveProxyType@SPScriptPlayer@@QAEXXZ 004ec5b0 f   sp_splayer.obj
 0001:000eb610       ?InitNetworkSetting@SPScriptPlayer@@QAEXXZ 004ec610 f   sp_splayer.obj
 0001:000eb7a0       ?LoadSystemProxySetting@SPScriptPlayer@@QAEHXZ 004ec7a0 f   sp_splayer.obj
 0001:000eb980       ?FindCacheFromID@SPScriptPlayer@@QAEPAVSPGhost@@HH@Z 004ec980 f   sp_splayer.obj
 0001:000ebb10       ?LoadGhost@SPScriptPlayer@@QAEPAVSPGhost@@HH@Z 004ecb10 f   sp_splayer.obj
 0001:000ebd40       ?FindGhostIDFromPath@SPScriptPlayer@@QAEJPBDH@Z 004ecd40 f   sp_splayer.obj
 0001:000ebe40       ?FindGhostIDFromName@SPScriptPlayer@@QAEJPBG00@Z 004ece40 f   sp_splayer.obj
 0001:000ec060       ?FindHeadlineIDFromPath@SPScriptPlayer@@QAEJPADHH@Z 004ed060 f   sp_splayer.obj
 0001:000ec0c0       ?FindHeadlineIDFromReadURL@SPScriptPlayer@@QAEJPBGH@Z 004ed0c0 f   sp_splayer.obj
 0001:000ec130       ?FindBalloonIDFromPath@SPScriptPlayer@@QAEJPADH@Z 004ed130 f   sp_splayer.obj
 0001:000ec160       ?FindBalloonIDFromRelativePath@SPScriptPlayer@@QAEJPAD@Z 004ed160 f   sp_splayer.obj
 0001:000ec190       ?FindBalloonIDFromName@SPScriptPlayer@@QAEJPAG@Z 004ed190 f   sp_splayer.obj
 0001:000ec1c0       ?SetPreferredGhostPath@SPScriptPlayer@@QAEXPAD@Z 004ed1c0 f   sp_splayer.obj
 0001:000ec200       ?UpdatePreferredGhostIDCache@SPScriptPlayer@@AAEXXZ 004ed200 f   sp_splayer.obj
 0001:000ec220       ?GetPreferredGhostID@SPScriptPlayer@@QAEJXZ 004ed220 f   sp_splayer.obj
 0001:000ec230       ?SetDefaultGhostPath@SPScriptPlayer@@QAEXPAD@Z 004ed230 f   sp_splayer.obj
 0001:000ec260       ?SetDefaultBalloonPath@SPScriptPlayer@@QAEXPAD@Z 004ed260 f   sp_splayer.obj
 0001:000ec290       ?GetPreferredActiveGhost@SPScriptPlayer@@QAEPAVSPGhost@@XZ 004ed290 f   sp_splayer.obj
 0001:000ec350       ?GetActiveFullBootGhostCount@SPScriptPlayer@@QAEIPAVSPGhost@@@Z 004ed350 f   sp_splayer.obj
 0001:000ec3b0       ?UtilBrowseURL@SPScriptPlayer@@QAEHPBG@Z 004ed3b0 f   sp_splayer.obj
 0001:000ec490       ?UtilBrowseURL@SPScriptPlayer@@QAEHPBD@Z 004ed490 f   sp_splayer.obj
 0001:000eca50       ?UtilExploreFile@SPScriptPlayer@@QAEHPAD@Z 004eda50 f   sp_splayer.obj
 0001:000ecaa0       ?UtilSendMail@SPScriptPlayer@@QAEHPAG@Z 004edaa0 f   sp_splayer.obj
 0001:000ecbc0       ?ExecuteNetApps@SPScriptPlayer@@QAEHPAD@Z 004edbc0 f   sp_splayer.obj
 0001:000ecf60       ?IsSpeedup@SPScriptPlayer@@QAEHXZ 004edf60 f   sp_splayer.obj
 0001:000ecf90       ?GetVisibleGhost@SPScriptPlayer@@QAEPAVSPGhost@@H@Z 004edf90 f   sp_splayer.obj
 0001:000ed090       ?StartSSTPServers@SPScriptPlayer@@QAEHXZ 004ee090 f   sp_splayer.obj
 0001:000ed110       ?EndSSTPServers@SPScriptPlayer@@QAEHXZ 004ee110 f   sp_splayer.obj
 0001:000ed140       ?SaveSSTPSetting@SPScriptPlayer@@QAEHXZ 004ee140 f   sp_splayer.obj
 0001:000ed160       ?FindActiveGhostArrayFromName@SPScriptPlayer@@QAEKPAGAAV?$JPtrArray@PAVSPGhost@@@@@Z 004ee160 f   sp_splayer.obj
 0001:000ed320       ?FindActiveGhostFromName@SPScriptPlayer@@QAEPAVSPGhost@@PBG00_N@Z 004ee320 f   sp_splayer.obj
 0001:000ed530       ?FindActiveGhostFromPath@SPScriptPlayer@@QAEPAVSPGhost@@PBDH@Z 004ee530 f   sp_splayer.obj
 0001:000ed6a0       ?FindActiveGhostFromRelativePath@SPScriptPlayer@@QAEPAVSPGhost@@PBD@Z 004ee6a0 f   sp_splayer.obj
 0001:000ed7c0       ?FindActiveGhostFromHWND@SPScriptPlayer@@QAEPAVSPGhost@@PAX@Z 004ee7c0 f   sp_splayer.obj
 0001:000ed820       ?FindActiveGhostFromID@SPScriptPlayer@@QAEPAVSPGhost@@H@Z 004ee820 f   sp_splayer.obj
 0001:000ed870       ?FindActiveGhostFromGhostProp@SPScriptPlayer@@QAEPAVSPGhost@@PAVSPGhostProp@@@Z 004ee870 f   sp_splayer.obj
 0001:000ed8d0       ?CallGhost@SPScriptPlayer@@QAE_NPBGJJ@Z 004ee8d0 f   sp_splayer.obj
 0001:000ed930       ?CallGhost@SPScriptPlayer@@QAE_NPAVSPGhostLoaderInfo@@@Z 004ee930 f   sp_splayer.obj
 0001:000ed950       ?NewGhostLoadInfo@SPScriptPlayer@@QAEPAVSPGhostLoaderInfo@@XZ 004ee950 f   sp_splayer.obj
 0001:000ed960       ?DeleteGhost@SPScriptPlayer@@QAEHPAVSPGhost@@H@Z 004ee960 f   sp_splayer.obj
 0001:000edaa0       ?UpdateCache@SPScriptPlayer@@QAEHPAVSPGhost@@@Z 004eeaa0 f   sp_splayer.obj
 0001:000edcc0       ?PurgeAllCache@SPScriptPlayer@@QAEXXZ 004eecc0 f   sp_splayer.obj
 0001:000edd50       ?PurgeCacheIfExist@SPScriptPlayer@@QAEHPAD@Z 004eed50 f   sp_splayer.obj
 0001:000edeb0       ?UpdateFINEFileMapping@SPScriptPlayer@@QAE_NI@Z 004eeeb0 f   sp_splayer.obj
 0001:000ee480       ??1JUnlock@@QAE@XZ         004ef480 f i sp_splayer.obj
 0001:000ee480       ??1JLock@@QAE@XZ           004ef480 f i sp_splayer.obj
 0001:000ee490       ?UpdateFileMapping@SPScriptPlayer@@QAE_NI@Z 004ef490 f   sp_splayer.obj
 0001:000ee4c0       ?UpdateSakuraFileMapping@SPScriptPlayer@@QAE_NI@Z 004ef4c0 f   sp_splayer.obj
 0001:000ef0d0       ?LoadWindowProc@SPScriptPlayer@@AAEHAAVJRect@@PADPAH@Z 004f00d0 f   sp_splayer.obj
 0001:000ef230       ?LoadWindowRect@SPScriptPlayer@@QAEXPAUHWND__@@PADPAH@Z 004f0230 f   sp_splayer.obj
 0001:000ef2d0       ?LoadWindowPos@SPScriptPlayer@@QAEXPAUHWND__@@PADPAH@Z 004f02d0 f   sp_splayer.obj
 0001:000ef370       ?SaveWindowRect@SPScriptPlayer@@QAEXPAUHWND__@@PADH@Z 004f0370 f   sp_splayer.obj
 0001:000ef430       ?FindOtherGhostHWnd@SPScriptPlayer@@QAEPAXPAVSPGhost@@PBG1AAPAV2@@Z 004f0430 f   sp_splayer.obj
 0001:000ef500       ?GetOtherGhostHWndList@SPScriptPlayer@@QAEXPAVSPGhost@@HAAV?$JArray@PAX@@AAV?$JPtrArray@PAVSPGhost@@@@@Z 004f0500 f   sp_splayer.obj
 0001:000ef720       ?AddScriptLog@SPScriptPlayer@@QAEKPBGPAVSPGhost@@KK@Z 004f0720 f   sp_splayer.obj
 0001:000ef760       ?AddErrorLog@SPScriptPlayer@@QAEKPBGIPAVSPGhost@@@Z 004f0760 f   sp_splayer.obj
 0001:000ef790       ?AddErrorLog@SPScriptPlayer@@QAEKPBGIPAG@Z 004f0790 f   sp_splayer.obj
 0001:000ef7b0       ?SetAutoChangeType@SPScriptPlayer@@QAEXPAD@Z 004f07b0 f   sp_splayer.obj
 0001:000ef800       ?IsNetOnline@SPScriptPlayer@@QAE_NXZ 004f0800 f   sp_splayer.obj
 0001:000ef8f0       ?AskNetConnectionAllow@SPScriptPlayer@@QAE_NXZ 004f08f0 f   sp_splayer.obj
 0001:000ef920       ?IsNetConnectionAllowed@SPScriptPlayer@@QAE_NXZ 004f0920 f   sp_splayer.obj
 0001:000ef9c0       ?IsGhostIDBooted@SPScriptPlayer@@QAE_NJ@Z 004f09c0 f   sp_splayer.obj
 0001:000efa40       ?GetSystemUserName@SPScriptPlayer@@QAEPBGXZ 004f0a40 f   sp_splayer.obj
 0001:000efb30       ?GetSSPTempName@SPScriptPlayer@@QAEXAAVJString@@PBD@Z 004f0b30 f   sp_splayer.obj
 0001:000efc30       ?GetMD5TempName@SPScriptPlayer@@QAEXAAVJString@@PBD1@Z 004f0c30 f   sp_splayer.obj
 0001:000efcd0       ?MessageBoxTable@SPScriptPlayer@@QAEHPADI@Z 004f0cd0 f   sp_splayer.obj
 0001:000efde0       ?SetComboBoxTable@SPScriptPlayer@@QAEXPADPAUHWND__@@@Z 004f0de0 f   sp_splayer.obj
 0001:000efe50       ?OnNotifyEventAll@SPScriptPlayer@@QAE_NAAVSPShioriEvent@@KKKPAVSPGhost@@@Z 004f0e50 f   sp_splayer.obj
 0001:000eff00       ?OtherGhostTalkBroadcast@SPScriptPlayer@@QAEXPAVSPGhost@@AAVSPShioriEvent@@@Z 004f0f00 f   sp_splayer.obj
 0001:000eff40       ?OtherGhostTalkAdd@SPScriptPlayer@@QAEXPAVSPCmdListener@@@Z 004f0f40 f   sp_splayer.obj
 0001:000eff60       ?OtherGhostTalkDelete@SPScriptPlayer@@QAEXPAVSPCmdListener@@@Z 004f0f60 f   sp_splayer.obj
 0001:000eff80       ?NotifyFolder@SPScriptPlayer@@QAEXK@Z 004f0f80 f   sp_splayer.obj
 0001:000f0000       ?OnSystemSettingChange@SPScriptPlayer@@QAEXI@Z 004f1000 f   sp_splayer.obj
 0001:000f0040       ?UpdateAllWindowPos@SPScriptPlayer@@QAEXXZ 004f1040 f   sp_splayer.obj
 0001:000f0090       ?GetNarDir@SPScriptPlayer@@QAEXAAVJString@@@Z 004f1090 f   sp_splayer.obj
 0001:000f0120       ?ShowProgressWindow@SPScriptPlayer@@QAEXPBG@Z 004f1120 f   sp_splayer.obj
 0001:000f0170       ?GetTextFromTable@SPScriptPlayer@@QAEPADPAD@Z 004f1170 f   sp_splayer.obj
 0001:000f01a0       ?GetTextFromTableW@SPScriptPlayer@@QAEPAGPAD@Z 004f11a0 f   sp_splayer.obj
 0001:000f01d0       ?FindSystemFileFromPartialDir@SPScriptPlayer@@QAEXPADAAVJString@@@Z 004f11d0 f   sp_splayer.obj
 0001:000f04a0       ??0?$SPCacheObj@VSPOtherGhostProp@@VJDummyLockSection@@VJDummyLock@@@@QAE@K@Z 004f14a0 f i sp_splayer.obj
 0001:000f04f0       ??0?$SPCacheObj@VSPOtherFINEServerProp@@VJDummyLockSection@@VJDummyLock@@@@QAE@K@Z 004f14f0 f i sp_splayer.obj
 0001:000f0540       ?New@?$SPCacheObj@VSPGhostLoaderInfo@@VJCriticalSection@@VJLock@@@@QAEPAVSPGhostLoaderInfo@@XZ 004f1540 f i sp_splayer.obj
 0001:000f06b0       ??0SPGhostLoaderInfo@@AAE@XZ 004f16b0 f i sp_splayer.obj
 0001:000f0770       ??1SPLanguageProp@@QAE@XZ  004f1770 f i sp_splayer.obj
 0001:000f0840       ?_Sort_0@std@@YAXPAPAVSPGhostProp@@0U?$PredConverter@PAVSPGhostProp@@P6AHPAV1@0@Z@@0@Z 004f1840 f i sp_splayer.obj
 0001:000f0b10       ?_Sort_0@std@@YAXPAPAVSPBalloonProp@@0U?$PredConverter@PAVSPBalloonProp@@P6AHPAV1@0@Z@@0@Z 004f1b10 f i sp_splayer.obj
 0001:000f0de0       ?_Sort_0@std@@YAXPAPAVSPHeadline@@0U?$PredConverter@PAVSPHeadline@@P6AHPAV1@0@Z@@0@Z 004f1de0 f i sp_splayer.obj
 0001:000f10b0       ?_Sort_0@std@@YAXPAPAVSPGhost@@0U?$PredConverter@PAVSPGhost@@P6AHPAV1@0@Z@@0@Z 004f20b0 f i sp_splayer.obj
 0001:000f1380       ?_Sort@std@@YAXPAPAVSPGhostProp@@0U?$PredConverter@PAVSPGhostProp@@P6AHPAV1@0@Z@@0@Z 004f2380 f i sp_splayer.obj
 0001:000f14c0       ?_Sort@std@@YAXPAPAVSPBalloonProp@@0U?$PredConverter@PAVSPBalloonProp@@P6AHPAV1@0@Z@@0@Z 004f24c0 f i sp_splayer.obj
 0001:000f1600       ?_Sort@std@@YAXPAPAVSPHeadline@@0U?$PredConverter@PAVSPHeadline@@P6AHPAV1@0@Z@@0@Z 004f2600 f i sp_splayer.obj
 0001:000f1740       ?_Sort@std@@YAXPAPAVSPGhost@@0U?$PredConverter@PAVSPGhost@@P6AHPAV1@0@Z@@0@Z 004f2740 f i sp_splayer.obj
 0001:000f1880       ??0SPSSTPData@@IAE@XZ      004f2880 f   sp_sstpdata.obj
 0001:000f19d0       ?Release@SPSSTPData@@QAEXXZ 004f29d0 f   sp_sstpdata.obj
 0001:000f1b10       ?SetData@SPSSTPData@@QAEXPAG00@Z 004f2b10 f   sp_sstpdata.obj
 0001:000f1d90       ?ProcessData@SPSSTPData@@QAEXPADPAXPAVJSocket@@@Z 004f2d90 f   sp_sstpdata.obj
 0001:000f2370       ?AddValueW@SPSSTPData@@QAEXPADPAG@Z 004f3370 f   sp_sstpdata.obj
 0001:000f25a0       ?ReturnData@SPSSTPData@@AAEHAAVJString@@@Z 004f35a0 f   sp_sstpdata.obj
 0001:000f2680       ?ReturnStatus@SPSSTPData@@QAEHHPAG0@Z 004f3680 f   sp_sstpdata.obj
 0001:000f2990       ?StringSelected@SPSSTPData@@QAEXPAG@Z 004f3990 f   sp_sstpdata.obj
 0001:000f29b0       ?GetValueW@SPSSTPData@@QAEPAGPBD@Z 004f39b0 f   sp_sstpdata.obj
 0001:000f29e0       ?GetValueReferenceW@SPSSTPData@@QAEXPBDAAV?$JPtrArray@PAG@@@Z 004f39e0 f   sp_sstpdata.obj
 0001:000f2b00       ?GetValueIndex@SPSSTPData@@QAEPAGK@Z 004f3b00 f   sp_sstpdata.obj
 0001:000f2b30       ?GetOptionW@SPSSTPData@@QAEPAGXZ 004f3b30 f   sp_sstpdata.obj
 0001:000f2b70       ?GetEntryNum@SPSSTPData@@AAEJPBDK@Z 004f3b70 f   sp_sstpdata.obj
 0001:000f2bd0       ?isFromLocal@SPSSTPData@@QAE_NXZ 004f3bd0 f   sp_sstpdata.obj
 0001:000f2be0       ?isFINE@SPSSTPData@@QAE_NXZ 004f3be0 f   sp_sstpdata.obj
 0001:000f2c10       ?MakeIfGhost@SPSSTPData@@AAEKXZ 004f3c10 f   sp_sstpdata.obj
 0001:000f2dd0       ?GetScriptW@SPSSTPData@@QAEPAGPAVSPGhost@@@Z 004f3dd0 f   sp_sstpdata.obj
 0001:000f2f90       ?GetBootGhostIDAndScriptW@SPSSTPData@@QAEJAAVJWString@@AAPAVSPGhost@@@Z 004f3f90 f   sp_sstpdata.obj
 0001:000f3150       ?GetGhostAndScriptW@SPSSTPData@@QAEPAVSPGhost@@AAVJWString@@@Z 004f4150 f   sp_sstpdata.obj
 0001:000f3470       ?GetEntryW@SPSSTPData@@QAEXAAVJWString@@@Z 004f4470 f   sp_sstpdata.obj
 0001:000f3710       ?isSecure@SPSSTPData@@QAE_NXZ 004f4710 f   sp_sstpdata.obj
 0001:000f3750       ??0SPSSTPServerSocket@@QAE@XZ 004f4750 f   sp_sstpserver.obj
 0001:000f3790       ??1SPSSTPServerSocket@@QAE@XZ 004f4790 f   sp_sstpserver.obj
 0001:000f37f0       ?Close@SPSSTPServerSocket@@QAEXW4JSocketCloseOption@@@Z 004f47f0 f   sp_sstpserver.obj
 0001:000f3830       ?Handle@SPSSTPServerSocket@@QAEPAVJSocket@@K@Z 004f4830 f   sp_sstpserver.obj
 0001:000f3870       ?Listen@SPSSTPServerSocket@@QAEHPAUHWND__@@@Z 004f4870 f   sp_sstpserver.obj
 0001:000f3950       ??0SPSSTPServer@@QAE@PAUHWND__@@@Z 004f4950 f   sp_sstpserver.obj
 0001:000f3aa0       ?ReleaseAllSocket@SPSSTPServer@@QAEXXZ 004f4aa0 f   sp_sstpserver.obj
 0001:000f3b00       ??1SPSSTPServer@@QAE@XZ    004f4b00 f   sp_sstpserver.obj
 0001:000f3c40       ??1SPSSTPData@@IAE@XZ      004f4c40 f i sp_sstpserver.obj
 0001:000f3d90       ?NewSSTPData@SPSSTPServer@@QAEPAVSPSSTPData@@XZ 004f4d90 f   sp_sstpserver.obj
 0001:000f3e40       ?DeleteSSTPData@SPSSTPServer@@QAEXPAVSPSSTPData@@H@Z 004f4e40 f   sp_sstpserver.obj
 0001:000f3f90       ?Save@SPSSTPServer@@QAEXXZ 004f4f90 f   sp_sstpserver.obj
 0001:000f4100       ?Start@SPSSTPServer@@QAEXXZ 004f5100 f   sp_sstpserver.obj
 0001:000f4270       ?InitListenPort@SPSSTPServer@@QAEXXZ 004f5270 f   sp_sstpserver.obj
 0001:000f42b0       ?AddListenPort@SPSSTPServer@@QAEHHH@Z 004f52b0 f   sp_sstpserver.obj
 0001:000f4450       ?DelListenPort@SPSSTPServer@@QAEXJ@Z 004f5450 f   sp_sstpserver.obj
 0001:000f44d0       ?SwitchListenPort@SPSSTPServer@@QAEHJH@Z 004f54d0 f   sp_sstpserver.obj
 0001:000f4540       ?GetSocketNumFromPort@SPSSTPServer@@AAEJH@Z 004f5540 f   sp_sstpserver.obj
 0001:000f4580       ?GetAvailablePort@SPSSTPServer@@QAEHXZ 004f5580 f   sp_sstpserver.obj
 0001:000f45c0       ?Accept@SPSSTPServer@@QAEXIJ@Z 004f55c0 f   sp_sstpserver.obj
 0001:000f4850       ?PlaySSTP@SPSSTPServer@@QAEHAAVSPSSTPServerPlaySSTPDesc@@@Z 004f5850 f   sp_sstpserver.obj
 0001:000f49b0       ?ConvertStandScript@SPSSTPServer@@AAEHPAVSPSSTPData@@@Z 004f59b0 f   sp_sstpserver.obj
 0001:000f4f00       ?ProcNotify@SPSSTPServer@@AAEHPAVSPSSTPData@@AAVSPSSTPServerPlaySSTPDesc@@@Z 004f5f00 f   sp_sstpserver.obj
 0001:000f5360       ?ProcNotifyEvent@SPSSTPServer@@AAEHPAG0PAVSPSSTPData@@AAVSPSSTPServerPlaySSTPDesc@@@Z 004f6360 f   sp_sstpserver.obj
 0001:000f55b0       ?ProcNotifyFINE@SPSSTPServer@@AAEHPAGPAVSPSSTPData@@AAVSPSSTPServerPlaySSTPDesc@@@Z 004f65b0 f   sp_sstpserver.obj
 0001:000f5740       ?ProcCommunicate@SPSSTPServer@@AAEHPAVSPSSTPData@@AAVSPSSTPServerPlaySSTPDesc@@@Z 004f6740 f   sp_sstpserver.obj
 0001:000f57b0       ?ProcExecute@SPSSTPServer@@AAEHPAVSPSSTPData@@AAVSPSSTPServerPlaySSTPDesc@@@Z 004f67b0 f   sp_sstpserver.obj
 0001:000f6ae0       ?ProcGive@SPSSTPServer@@AAEHPAVSPSSTPData@@AAVSPSSTPServerPlaySSTPDesc@@@Z 004f7ae0 f   sp_sstpserver.obj
 0001:000f6d80       ?ProcInstall@SPSSTPServer@@AAEHPAVSPSSTPData@@AAVSPSSTPServerPlaySSTPDesc@@@Z 004f7d80 f   sp_sstpserver.obj
 0001:000f7190       ?WriteLog@SPSSTPServer@@AAEXPAVSPSSTPData@@PADPAG@Z 004f8190 f   sp_sstpserver.obj
 0001:000f7540       ??0?$JPtrArray@PAVSPCookieClient@@@@QAE@J@Z 004f8540 f i sp_sstpserver.obj
 0001:000f75b0       ?Release@SPStaticStringArrayA@@QAEXXZ 004f85b0 f   sp_staticstringarray.obj
 0001:000f75b0       ?Release@SPStaticStringArrayW@@QAEXXZ 004f85b0 f   sp_staticstringarray.obj
 0001:000f75d0       ?AddW@SPStaticStringArrayW@@QAEJPBGJ@Z 004f85d0 f   sp_staticstringarray.obj
 0001:000f7730       ?Add@SPStaticStringArrayW@@QAEJABVJWString@@@Z 004f8730 f   sp_staticstringarray.obj
 0001:000f7750       ?AddUnique@SPStaticStringArrayW@@QAEJABVJWString@@H@Z 004f8750 f   sp_staticstringarray.obj
 0001:000f7790       ?AddA@SPStaticStringArrayW@@QAEJPBD0@Z 004f8790 f   sp_staticstringarray.obj
 0001:000f7840       ?AddA@SPStaticStringArrayW@@QAEJPBDH@Z 004f8840 f   sp_staticstringarray.obj
 0001:000f78f0       ?FindA@SPStaticStringArrayW@@QAEJPBD0H@Z 004f88f0 f   sp_staticstringarray.obj
 0001:000f7920       ?FindA@SPStaticStringArrayW@@QAEJPBDHH@Z 004f8920 f   sp_staticstringarray.obj
 0001:000f7a10       ?Find@SPStaticStringArrayW@@QAEJPBGH@Z 004f8a10 f   sp_staticstringarray.obj
 0001:000f7a90       ?GetTable@SPStaticStringArrayW@@QAEPAPAGXZ 004f8a90 f   sp_staticstringarray.obj
 0001:000f7aa0       ?Get@SPStaticStringArrayW@@QAEPAGK@Z 004f8aa0 f   sp_staticstringarray.obj
 0001:000f7ad0       ??8SPStaticStringArrayW@@QAE_NABV0@@Z 004f8ad0 f   sp_staticstringarray.obj
 0001:000f7b40       ?Swap@SPStaticStringArrayW@@QAEHKK@Z 004f8b40 f   sp_staticstringarray.obj
 0001:000f7ba0       ?GetNum@SPStaticStringArrayW@@QBEKXZ 004f8ba0 f   sp_staticstringarray.obj
 0001:000f7bb0       ?MakeTable@SPStaticStringArrayW@@ABEXXZ 004f8bb0 f   sp_staticstringarray.obj
 0001:000f7d20       ?AddA@SPStaticStringArrayA@@QAEJPBDJ@Z 004f8d20 f   sp_staticstringarray.obj
 0001:000f7e80       ?Add@SPStaticStringArrayA@@QAEJABVJString@@@Z 004f8e80 f   sp_staticstringarray.obj
 0001:000f7ea0       ?AddW@SPStaticStringArrayA@@QAEJPBGPBD@Z 004f8ea0 f   sp_staticstringarray.obj
 0001:000f7f50       ?Find@SPStaticStringArrayA@@QBEJPBDH@Z 004f8f50 f   sp_staticstringarray.obj
 0001:000f8000       ?GetTable@SPStaticStringArrayA@@QAEPAPADXZ 004f9000 f   sp_staticstringarray.obj
 0001:000f8010       ?Get@SPStaticStringArrayA@@QAEPADK@Z 004f9010 f   sp_staticstringarray.obj
 0001:000f8040       ?GetNum@SPStaticStringArrayA@@QBEKXZ 004f9040 f   sp_staticstringarray.obj
 0001:000f8050       ?MakeTable@SPStaticStringArrayA@@ABEXXZ 004f9050 f   sp_staticstringarray.obj
 0001:000f81c0       ?CreateSPStreamFilter@@YAPAVSPStreamFilter@@W4SPStreamFilter_Type@@HPAX@Z 004f91c0 f   sp_streamfilter.obj
 0001:000f82a0       ?SetPalette@JSurfaceObject@@UAEHAAVJPalette@@@Z 004f92a0 f i sp_streamfilter.obj
 0001:000f82a0       ?Load@JSurfaceObject@@UAEHAAVJStream@@@Z 004f92a0 f i sp_streamfilter.obj
 0001:000f82a0       ?ReadLineImpl@SPStreamFilterGZip@@UAEPADAAJ@Z 004f92a0 f i sp_streamfilter.obj
 0001:000f82a0       ?ReadLineImpl@SPStreamFilterHttpChunk@@UAEPADAAJ@Z 004f92a0 f i sp_streamfilter.obj
 0001:000f82a0       ?Save@JSurfaceObject@@UAEHAAVJStream@@@Z 004f92a0 f i sp_streamfilter.obj
 0001:000f82a0       ?SetSourceFilter@SPStreamFilterSocket@@UAEHPAVSPStreamFilter@@@Z 004f92a0 f i sp_streamfilter.obj
 0001:000f82a0       ?GetPalette@JSurfaceObject@@UAEHAAVJPalette@@@Z 004f92a0 f i sp_streamfilter.obj
 0001:000f82a0       ?Write@JMappedStream@@EAEKE@Z 004f92a0 f i sp_streamfilter.obj
 0001:000f82b0       ?ReadImpl@SPStreamFilterSocket@@UAEHPADH@Z 004f92b0 f i sp_streamfilter.obj
 0001:000f82e0       ?ReadLineImpl@SPStreamFilterSocket@@UAEPADAAJ@Z 004f92e0 f i sp_streamfilter.obj
 0001:000f8300       ??_GSPStreamFilterSocket@@UAEPAXI@Z 004f9300 f i sp_streamfilter.obj
 0001:000f8300       ??_ESPStreamFilterSocket@@UAEPAXI@Z 004f9300 f i sp_streamfilter.obj
 0001:000f8330       ??1SPStreamFilterSocket@@UAE@XZ 004f9330 f i sp_streamfilter.obj
 0001:000f8340       ?SetSourceFilter@SPStreamFilterHttpChunk@@UAEHPAVSPStreamFilter@@@Z 004f9340 f i sp_streamfilter.obj
 0001:000f8340       ?SetSourceFilter@SPStreamFilterGZip@@UAEHPAVSPStreamFilter@@@Z 004f9340 f i sp_streamfilter.obj
 0001:000f8380       ?ReadSize@SPStreamFilterHttpChunk@@UAEIXZ 004f9380 f i sp_streamfilter.obj
 0001:000f83b0       ?ReadImpl@SPStreamFilterHttpChunk@@UAEHPADH@Z 004f93b0 f i sp_streamfilter.obj
 0001:000f84a0       ??_GSPStreamFilterHttpChunk@@UAEPAXI@Z 004f94a0 f i sp_streamfilter.obj
 0001:000f84a0       ??_ESPStreamFilterHttpChunk@@UAEPAXI@Z 004f94a0 f i sp_streamfilter.obj
 0001:000f84d0       ??1SPStreamFilterHttpChunk@@UAE@XZ 004f94d0 f i sp_streamfilter.obj
 0001:000f8530       ?ReadSize@SPStreamFilterGZip@@UAEIXZ 004f9530 f i sp_streamfilter.obj
 0001:000f8560       ?ReadImpl@SPStreamFilterGZip@@UAEHPADH@Z 004f9560 f i sp_streamfilter.obj
 0001:000f8710       ??_GSPStreamFilterGZip@@UAEPAXI@Z 004f9710 f i sp_streamfilter.obj
 0001:000f8710       ??_ESPStreamFilterGZip@@UAEPAXI@Z 004f9710 f i sp_streamfilter.obj
 0001:000f8740       ??1SPStreamFilterGZip@@UAE@XZ 004f9740 f i sp_streamfilter.obj
 0001:000f87b0       ??1SPStreamFilter@@UAE@XZ  004f97b0 f   sp_streamfilter.obj
 0001:000f87c0       ?ReadSize@SPStreamFilter@@UAEIXZ 004f97c0 f   sp_streamfilter.obj
 0001:000f87e0       ?Read@SPStreamFilter@@QAEHPADH@Z 004f97e0 f   sp_streamfilter.obj
 0001:000f8830       ?ReadLine@SPStreamFilter@@QAEPADAAJ@Z 004f9830 f   sp_streamfilter.obj
 0001:000f8860       ?Setup@SPSurfaceManager@@QAEXI@Z 004f9860 f   sp_surfacemanager.obj
 0001:000f8890       ?Release@SPSurfaceManager@@QAEXXZ 004f9890 f   sp_surfacemanager.obj
 0001:000f88e0       ??1SPSurface@@QAE@XZ       004f98e0 f i sp_surfacemanager.obj
 0001:000f88e0       ??1SPSurfaceManageInfo@@QAE@XZ 004f98e0 f i sp_surfacemanager.obj
 0001:000f88f0       ?Load@SPSurfaceManager@@QAEPAVSPSurface@@PBDPAD@Z 004f98f0 f   sp_surfacemanager.obj
 0001:000f8eb0       ?Release@SPSurfaceTable@@QAEXXZ 004f9eb0 f   sp_surfacetable.obj
 0001:000f8f00       ?GetName@SPSurfaceTable@@QAEXAAVJWString@@@Z 004f9f00 f   sp_surfacetable.obj
 0001:000f9080       ?GetList@SPSurfaceTable@@QAEXAAV?$JPtrArray@PAVSPSurfaceTable@@@@@Z 004fa080 f   sp_surfacetable.obj
 0001:000f91a0       ?AddIndice@SPSurfaceTable@@QAEXH@Z 004fa1a0 f   sp_surfacetable.obj
 0001:000f92f0       ?GetIndex@SPSurfaceTable@@QAEHPAG@Z 004fa2f0 f   sp_surfacetable.obj
 0001:000f9350       ?GetEntry@SPSurfaceTable@@QAEPAV1@PAG@Z 004fa350 f   sp_surfacetable.obj
 0001:000f9430       ?CreateEntry@SPSurfaceTable@@QAEPAV1@PAGH@Z 004fa430 f   sp_surfacetable.obj
 0001:000f96a0       ?GetTextA@SPSurfaceTestData@@QAEXAAVJString@@@Z 004fa6a0 f   sp_surfacetest.obj
 0001:000f97a0       ?Release@SPSurfaceTestManager@@QAEXXZ 004fa7a0 f   sp_surfacetest.obj
 0001:000f9800       ?Get@SPSurfaceTestManager@@QAEPAVSPSurfaceTestData@@J@Z 004fa800 f   sp_surfacetest.obj
 0001:000f9840       ?Load@SPSurfaceTestManager@@QAEHPAD@Z 004fa840 f   sp_surfacetest.obj
 0001:000f9d40       ?ProcessOption@SPSurfaceTestManager@@AAEXPAD@Z 004fad40 f   sp_surfacetest.obj
 0001:000f9d70       ??1SPSurfaceTestData@@QAE@XZ 004fad70 f i sp_surfacetest.obj
 0001:000f9e00       ?Release@SPSurface@@QAEXXZ 004fae00 f   sp_surfc.obj
 0001:000f9e40       ?ReleaseSurfaceData@SPSurface@@IAEXXZ 004fae40 f   sp_surfc.obj
 0001:000f9e80       ?AdjustParameters@SPSurface@@QAEHPAVJSurface@@AAJ11111@Z 004fae80 f   sp_surfc.obj
 0001:000f9fa0       ?ConvertToGray@SPSurface@@IAEPAVJSurface@@PAV2@@Z 004fafa0 f   sp_surfc.obj
 0001:000fa0f0       ?IsLoadableMIME@SPSurface@@SIHPBD@Z 004fb0f0 f   sp_surfc.obj
 0001:000fa170       ?IsLoadableExtension@SPSurface@@SIHPBD@Z 004fb170 f   sp_surfc.obj
 0001:000fa440       ?FindLoadableExtension@SPSurface@@SIHPBDAAVJString@@@Z 004fb440 f   sp_surfc.obj
 0001:000fa680       ?CreateDummy@SPSurface@@QAEXKK_N@Z 004fb680 f   sp_surfc.obj
 0001:000fa700       ?CreateSurfaceBuffer@SPSurface@@SI?AVSPCreateSurfaceStruct@@HPBXKH@Z 004fb700 f   sp_surfc.obj
 0001:000fa8d0       ??1JMemStream@@UAE@XZ      004fb8d0 f i sp_surfc.obj
 0001:000fa910       ?Open@JMemStream@@UAEHPBDH@Z 004fb910 f i sp_surfc.obj
 0001:000fa910       ?OpenW@JMemStream@@UAEHPBGH@Z 004fb910 f i sp_surfc.obj
 0001:000fa930       ?Close@JMemStream@@UAEXXZ  004fb930 f i sp_surfc.obj
 0001:000fa960       ?Read@JMemStream@@UAEEXZ   004fb960 f i sp_surfc.obj
 0001:000fa980       ?Write@JMemStream@@UAEKE@Z 004fb980 f i sp_surfc.obj
 0001:000fa9b0       ??_GJMemStream@@UAEPAXI@Z  004fb9b0 f i sp_surfc.obj
 0001:000fa9b0       ??_EJMemStream@@UAEPAXI@Z  004fb9b0 f i sp_surfc.obj
 0001:000fa9e0       ?Unlock@JDummyLockSection@@UAEXXZ 004fb9e0 f i sp_surfc.obj
 0001:000fa9e0       ??1JRect@@QAE@XZ           004fb9e0 f i sp_surfc.obj
 0001:000fa9e0       ??1SPBalloonImage@@QAE@XZ  004fb9e0 f i sp_surfc.obj
 0001:000fa9e0       ??1SPInstallEvent@@QAE@XZ  004fb9e0 f i sp_surfc.obj
 0001:000fa9e0       ?Lock@JThread@@UAEXXZ      004fb9e0 f i sp_surfc.obj
 0001:000fa9e0       ?Lock@JDummyLockSection@@UAEXXZ 004fb9e0 f i sp_surfc.obj
 0001:000fa9e0       ??1JPalette@@QAE@XZ        004fb9e0 f i sp_surfc.obj
 0001:000fa9e0       ?Unlock@JSurfaceObject@@UAEXXZ 004fb9e0 f i sp_surfc.obj
 0001:000fa9e0       ?Update@JSurfaceObject@@UAEXXZ 004fb9e0 f i sp_surfc.obj
 0001:000fa9e0       ??1JExtent@@QAE@XZ         004fb9e0 f i sp_surfc.obj
 0001:000fa9e0       ??1SPFileDialog@@QAE@XZ    004fb9e0 f i sp_surfc.obj
 0001:000fa9e0       ?Unlock@JThread@@UAEXXZ    004fb9e0 f i sp_surfc.obj
 0001:000fa9e0       ??1JDummyLock@@QAE@XZ      004fb9e0 f i sp_surfc.obj
 0001:000fa9e0       ??1JLZWDecoder@@QAE@XZ     004fb9e0 f i sp_surfc.obj
 0001:000fa9e0       ??1CObject@@UAE@XZ         004fb9e0 f i sp_surfc.obj
 0001:000fa9e0       ??1JLibJPEG@@QAE@XZ        004fb9e0 f i sp_surfc.obj
 0001:000fa9f0       ??1JGIF@@QAE@XZ            004fb9f0 f i sp_surfc.obj
 0001:000faa50       ?CreateSurface@SPSurface@@SI?AVSPCreateSurfaceStruct@@PBDAAVJString@@H@Z 004fba50 f   sp_surfc.obj
 0001:000fb320       ?Create@SPSurface@@QAEHPBD_N1@Z 004fc320 f   sp_surfc.obj
 0001:000fb730       ?CreateRegion@SPSurface@@IAEHXZ 004fc730 f   sp_surfc.obj
 0001:000fb770       ?CreateRegion8@SPSurface@@IAEHXZ 004fc770 f   sp_surfc.obj
 0001:000fbdb0       ?CreateRegion32@SPSurface@@IAEHXZ 004fcdb0 f   sp_surfc.obj
 0001:000fc3f0       ?GetRegionDirect@SPSurface@@IAEPAXJJ@Z 004fd3f0 f   sp_surfc.obj
 0001:000fc450       ?GetRegion@SPSurface@@QAEPAXHH@Z 004fd450 f   sp_surfc.obj
 0001:000fc4a0       ?CombineRegionOffset@SPSurface@@QAEXPAXHHH@Z 004fd4a0 f   sp_surfc.obj
 0001:000fc570       ?CompressSurface32@SPSurface@@IAEHPAVJSurface@@@Z 004fd570 f   sp_surfc.obj
 0001:000fc760       ?CompressSurface32withAlpha@SPSurface@@IAEHPAVJSurface@@0@Z 004fd760 f   sp_surfc.obj
 0001:000fca10       ?CompressSurface8@SPSurface@@IAEHPAVJSurface@@@Z 004fda10 f   sp_surfc.obj
 0001:000fcc10       ?CompressSurface8withAlpha@SPSurface@@IAEHPAVJSurface@@0@Z 004fdc10 f   sp_surfc.obj
 0001:000fcef0       ?Copy32@SPSurface@@IAEHPAVJSurface@@JJJJJJ@Z 004fdef0 f   sp_surfc.obj
 0001:000fd0c0       ?CopyOpaque32@SPSurface@@IAEHPAVJSurface@@JJJJJJ@Z 004fe0c0 f   sp_surfc.obj
 0001:000fd290       ?Blend32@SPSurface@@IAEHPAVJSurface@@JJJJJJ@Z 004fe290 f   sp_surfc.obj
 0001:000fd4d0       ?BlendAlphaChannel32@SPSurface@@IAEHPAVJSurface@@JJJJJJ@Z 004fe4d0 f   sp_surfc.obj
 0001:000fd800       ?BlendOverlay32@SPSurface@@IAEHPAVJSurface@@JJJJJJ@Z 004fe800 f   sp_surfc.obj
 0001:000fdb70       ?BlendOverlayKeepDestAlpha32@SPSurface@@IAEHPAVJSurface@@JJJJJJ@Z 004feb70 f   sp_surfc.obj
 0001:000fdec0       ?CopyKey32@SPSurface@@IAEHPAVJSurface@@JJJJJJ@Z 004feec0 f   sp_surfc.obj
 0001:000fdec0       ?CopyKeyDestKeyMask32@SPSurface@@IAEHPAVJSurface@@JJJJJJ@Z 004feec0 f   sp_surfc.obj
 0001:000fe050       ?Copy8@SPSurface@@IAEHPAVJSurface@@JJJJJJ@Z 004ff050 f   sp_surfc.obj
 0001:000fe250       ?CopyKey8@SPSurface@@IAEHPAVJSurface@@JJJJJJ@Z 004ff250 f   sp_surfc.obj
 0001:000fe420       ?CopyOpaque8@SPSurface@@IAEHPAVJSurface@@JJJJJJ@Z 004ff420 f   sp_surfc.obj
 0001:000fe600       ?Blend8@SPSurface@@IAEHPAVJSurface@@JJJJJJ@Z 004ff600 f   sp_surfc.obj
 0001:000fe880       ?BlendAlphaChannel8@SPSurface@@IAEHPAVJSurface@@JJJJJJ@Z 004ff880 f   sp_surfc.obj
 0001:000febc0       ?BlendOverlay8@SPSurface@@IAEHPAVJSurface@@JJJJJJ@Z 004ffbc0 f   sp_surfc.obj
 0001:000fef40       ?BlendOverlayKeepDestAlpha8@SPSurface@@IAEHPAVJSurface@@JJJJJJ@Z 004fff40 f   sp_surfc.obj
 0001:000ff2b0       ?CopyKeyDestKeyMask8@SPSurface@@IAEHPAVJSurface@@JJJJJJ@Z 005002b0 f   sp_surfc.obj
 0001:000ff4b0       ?GetSPSysFunc@@YIAAVSPSysFunc@@XZ 005004b0 f   sp_sysfunc.obj
 0001:000ff500       ??0SPSysFunc@@QAE@XZ       00500500 f   sp_sysfunc.obj
 0001:000ff5a0       ??1SPSysFunc@@QAE@XZ       005005a0 f   sp_sysfunc.obj
 0001:000ff5c0       ?TrackMouseEvent@SPSysFunc@@QAEHKPAUHWND__@@@Z 005005c0 f   sp_sysfunc.obj
 0001:000ff600       ?GetSystemPowerStatus@SPSysFunc@@QAEHPAU_SYSTEM_POWER_STATUS@@@Z 00500600 f   sp_sysfunc.obj
 0001:000ff620       ?IsScreenSaverRunning@SPSysFunc@@QAE_NXZ 00500620 f   sp_sysfunc.obj
 0001:000ff780       ?GetWorkRectPriv@SPSysFunc@@AAEXPAXAAUtagRECT@@@Z 00500780 f   sp_sysfunc.obj
 0001:000ff7c0       ?GetWorkRect@SPSysFunc@@QAEXPAUHWND__@@AAUtagRECT@@@Z 005007c0 f   sp_sysfunc.obj
 0001:000ff810       ?GetWorkRectFromPt@SPSysFunc@@QAEXAAUtagPOINT@@AAUtagRECT@@@Z 00500810 f   sp_sysfunc.obj
 0001:000ff860       ?GetSPSystemInfo@@YAAAVSPSystemInfo@@XZ 00500860 f   sp_sysinfo.obj
 0001:000ff8b0       ?GetSpecialVersionString@SPSystemInfo@@QAEPBDXZ 005008b0 f   sp_sysinfo.obj
 0001:000ff8c0       ??0SPSystemInfo@@QAE@XZ    005008c0 f   sp_sysinfo.obj
 0001:00100130       ?GetBootMinutes@SPSystemInfo@@QAEKXZ 00501130 f   sp_sysinfo.obj
 0001:00100170       ?GetCPUClock@SPSystemInfo@@QAEKXZ 00501170 f   sp_sysinfo.obj
 0001:001002e0       ?OnSystemSettingChange@SPSystemInfo@@QAEXI@Z 005012e0 f   sp_sysinfo.obj
 0001:00100310       ?IsHT@SPSystemInfo@@QAEHXZ 00501310 f   sp_sysinfo.obj
 0001:00100330       ?GetMemoryStatus@SPSystemInfo@@QAEXAAUSPMemoryStatus@@@Z 00501330 f   sp_sysinfo.obj
 0001:00100430       ?CreateVersionString@SPSystemInfo@@AAEXAAU_OSVERSIONINFOEXA@@@Z 00501430 f   sp_sysinfo.obj
 0001:00100a90       ?SPTaskDialogSupported@@YA_NXZ 00501a90 f   sp_taskdialog.obj
 0001:00100af0       ?SPTaskDialogIndirectX@@YAJPBU_TASKDIALOGCONFIG@@PAH11@Z 00501af0 f   sp_taskdialog.obj
 0001:00100b30       ?GetSPTimeClient@@YAAAVSPTimeClient@@XZ 00501b30 f   sp_time.obj
 0001:00100b80       ??0SPTimeClient@@QAE@XZ    00501b80 f   sp_time.obj
 0001:00100dc0       ??_GSPTimeClient@@UAEPAXI@Z 00501dc0 f i sp_time.obj
 0001:00100dc0       ??_ESPTimeClient@@UAEPAXI@Z 00501dc0 f i sp_time.obj
 0001:00100df0       ??1SPTimeClient@@UAE@XZ    00501df0 f   sp_time.obj
 0001:00101050       ?LoadSetting@SPTimeClient@@QAEHPAD@Z 00502050 f   sp_time.obj
 0001:001013b0       ?Release@SPTimeClient@@QAEXXZ 005023b0 f   sp_time.obj
 0001:00101450       ?SPCNotify@SPTimeClient@@UAE_NKPAPAXK@Z 00502450 f   sp_time.obj
 0001:00101480       ?GetServerNum@SPTimeClient@@QAEKH@Z 00502480 f   sp_time.obj
 0001:001014a0       ?GetServer@SPTimeClient@@QAEPAVSPTimeClientData@@HK@Z 005024a0 f   sp_time.obj
 0001:001014d0       ?GetServerRandom@SPTimeClient@@QAEPADH@Z 005024d0 f   sp_time.obj
 0001:00101670       ?Connect@SPTimeClient@@QAEHPAVSPGhost@@H@Z 00502670 f   sp_time.obj
 0001:001016e0       ?ThreadProc@SPTimeClient@@AAEHXZ 005026e0 f   sp_time.obj
 0001:00101790       ?ThreadProcW32TIME@SPTimeClient@@AAEHXZ 00502790 f   sp_time.obj
 0001:00101910       ?ThreadProcHTTP@SPTimeClient@@AAEHXZ 00502910 f   sp_time.obj
 0001:00101ec0       ?ExecuteSNTPProc@SPTimeClient@@AAEHPADHAA_JAA_K_N@Z 00502ec0 f   sp_time.obj
 0001:001021d0       ?ThreadProcSNTP@SPTimeClient@@AAEHXZ 005031d0 f   sp_time.obj
 0001:00102470       ?RecvProc@SPTimeClient@@AAEHXZ 00503470 f   sp_time.obj
 0001:001026d0       ?GetDiffSecond@SPTimeClient@@QAEHXZ 005036d0 f   sp_time.obj
 0001:001026f0       ?ExecuteCorrect@SPTimeClient@@QAEHPAVSPGhost@@@Z 005036f0 f   sp_time.obj
 0001:001027d0       ?ExecuteCorrectEvent@SPTimeClient@@QAEXPAVSPGhost@@ABU_SYSTEMTIME@@@Z 005037d0 f   sp_time.obj
 0001:00102920       ?Close@SPTimeClient@@QAEXXZ 00503920 f   sp_time.obj
 0001:00102940       ?OnFailed@SPTimeClient@@AAEXXZ 00503940 f   sp_time.obj
 0001:001029c0       ?OnBegin@SPTimeClient@@AAEXXZ 005039c0 f   sp_time.obj
 0001:00102b30       ??0?$JPtrArray@PAVJGIFImage@@@@QAE@J@Z 00503b30 f i sp_time.obj
 0001:00102b30       ??0?$JPtrArray@PAVSPCmdNotifier@@@@QAE@J@Z 00503b30 f i sp_time.obj
 0001:00102b30       ??0?$JPtrArray@PAVSPDataPathListData@@@@QAE@J@Z 00503b30 f i sp_time.obj
 0001:00102b30       ??0?$JPtrArray@PAVJString@@@@QAE@J@Z 00503b30 f i sp_time.obj
 0001:00102b30       ??0?$JPtrArray@PAVSPScriptQueueData@@@@QAE@J@Z 00503b30 f i sp_time.obj
 0001:00102b30       ??0?$JPtrArray@PAVSPFolderListData@@@@QAE@J@Z 00503b30 f i sp_time.obj
 0001:00102b30       ??0?$JPtrArray@PAVSPUpdateEntry@@@@QAE@J@Z 00503b30 f i sp_time.obj
 0001:00102b30       ??0?$JPtrArray@PAVCPlaySSFScript@@@@QAE@J@Z 00503b30 f i sp_time.obj
 0001:00102b30       ??0?$JPtrArray@P6AXKPAX0@Z@@QAE@J@Z 00503b30 f i sp_time.obj
 0001:00102b30       ??0?$JPtrArray@PAVSPSerikoTask@@@@QAE@J@Z 00503b30 f i sp_time.obj
 0001:00102b30       ??0?$JPtrArray@PAG@@QAE@J@Z 00503b30 f i sp_time.obj
 0001:00102b30       ??0?$JPtrArray@PAVJWString@@@@QAE@J@Z 00503b30 f i sp_time.obj
 0001:00102b30       ??0?$JPtrArray@PAD@@QAE@J@Z 00503b30 f i sp_time.obj
 0001:00102b30       ??0?$JPtrArray@PAVSPCmdListener@@@@QAE@J@Z 00503b30 f i sp_time.obj
 0001:00102b30       ??0?$JPtrArray@PAVSPSurfaceTestData@@@@QAE@J@Z 00503b30 f i sp_time.obj
 0001:00102b30       ??0?$JPtrArray@PAVSPSurface@@@@QAE@J@Z 00503b30 f i sp_time.obj
 0001:00102b30       ??0?$JPtrArray@PAVSPBalloonDesc@@@@QAE@J@Z 00503b30 f i sp_time.obj
 0001:00102b30       ??0?$JPtrArray@PAVSPPopMessage@@@@QAE@J@Z 00503b30 f i sp_time.obj
 0001:00102b30       ??0?$JPtrArray@PAVSPScriptEntry@@@@QAE@J@Z 00503b30 f i sp_time.obj
 0001:00102b30       ??0?$JPtrArray@PAVSPBalloonString@@@@QAE@J@Z 00503b30 f i sp_time.obj
 0001:00102b30       ??0?$JPtrArray@PAV?$SPSparsePtrArrayDef@PAVSPAnimeBase@@@@@@QAE@J@Z 00503b30 f i sp_time.obj
 0001:00102b30       ??0?$JPtrArray@PAVSPTimeClientData@@@@QAE@J@Z 00503b30 f i sp_time.obj
 0001:00102ba0       ??1SPTimeClientData@@QAE@XZ 00503ba0 f i sp_time.obj
 0001:00102bf0       ?Release@SPTiming@@QAEXXZ  00503bf0 f   sp_timing.obj
 0001:00102c50       ?LoadTiming@SPTiming@@QAEHPADJJJJJ@Z 00503c50 f   sp_timing.obj
 0001:00103090       ??1SPTimingEntry@@QAE@XZ   00504090 f i sp_timing.obj
 0001:001030a0       ?HasTimeCome@SPTiming@@QAEPADJJJJJ@Z 005040a0 f   sp_timing.obj
 0001:00103130       ?_Sort@std@@YAXPAPAVSPTimingEntry@@0U?$PredConverter@PAVSPTimingEntry@@P6AHPAV1@0@Z@@0@Z 00504130 f i sp_timing.obj
 0001:00103270       ?_Median@std@@YAPAVSPTimingEntry@@PAV2@00U?$PredConverter@PAVSPTimingEntry@@P6AHPAV1@0@Z@@@Z 00504270 f i sp_timing.obj
 0001:001032e0       ?MakeFilePath@SPUpdateEntry@@AAEHPADAAVJString@@H@Z 005042e0 f   sp_update.obj
 0001:001034a0       ?CreateNotifyName@SPUpdateEntry@@QAEXAAVJWString@@@Z 005044a0 f   sp_update.obj
 0001:001034e0       ?Compare@SPUpdateEntry@@QAEHAAV1@@Z 005044e0 f   sp_update.obj
 0001:001035a0       ?IsFileExist@SPUpdateEntry@@QAEHPADH@Z 005045a0 f   sp_update.obj
 0001:001036b0       ?IsUpdate@SPUpdateEntry@@QAEHPADHH@Z 005046b0 f   sp_update.obj
 0001:001038e0       ?IsFileValid@SPUpdateEntry@@QAEHAAVJWString@@0@Z 005048e0 f   sp_update.obj
 0001:00103c00       ??1SPUpdate@@UAE@XZ        00504c00 f   sp_update.obj
 0001:00103e90       ?DeleteEntryAll@SPUpdate@@AAEXXZ 00504e90 f   sp_update.obj
 0001:00103eb0       ?Release@SPUpdate@@QAEXXZ  00504eb0 f   sp_update.obj
 0001:001040c0       ?LoadUpdateData@SPUpdate@@AAEHAAV?$JPtrArray@PAVSPUpdateEntry@@@@PADH@Z 005050c0 f   sp_update.obj
 0001:00104100       ?LoadUpdateDataOld@SPUpdate@@AAEHAAV?$JPtrArray@PAVSPUpdateEntry@@@@PAD@Z 00505100 f   sp_update.obj
 0001:001044b0       ??0SPUpdateEntry@@QAE@XZ   005054b0 f i sp_update.obj
 0001:00104660       ?Clear@SPUpdateEntry@@QAEXXZ 00505660 f i sp_update.obj
 0001:00104870       ?LoadUpdateDataNew@SPUpdate@@AAEHAAV?$JPtrArray@PAVSPUpdateEntry@@@@PADH@Z 00505870 f   sp_update.obj
 0001:00104d20       ?CheckUpdate@SPUpdate@@AAEXAAV?$JPtrArray@PAVSPUpdateEntry@@@@0_N@Z 00505d20 f   sp_update.obj
 0001:00105020       ?UpdateUrl@SPUpdate@@QAEHPAVSPCmdListener@@PAD11HHH@Z 00506020 f   sp_update.obj
 0001:001051a0       ?UpdateGhost@SPUpdate@@QAEHPADPAVSPGhost@@HHH@Z 005061a0 f   sp_update.obj
 0001:00105410       ??_ESPUpdateListenerCheckOnly@@UAEPAXI@Z 00506410 f i sp_update.obj
 0001:00105410       ??_GSPUpdateListenerCheckOnly@@UAEPAXI@Z 00506410 f i sp_update.obj
 0001:00105440       ??1SPUpdateListenerCheckOnly@@UAE@XZ 00506440 f i sp_update.obj
 0001:001054e0       ?UpdateExec@SPUpdate@@AAEHH@Z 005064e0 f   sp_update.obj
 0001:001056e0       ?SPCNotify@SPUpdate@@UAE_NKPAPAXK@Z 005066e0 f   sp_update.obj
 0001:00105710       ?Connect@SPUpdate@@AAEHXZ  00506710 f   sp_update.obj
 0001:00105760       ?NotConnectError@SPUpdate@@AAEXXZ 00506760 f   sp_update.obj
 0001:001057a0       ?ErrorEvent@SPUpdate@@AAEXPAG0H0@Z 005067a0 f   sp_update.obj
 0001:001057e0       ?MakeFileAndUrl@SPUpdate@@AAEPADHAAVJString@@0@Z 005067e0 f   sp_update.obj
 0001:00105880       ?UpdateProc@SPUpdate@@QAEHXZ 00506880 f   sp_update.obj
 0001:00105950       ?UpdateProcTSVN@SPUpdate@@AAEHXZ 00506950 f   sp_update.obj
 0001:00105a50       ?UpdateProcReal@SPUpdate@@AAEHXZ 00506a50 f   sp_update.obj
 0001:001075c0       ?ReloadGhostData@SPUpdate@@AAEXXZ 005085c0 f   sp_update.obj
 0001:00107690       ?DeleteTempFiles@SPUpdate@@AAEXXZ 00508690 f   sp_update.obj
 0001:001076d0       ?ReplaceFiles@SPUpdate@@AAEHXZ 005086d0 f   sp_update.obj
 0001:00107860       ?ExtractArchiveAndReplace@SPUpdate@@AAEHAAVJString@@0H@Z 00508860 f   sp_update.obj
 0001:001078d0       ?SPUpdate_CreateUpdateProfile@@YIXPAVSPMultiFile@@PAVSPGhost@@@Z 005088d0 f   sp_update.obj
 0001:001086a0       ?SPUpdate_CreateNar@@YIXPAVSPMultiFile@@PAVSPGhost@@@Z 005096a0 f   sp_update.obj
 0001:00109a20       ?SPUpdate_ExecBothTool@@YIXPAVSPMultiFile@@PAVSPGhost@@@Z 0050aa20 f   sp_update.obj
 0001:00109b00       ??0?$SPCacheObj@VSPUpdateEntry@@VJCriticalSection@@VJLock@@@@QAE@K@Z 0050ab00 f i sp_update.obj
 0001:00109b70       ??1?$SPCacheObj@VSPUpdateEntry@@VJCriticalSection@@VJLock@@@@QAE@XZ 0050ab70 f i sp_update.obj
 0001:00109c70       ?Delete@?$SPCacheObj@VSPUpdateEntry@@VJCriticalSection@@VJLock@@@@QAEXPAVSPUpdateEntry@@@Z 0050ac70 f i sp_update.obj
 0001:00109e10       ?DeleteArray@?$SPCacheObj@VSPUpdateEntry@@VJCriticalSection@@VJLock@@@@QAEXAAV?$JPtrArray@PAVSPUpdateEntry@@@@@Z 0050ae10 f i sp_update.obj
 0001:00109f80       ??1SPUpdateEntry@@QAE@XZ   0050af80 f i sp_update.obj
 0001:0010a000       ?DeleteArray@?$SPCacheObj@VSPUpdateEntry@@VJCriticalSection@@VJLock@@@@QAEXPAPAVSPUpdateEntry@@K@Z 0050b000 f i sp_update.obj
 0001:0010a270       ?SPUpdateCheck@@YAXH@Z     0050b270 f   sp_updatecheck.obj
 0001:0010abc0       ?ToText@TiXmlHandle@@QBEPAVTiXmlText@@XZ 0050bbc0 f i sp_updatecheck.obj
 0001:0010ac80       ?SPCNotify@SPUpdateListener@@UAE_NKPAPAXK@Z 0050bc80 f   sp_updatelistener.obj
 0001:0010b090       ?SPCNotify_UpdateDL@SPUpdateListener@@AAEXPAPAXH@Z 0050c090 f   sp_updatelistener.obj
 0001:0010b280       ?SPCNotify_UpdateMD5@SPUpdateListener@@AAEXPAPAXH@Z 0050c280 f   sp_updatelistener.obj
 0001:0010b500       ?SPCNotify@SPUpdateListenerCheckOnly@@UAE_NKPAPAXK@Z 0050c500 f   sp_updatelistener.obj
 0001:0010b690       ?CompareDevice@SPDeviceInfo@@QAE_NABV1@@Z 0050c690 f   sp_utils.obj
 0001:0010b780       ?StealthWindowShow@SPUtils@@SIXPAUHWND__@@H@Z 0050c780 f   sp_utils.obj
 0001:0010b7d0       ?GetLocalObjectName@SPUtils@@SIPBDPBD@Z 0050c7d0 f   sp_utils.obj
 0001:0010b820       ?GetRelativePath@SPUtils@@SIPBDPBDJ@Z 0050c820 f   sp_utils.obj
 0001:0010b8c0       ?GetRelativePath@SPUtils@@SIPBDABVJString@@@Z 0050c8c0 f   sp_utils.obj
 0001:0010b8d0       ?IsRelativePath@SPUtils@@SIHPBD@Z 0050c8d0 f   sp_utils.obj
 0001:0010b940       ?MakeAbsolutePath@SPUtils@@SI?AVJString@@PBD0_N@Z 0050c940 f   sp_utils.obj
 0001:0010be30       ?GetSpecialFolderPath@SPUtils@@SI_NHAAVJString@@@Z 0050ce30 f   sp_utils.obj
 0001:0010c1c0       ?ShellExecuteCheck@SPUtils@@SIHPBD000H@Z 0050d1c0 f   sp_utils.obj
 0001:0010c250       ?SplitTokenA@SPUtils@@SIKPADAAV?$JPtrArray@PAD@@PBD_N@Z 0050d250 f   sp_utils.obj
 0001:0010c420       ?SplitTokenA@SPUtils@@SIKPADPAPADKPBD_N@Z 0050d420 f   sp_utils.obj
 0001:0010c4d0       ?SplitTokenM@SPUtils@@SIKPADAAV?$JPtrArray@PAD@@PBD_N@Z 0050d4d0 f   sp_utils.obj
 0001:0010c660       ?SplitTokenM@SPUtils@@SIKPADPAPADKPBD_N@Z 0050d660 f   sp_utils.obj
 0001:0010c710       ?SplitTokenW@SPUtils@@SIKPAGAAV?$JPtrArray@PAG@@PBG_N@Z 0050d710 f   sp_utils.obj
 0001:0010c840       ?SplitTokenW@SPUtils@@SIKPAGPAPAGKPBG_N@Z 0050d840 f   sp_utils.obj
 0001:0010c8e0       ?IsOnlineURL@SPUtils@@SIIPBG@Z 0050d8e0 f   sp_utils.obj
 0001:0010c8f0       ?IsAcceptableURL@SPUtils@@SIIPBGI@Z 0050d8f0 f   sp_utils.obj
 0001:0010c9d0       ?IsAcceptableURL@SPUtils@@SIIPBDI@Z 0050d9d0 f   sp_utils.obj
 0001:0010ca80       ?JoinURL@SPUtils@@SI_NAAVJString@@W4SPHttp_Type@@PBD22@Z 0050da80 f   sp_utils.obj
 0001:0010cbf0       ?JoinURL@SPUtils@@SI_NAAVJWString@@W4SPHttp_Type@@PBG22@Z 0050dbf0 f   sp_utils.obj
 0001:0010cd50       ?CrackURL@SPUtils@@SI?AW4SPHttp_Type@@PBDPAVJString@@111@Z 0050dd50 f   sp_utils.obj
 0001:0010cf20       ?CrackURL@SPUtils@@SI?AW4SPHttp_Type@@PBGPAVJString@@111@Z 0050df20 f   sp_utils.obj
 0001:0010d670       ?GetFriendlyDeviceInfo@SPUtils@@SI_NABU_GUID@@PBDAAVSPDeviceInfo@@@Z 0050e670 f   sp_utils.obj
 0001:0010d9f0       ?GetTortoiseProcPath@SPUtils@@SIHPAVJString@@@Z 0050e9f0 f   sp_utils.obj
 0001:0010da90       ?IsSVNEnabledDirectory@SPUtils@@SIHPBD@Z 0050ea90 f   sp_utils.obj
 0001:0010db70       ?ExecuteSVNCommand@SPUtils@@SIHPBD0H@Z 0050eb70 f   sp_utils.obj
 0001:0010ddb0       ?PumpMessageWaitObject@SPUtils@@SIHPAXI@Z 0050edb0 f   sp_utils.obj
 0001:0010def0       ?IsNumberW@SPUtils@@SIHPBG0@Z 0050eef0 f   sp_utils.obj
 0001:0010df40       ?IsNumberA@SPUtils@@SIHPBD0@Z 0050ef40 f   sp_utils.obj
 0001:0010df80       ?ISO8601ToFileTime@SPUtils@@SIHPBDAAU_FILETIME@@@Z 0050ef80 f   sp_utils.obj
 0001:0010e250       ?GetSystemSeconds@SPUtils@@SIKXZ 0050f250 f   sp_utils.obj
 0001:0010e2a0       ?ConvertLocalSystemTimeToSystemSeconds@SPUtils@@SIKAAU_SYSTEMTIME@@@Z 0050f2a0 f   sp_utils.obj
 0001:0010e2d0       ?ConvertSystemSecondsToLocalSystemTime@SPUtils@@SIXKAAU_SYSTEMTIME@@@Z 0050f2d0 f   sp_utils.obj
 0001:0010e320       ?ConvertFileTimeToSystemSeconds@SPUtils@@SIKAAU_FILETIME@@@Z 0050f320 f   sp_utils.obj
 0001:0010e360       ?ConvertURLToFile@SPUtils@@SIHPBDAAVJString@@@Z 0050f360 f   sp_utils.obj
 0001:0010e4c0       ?IsNeedlessFileName@SPUtils@@SIHPBD@Z 0050f4c0 f   sp_utils.obj
 0001:0010e600       ?IsNeedlessDirName@SPUtils@@SIHPBD@Z 0050f600 f   sp_utils.obj
 0001:0010e620       ?DecodeBase64@SPUtils@@SIXPBDAAVJString@@@Z 0050f620 f   sp_utils.obj
 0001:0010e6f0       ?DecodeBase64@SPUtils@@SIXPBDAAV?$JArray@D@@@Z 0050f6f0 f   sp_utils.obj
 0001:0010e910       ?EncodeBase64@SPUtils@@SIXPBDAAVJString@@@Z 0050f910 f   sp_utils.obj
 0001:0010e930       ?EncodeBase64@SPUtils@@SIXPBDKAAVJString@@@Z 0050f930 f   sp_utils.obj
 0001:0010eab0       ?DecodePercent@SPUtils@@SIXPBDAAVJString@@@Z 0050fab0 f   sp_utils.obj
 0001:0010eb80       ?DecodePercent@SPUtils@@SIXPBDAAV?$JArray@D@@@Z 0050fb80 f   sp_utils.obj
 0001:0010ede0       ?EncodePercent@SPUtils@@SIXPBDAAVJString@@0@Z 0050fde0 f   sp_utils.obj
 0001:0010ee10       ?EncodePercent@SPUtils@@SIXPBDKAAVJString@@0@Z 0050fe10 f   sp_utils.obj
 0001:0010f060       ?IsPercentEncoded@SPUtils@@SI_NPBD0@Z 00510060 f   sp_utils.obj
 0001:0010f0c0       ?EscapeScriptW@SPUtils@@SIXAAVJWString@@@Z 005100c0 f   sp_utils.obj
 0001:0010f0e0       ?EscapeTagOnlyW@SPUtils@@SIXAAVJWString@@@Z 005100e0 f   sp_utils.obj
 0001:0010f110       ?CleanupFilenameA@SPUtils@@SIXAAVJString@@@Z 00510110 f   sp_utils.obj
 0001:0010f190       ?CleanupFilenameW@SPUtils@@SIXAAVJWString@@@Z 00510190 f   sp_utils.obj
 0001:0010f1f0       ?HTTPToFileTime@SPUtils@@SIHPBDAAU_FILETIME@@@Z 005101f0 f   sp_utils.obj
 0001:0010f220       ?HTTPToSystemTime@SPUtils@@SIHPBDAAU_SYSTEMTIME@@@Z 00510220 f   sp_utils.obj
 0001:0010f6c0       ?FileTimeToHTTP@SPUtils@@SIPADABU_FILETIME@@@Z 005106c0 f   sp_utils.obj
 0001:0010f6f0       ?SystemTimeToHTTP@SPUtils@@SIPADABU_SYSTEMTIME@@@Z 005106f0 f   sp_utils.obj
 0001:0010f750       ?SystemTimeToShortDateTime@SPUtils@@SIPADABU_SYSTEMTIME@@@Z 00510750 f   sp_utils.obj
 0001:0010f7b0       ?DeleteExtention@SPUtils@@SIXAAVJString@@@Z 005107b0 f   sp_utils.obj
 0001:0010f7f0       ?CheckValidFolderExist@SPUtils@@SIHPBD@Z 005107f0 f   sp_utils.obj
 0001:0010f9b0       ?MoveFileA@SPUtils@@SIHPBD0H@Z 005109b0 f   sp_utils.obj
 0001:0010fa90       ?DigFolder@SPUtils@@SI_NPBD@Z 00510a90 f   sp_utils.obj
 0001:0010fc20       ?DelRegTree@SPUtils@@SA_NPAUHKEY__@@PBD@Z 00510c20 f   sp_utils.obj
 0001:0010fd20       ?DelDirTree@SPUtils@@SA_NPADPAV?$JPtrArray@PAD@@HK@Z 00510d20 f   sp_utils.obj
 0001:0010ffd0       ?IsKeyDown@SPUtils@@SI_NH@Z 00510fd0 f   sp_utils.obj
 0001:00110000       ?Release@SPVanish@@QAEXXZ  00511000 f   sp_vanish.obj
 0001:00110050       ?Load@SPVanish@@QAEHPAD@Z  00511050 f   sp_vanish.obj
 0001:00110090       ?LoadOverride@SPVanish@@QAEHPAD@Z 00511090 f   sp_vanish.obj
 0001:00110380       ?Save@SPVanish@@QAEHXZ     00511380 f   sp_vanish.obj
 0001:001105f0       ?Add@SPVanish@@QAEXPAVSPGhost@@@Z 005115f0 f   sp_vanish.obj
 0001:00110890       ?Get@SPVanish@@QAEJPAVSPGhost@@@Z 00511890 f   sp_vanish.obj
 0001:00110980       ?GetCount@SPVanish@@QAEIPAVSPGhost@@@Z 00511980 f   sp_vanish.obj
 0001:001109b0       ??1SPVanishData@@QAE@XZ    005119b0 f i sp_vanish.obj
 0001:00110a20       ?SPGetVarSystemDispatcher@@YAAAVSPVarSystemDispatcher@@XZ 00511a20 f   sp_varsystemdispatcher.obj
 0001:00110a30       ?FindFromName@SPVarSystemDispatcher@@AAE?AVSPVarSystemDispatcherFindResult@@PAVSPGhost@@PAG@Z 00511a30 f   sp_varsystemdispatcher.obj
 0001:00110fb0       ??_GSPSystemNode@@UAEPAXI@Z 00511fb0 f i sp_varsystemdispatcher.obj
 0001:00110fb0       ??_ESPSystemNode@@UAEPAXI@Z 00511fb0 f i sp_varsystemdispatcher.obj
 0001:00110ff0       ?Get@SPVarSystemDispatcher@@QAE_NPAVSPGhost@@PAGAAVJWString@@@Z 00511ff0 f   sp_varsystemdispatcher.obj
 0001:001111e0       ?Set@SPVarSystemDispatcher@@QAE_NPAVSPGhost@@PAG1@Z 005121e0 f   sp_varsystemdispatcher.obj
 0001:001112a0       ?VarGet@SPSystemNode@@UAE_NPAVSPGhost@@PAGAAVJWString@@PAVSPVarSystemNode@@@Z 005122a0 f   sp_varsystemdispatcher.obj
 0001:00111430       ?VarGet@SPVarSystemNode@@UAE_NPAVSPGhost@@PAGAAVJWString@@PAV1@@Z 00512430 f   sp_varsystemdispatcher.obj
 0001:00111430       ?VarSet@SPHistory@@UAE_NPAVSPGhost@@PAG1PAVSPVarSystemNode@@@Z 00512430 f   sp_varsystemdispatcher.obj
 0001:00111430       ?VarSet@SPSystemNode@@UAE_NPAVSPGhost@@PAG1PAVSPVarSystemNode@@@Z 00512430 f   sp_varsystemdispatcher.obj
 0001:00111430       ?VarSet@SPGhostTime@@UAE_NPAVSPGhost@@PAG1PAVSPVarSystemNode@@@Z 00512430 f   sp_varsystemdispatcher.obj
 0001:00111430       ?VarSet@SPProp@@UAE_NPAVSPGhost@@PAG1PAVSPVarSystemNode@@@Z 00512430 f   sp_varsystemdispatcher.obj
 0001:00111430       ?VarSet@SPVarSystemNode@@UAE_NPAVSPGhost@@PAG1PAV1@@Z 00512430 f   sp_varsystemdispatcher.obj
 0001:00111440       ?GetIndex@SPPropListNode@@AAE?AVSPVarSystemDispatcherFindResult@@PAG0@Z 00512440 f   sp_varsystemdispatcher.obj
 0001:00111630       ?FindNode@SPPropListNode@@QAE?AVSPVarSystemDispatcherFindResult@@PAG@Z 00512630 f   sp_varsystemdispatcher.obj
 0001:00111670       ?VarGet@SPPropListNode@@UAE_NPAVSPGhost@@PAGAAVJWString@@PAVSPVarSystemNode@@@Z 00512670 f   sp_varsystemdispatcher.obj
 0001:00111720       ?VarSet@SPPropListNode@@UAE_NPAVSPGhost@@PAG1PAVSPVarSystemNode@@@Z 00512720 f   sp_varsystemdispatcher.obj
 0001:00111770       ?Release@SPVersionInfo@@QAEXXZ 00512770 f   sp_versioninfo.obj
 0001:00111790       ?Open@SPVersionInfo@@QAEHPAD@Z 00512790 f   sp_versioninfo.obj
 0001:00111830       ?FileInfo@SPVersionInfo@@QAEPAUtagVS_FIXEDFILEINFO@@XZ 00512830 f   sp_versioninfo.obj
 0001:00111870       ?GetEntry@SPVersionInfo@@QAEPADPAD@Z 00512870 f   sp_versioninfo.obj
 0001:00111980       ?SetFlip3DExclude@SPVistaExtend@@SA_NPAUHWND__@@_N@Z 00512980 f   sp_vistaextend.obj
 0001:00111a20       ?ExtendedMessageBox@SPVistaExtend@@SAHPAUHWND__@@PBG1I1@Z 00512a20 f   sp_vistaextend.obj
 0001:00111c20       ?SPGetVKInfoTable@@YAPBUtagSPVKInfo@@XZ 00512c20 f   sp_vk.obj
 0001:00111c30       ?SPGetInfoFromVK@@YAPBUtagSPVKInfo@@H@Z 00512c30 f   sp_vk.obj
 0001:00111c50       ?SPGetKeyNameFromVK@@YAPBGH@Z 00512c50 f   sp_vk.obj
 0001:00111c70       ?SPGetVKFromName@@YAHPAG@Z 00512c70 f   sp_vk.obj
 0001:00111cc0       ?reserve@TiXmlString@@QAEXI@Z 00512cc0 f   tinystr.obj
 0001:00111d70       ?assign@TiXmlString@@QAEAAV1@PBDI@Z 00512d70 f   tinystr.obj
 0001:00111e40       ?append@TiXmlString@@QAEAAV1@PBDI@Z 00512e40 f   tinystr.obj
 0001:00111e90       ?init@TiXmlString@@AAEXII@Z 00512e90 f i tinystr.obj
 0001:00111ee0       ?TiXmlFOpen@@YAPAU_iobuf@@PBD0@Z 00512ee0 f   tinyxml.obj
 0001:00111f00       ?EncodeString@TiXmlBase@@SAXABVTiXmlString@@PAV2@@Z 00512f00 f   tinyxml.obj
 0001:00112040       ??0TiXmlNode@@IAE@W4NodeType@0@@Z 00513040 f   tinyxml.obj
 0001:00112080       ??_GTiXmlNode@@UAEPAXI@Z   00513080 f i tinyxml.obj
 0001:00112080       ??_ETiXmlNode@@UAEPAXI@Z   00513080 f i tinyxml.obj
 0001:001120b0       ??1TiXmlNode@@UAE@XZ       005130b0 f   tinyxml.obj
 0001:00112130       ??1TiXmlBase@@UAE@XZ       00513130 f i tinyxml.obj
 0001:00112140       ??_ETiXmlBase@@UAEPAXI@Z   00513140 f i tinyxml.obj
 0001:00112140       ??_GTiXmlBase@@UAEPAXI@Z   00513140 f i tinyxml.obj
 0001:00112170       ?CopyTo@TiXmlNode@@IBEXPAV1@@Z 00513170 f   tinyxml.obj
 0001:001121b0       ?Clear@TiXmlNode@@QAEXXZ   005131b0 f   tinyxml.obj
 0001:001121e0       ?LinkEndChild@TiXmlNode@@QAEPAV1@PAV1@@Z 005131e0 f   tinyxml.obj
 0001:00112260       ?InsertEndChild@TiXmlNode@@QAEPAV1@ABV1@@Z 00513260 f   tinyxml.obj
 0001:001122c0       ?FirstChild@TiXmlNode@@QBEPBV1@PBD@Z 005132c0 f   tinyxml.obj
 0001:00112320       ?NextSibling@TiXmlNode@@QBEPBV1@PBD@Z 00513320 f   tinyxml.obj
 0001:00112380       ?FirstChildElement@TiXmlNode@@QBEPBVTiXmlElement@@PBD@Z 00513380 f   tinyxml.obj
 0001:001123d0       ?GetDocument@TiXmlNode@@QBEPBVTiXmlDocument@@XZ 005133d0 f   tinyxml.obj
 0001:00112400       ??0TiXmlElement@@QAE@PBD@Z 00513400 f   tinyxml.obj
 0001:00112480       ??_ETiXmlElement@@UAEPAXI@Z 00513480 f i tinyxml.obj
 0001:00112480       ??_GTiXmlElement@@UAEPAXI@Z 00513480 f i tinyxml.obj
 0001:001124b0       ??1TiXmlElement@@UAE@XZ    005134b0 f   tinyxml.obj
 0001:00112510       ?ClearThis@TiXmlElement@@IAEXXZ 00513510 f   tinyxml.obj
 0001:00112550       ?SetAttribute@TiXmlElement@@QAEXPBD0@Z 00513550 f   tinyxml.obj
 0001:00112690       ?Print@TiXmlAttribute@@UBEXPAU_iobuf@@H@Z 00513690 f i tinyxml.obj
 0001:001126b0       ??_GTiXmlAttribute@@UAEPAXI@Z 005136b0 f i tinyxml.obj
 0001:001126b0       ??_ETiXmlAttribute@@UAEPAXI@Z 005136b0 f i tinyxml.obj
 0001:001126e0       ??1TiXmlAttribute@@UAE@XZ  005136e0 f i tinyxml.obj
 0001:00112750       ?Print@TiXmlElement@@UBEXPAU_iobuf@@H@Z 00513750 f   tinyxml.obj
 0001:00112890       ?CopyTo@TiXmlElement@@IBEXPAV1@@Z 00513890 f   tinyxml.obj
 0001:00112900       ?Accept@TiXmlElement@@UBE_NPAVTiXmlVisitor@@@Z 00513900 f   tinyxml.obj
 0001:00112960       ?Clone@TiXmlElement@@UBEPAVTiXmlNode@@XZ 00513960 f   tinyxml.obj
 0001:001129e0       ??0TiXmlDocument@@QAE@XZ   005139e0 f   tinyxml.obj
 0001:00112a70       ?LoadFile@TiXmlDocument@@QAE_NPBDW4TiXmlEncoding@@@Z 00513a70 f   tinyxml.obj
 0001:00112b80       ?LoadFile@TiXmlDocument@@QAE_NPAU_iobuf@@W4TiXmlEncoding@@@Z 00513b80 f   tinyxml.obj
 0001:00112da0       ?SaveFile@TiXmlDocument@@QBE_NPBD@Z 00513da0 f   tinyxml.obj
 0001:00112df0       ?SaveFile@TiXmlDocument@@QBE_NPAU_iobuf@@@Z 00513df0 f   tinyxml.obj
 0001:00112e40       ?CopyTo@TiXmlDocument@@ABEXPAV1@@Z 00513e40 f   tinyxml.obj
 0001:00112eb0       ?Clone@TiXmlDocument@@MBEPAVTiXmlNode@@XZ 00513eb0 f   tinyxml.obj
 0001:00112f30       ?Print@TiXmlDocument@@UBEXPAU_iobuf@@H@Z 00513f30 f   tinyxml.obj
 0001:00112f70       ?Accept@TiXmlDocument@@UBE_NPAVTiXmlVisitor@@@Z 00513f70 f   tinyxml.obj
 0001:00112fb0       ?Next@TiXmlAttribute@@QBEPBV1@XZ 00513fb0 f   tinyxml.obj
 0001:00112fd0       ?Print@TiXmlAttribute@@QBEXPAU_iobuf@@HPAVTiXmlString@@@Z 00513fd0 f   tinyxml.obj
 0001:00113190       ?find@TiXmlString@@QBEIDI@Z 00514190 f i tinyxml.obj
 0001:001131d0       ??_ETiXmlComment@@UAEPAXI@Z 005141d0 f i tinyxml.obj
 0001:001131d0       ??_GTiXmlComment@@UAEPAXI@Z 005141d0 f i tinyxml.obj
 0001:00113200       ??1TiXmlComment@@UAE@XZ    00514200 f i tinyxml.obj
 0001:00113210       ?Print@TiXmlComment@@UBEXPAU_iobuf@@H@Z 00514210 f   tinyxml.obj
 0001:00113250       ?Accept@TiXmlComment@@UBE_NPAVTiXmlVisitor@@@Z 00514250 f   tinyxml.obj
 0001:00113270       ?Clone@TiXmlComment@@UBEPAVTiXmlNode@@XZ 00514270 f   tinyxml.obj
 0001:001132b0       ?Print@TiXmlText@@UBEXPAU_iobuf@@H@Z 005142b0 f   tinyxml.obj
 0001:00113390       ?CopyTo@TiXmlText@@IBEXPAV1@@Z 00514390 f   tinyxml.obj
 0001:001133b0       ?Accept@TiXmlText@@UBE_NPAVTiXmlVisitor@@@Z 005143b0 f   tinyxml.obj
 0001:001133d0       ?Clone@TiXmlText@@MBEPAVTiXmlNode@@XZ 005143d0 f   tinyxml.obj
 0001:00113480       ??0TiXmlDeclaration@@QAE@PBD00@Z 00514480 f   tinyxml.obj
 0001:00113540       ?Print@TiXmlDeclaration@@UBEXPAU_iobuf@@HPAVTiXmlString@@@Z 00514540 f   tinyxml.obj
 0001:00113710       ?CopyTo@TiXmlDeclaration@@IBEXPAV1@@Z 00514710 f   tinyxml.obj
 0001:00113760       ?Accept@TiXmlDeclaration@@UBE_NPAVTiXmlVisitor@@@Z 00514760 f   tinyxml.obj
 0001:00113780       ?Clone@TiXmlDeclaration@@UBEPAVTiXmlNode@@XZ 00514780 f   tinyxml.obj
 0001:001137d0       ?Print@TiXmlUnknown@@UBEXPAU_iobuf@@H@Z 005147d0 f   tinyxml.obj
 0001:00113810       ?CopyTo@TiXmlUnknown@@IBEXPAV1@@Z 00514810 f   tinyxml.obj
 0001:00113810       ?CopyTo@TiXmlComment@@IBEXPAV1@@Z 00514810 f   tinyxml.obj
 0001:00113820       ?Accept@TiXmlUnknown@@UBE_NPAVTiXmlVisitor@@@Z 00514820 f   tinyxml.obj
 0001:00113840       ?Clone@TiXmlUnknown@@UBEPAVTiXmlNode@@XZ 00514840 f   tinyxml.obj
 0001:00113880       ??_ETiXmlUnknown@@UAEPAXI@Z 00514880 f i tinyxml.obj
 0001:00113880       ??_GTiXmlUnknown@@UAEPAXI@Z 00514880 f i tinyxml.obj
 0001:001138b0       ??1TiXmlUnknown@@UAE@XZ    005148b0 f i tinyxml.obj
 0001:001138c0       ??0TiXmlAttributeSet@@QAE@XZ 005148c0 f   tinyxml.obj
 0001:001138f0       ??1TiXmlAttributeSet@@QAE@XZ 005148f0 f   tinyxml.obj
 0001:00113960       ?Add@TiXmlAttributeSet@@QAEXPAVTiXmlAttribute@@@Z 00514960 f   tinyxml.obj
 0001:00113980       ?Remove@TiXmlAttributeSet@@QAEXPAVTiXmlAttribute@@@Z 00514980 f   tinyxml.obj
 0001:001139c0       ?Find@TiXmlAttributeSet@@QBEPBVTiXmlAttribute@@PBD@Z 005149c0 f   tinyxml.obj
 0001:00113a30       ?FirstChild@TiXmlHandle@@QBE?AV1@XZ 00514a30 f   tinyxml.obj
 0001:00113a60       ?FirstChild@TiXmlHandle@@QBE?AV1@PBD@Z 00514a60 f   tinyxml.obj
 0001:00113a90       ?FirstChildElement@TiXmlHandle@@QBE?AV1@PBD@Z 00514a90 f   tinyxml.obj
 0001:00113ac0       ?ConvertUTF32ToUTF8@TiXmlBase@@KAXKPADPAH@Z 00514ac0 f   tinyxmlparser.obj
 0001:00113bb0       ?IsAlpha@TiXmlBase@@KAHEW4TiXmlEncoding@@@Z 00514bb0 f   tinyxmlparser.obj
 0001:00113be0       ?IsAlphaNum@TiXmlBase@@KAHEW4TiXmlEncoding@@@Z 00514be0 f   tinyxmlparser.obj
 0001:00113c10       ?Stamp@TiXmlParsingData@@QAEXPBDW4TiXmlEncoding@@@Z 00514c10 f   tinyxmlparser.obj
 0001:00113e10       ?SkipWhiteSpace@TiXmlBase@@KAPBDPBDW4TiXmlEncoding@@@Z 00514e10 f   tinyxmlparser.obj
 0001:00113ef0       ?ReadName@TiXmlBase@@KAPBDPBDPAVTiXmlString@@W4TiXmlEncoding@@@Z 00514ef0 f   tinyxmlparser.obj
 0001:00113f90       ?GetEntity@TiXmlBase@@KAPBDPBDPADPAHW4TiXmlEncoding@@@Z 00514f90 f   tinyxmlparser.obj
 0001:001141b0       ?StringEqual@TiXmlBase@@KA_NPBD0_NW4TiXmlEncoding@@@Z 005151b0 f   tinyxmlparser.obj
 0001:00114250       ?ReadText@TiXmlBase@@KAPBDPBDPAVTiXmlString@@_N02W4TiXmlEncoding@@@Z 00515250 f   tinyxmlparser.obj
 0001:001144e0       ?Parse@TiXmlDocument@@UAEPBDPBDPAVTiXmlParsingData@@W4TiXmlEncoding@@@Z 005154e0 f   tinyxmlparser.obj
 0001:001146c0       ?SetError@TiXmlDocument@@QAEXHPBDPAVTiXmlParsingData@@W4TiXmlEncoding@@@Z 005156c0 f   tinyxmlparser.obj
 0001:00114730       ?Identify@TiXmlNode@@IAEPAV1@PBDW4TiXmlEncoding@@@Z 00515730 f   tinyxmlparser.obj
 0001:001149e0       ?Parse@TiXmlElement@@UAEPBDPBDPAVTiXmlParsingData@@W4TiXmlEncoding@@@Z 005159e0 f   tinyxmlparser.obj
 0001:00114e30       ?ReadValue@TiXmlElement@@IAEPBDPBDPAVTiXmlParsingData@@W4TiXmlEncoding@@@Z 00515e30 f   tinyxmlparser.obj
 0001:00114fe0       ?Parse@TiXmlUnknown@@UAEPBDPBDPAVTiXmlParsingData@@W4TiXmlEncoding@@@Z 00515fe0 f   tinyxmlparser.obj
 0001:001150d0       ?Parse@TiXmlComment@@UAEPBDPBDPAVTiXmlParsingData@@W4TiXmlEncoding@@@Z 005160d0 f   tinyxmlparser.obj
 0001:00115200       ?Parse@TiXmlAttribute@@UAEPBDPBDPAVTiXmlParsingData@@W4TiXmlEncoding@@@Z 00516200 f   tinyxmlparser.obj
 0001:001153e0       ?Parse@TiXmlText@@UAEPBDPBDPAVTiXmlParsingData@@W4TiXmlEncoding@@@Z 005163e0 f   tinyxmlparser.obj
 0001:00115580       ?Parse@TiXmlDeclaration@@UAEPBDPBDPAVTiXmlParsingData@@W4TiXmlEncoding@@@Z 00516580 f   tinyxmlparser.obj
 0001:00115940       ?Blank@TiXmlText@@IBE_NXZ  00516940 f   tinyxmlparser.obj
 0001:001159a0       _VerQueryValueA@16         005169a0 f   version:VERSION.dll
 0001:001159a6       _GetFileVersionInfoA@16    005169a6 f   version:VERSION.dll
 0001:001159ac       _GetFileVersionInfoSizeA@8 005169ac f   version:VERSION.dll
 0001:001159b2       ___WSAFDIsSet@8            005169b2 f   wsock32:WSOCK32.dll
 0001:001159c0       _ssl_load_ciphers          005169c0 f   ssleay32:ssl_ciph.obj
 0001:00115ba0       _ssl_cipher_get_evp        00516ba0 f   ssleay32:ssl_ciph.obj
 0001:00115f60       _ssl_get_handshake_digest  00516f60 f   ssleay32:ssl_ciph.obj
 0001:00115fa0       _ssl_create_cipher_list    00516fa0 f   ssleay32:ssl_ciph.obj
 0001:00116dc0       _SSL_CIPHER_get_version    00517dc0 f   ssleay32:ssl_ciph.obj
 0001:00116e00       _ssl3_comp_find            00517e00 f   ssleay32:ssl_ciph.obj
 0001:00116e50       _SSL_COMP_get_compression_methods 00517e50 f   ssleay32:ssl_ciph.obj
 0001:00116e60       _SSL_clear                 00517e60 f   ssleay32:ssl_lib.obj
 0001:00117030       _SSL_new                   00518030 f   ssleay32:ssl_lib.obj
 0001:001172d0       _SSL_has_matching_session_id 005182d0 f   ssleay32:ssl_lib.obj
 0001:001173a0       _SSL_free                  005183a0 f   ssleay32:ssl_lib.obj
 0001:00117640       _SSL_set_fd                00518640 f   ssleay32:ssl_lib.obj
 0001:001176f0       _SSL_get_peer_certificate  005186f0 f   ssleay32:ssl_lib.obj
 0001:00117740       _SSL_connect               00518740 f   ssleay32:ssl_lib.obj
 0001:00117830       _SSL_get_default_timeout   00518830 f   ssleay32:ssl_lib.obj
 0001:00117840       _SSL_read                  00518840 f   ssleay32:ssl_lib.obj
 0001:001178a0       _SSL_peek                  005188a0 f   ssleay32:ssl_lib.obj
 0001:001178f0       _SSL_write                 005188f0 f   ssleay32:ssl_lib.obj
 0001:00117960       _SSL_shutdown              00518960 f   ssleay32:ssl_lib.obj
 0001:001179b0       _SSL_ctrl                  005189b0 f   ssleay32:ssl_lib.obj
 0001:00117b60       _SSL_CTX_ctrl              00518b60 f   ssleay32:ssl_lib.obj
 0001:00117dc0       _ssl_cipher_ptr_id_cmp     00518dc0 f   ssleay32:ssl_lib.obj
 0001:00117df0       _SSL_get_ciphers           00518df0 f   ssleay32:ssl_lib.obj
 0001:00117e20       _ssl_get_ciphers_by_id     00518e20 f   ssleay32:ssl_lib.obj
 0001:00117e50       _SSL_set_cipher_list       00518e50 f   ssleay32:ssl_lib.obj
 0001:00117eb0       _ssl_cipher_list_to_bytes  00518eb0 f   ssleay32:ssl_lib.obj
 0001:00117f80       _ssl_bytes_to_cipher_list  00518f80 f   ssleay32:ssl_lib.obj
 0001:00118100       _SSL_CTX_new               00519100 f   ssleay32:ssl_lib.obj
 0001:00118550       _SSL_CTX_free              00519550 f   ssleay32:ssl_lib.obj
 0001:001186e0       _ssl_check_srvr_ecc_cert_and_alg 005196e0 f   ssleay32:ssl_lib.obj
 0001:00118840       _ssl_update_cache          00519840 f   ssleay32:ssl_lib.obj
 0001:00118920       _ssl_undefined_function    00519920 f   ssleay32:ssl_lib.obj
 0001:00118940       _ssl_undefined_void_function 00519940 f   ssleay32:ssl_lib.obj
 0001:00118960       _ssl_undefined_const_function 00519960 f   ssleay32:ssl_lib.obj
 0001:00118980       _SSL_get_current_cipher    00519980 f   ssleay32:ssl_lib.obj
 0001:001189a0       _ssl_init_wbio_buffer      005199a0 f   ssleay32:ssl_lib.obj
 0001:00118a60       _ssl_free_wbio_buffer      00519a60 f   ssleay32:ssl_lib.obj
 0001:00118aa0       _SSL_version               00519aa0 f   ssleay32:ssl_lib.obj
 0001:00118aa0       _EC_GROUP_method_of        00519aa0 f   ssleay32:ssl_lib.obj
 0001:00118aa0       _EVP_CIPHER_nid            00519aa0 f   ssleay32:ssl_lib.obj
 0001:00118aa0       _EVP_CIPHER_CTX_cipher     00519aa0 f   ssleay32:ssl_lib.obj
 0001:00118aa0       _EVP_MD_type               00519aa0 f   ssleay32:ssl_lib.obj
 0001:00118aa0       _EVP_PKEY_id               00519aa0 f   ssleay32:ssl_lib.obj
 0001:00118ab0       _SSL_CTX_load_verify_locations 00519ab0 f   ssleay32:ssl_lib.obj
 0001:00118ad0       _EC_GROUP_get_asn1_flag    00519ad0 f   ssleay32:ssl_lib.obj
 0001:00118ad0       _SSL_state                 00519ad0 f   ssleay32:ssl_lib.obj
 0001:00118ae0       _SSL_get_verify_result     00519ae0 f   ssleay32:ssl_lib.obj
 0001:00118af0       _ssl_replace_hash          00519af0 f   ssleay32:ssl_lib.obj
 0001:00118b30       _OBJ_bsearch_ssl_cipher_id 00519b30 f   ssleay32:ssl_lib.obj
 0001:00118bc0       _SSLv23_client_method      00519bc0 f   ssleay32:s23_clnt.obj
 0001:00118bd0       _ssl23_connect             00519bd0 f   ssleay32:s23_clnt.obj
 0001:00119680       _SSL_load_error_strings    0051a680 f   ssleay32:ssl_err2.obj
 0001:00119690       _SSL_library_init          0051a690 f   ssleay32:ssl_algs.obj
 0001:001197d0       _SSL_SESSION_new           0051a7d0 f   ssleay32:ssl_sess.obj
 0001:001198a0       _ssl_get_new_session       0051a8a0 f   ssleay32:ssl_sess.obj
 0001:00119c60       _SSL_CTX_add_session       0051ac60 f   ssleay32:ssl_sess.obj
 0001:00119dc0       _SSL_CTX_remove_session    0051adc0 f   ssleay32:ssl_sess.obj
 0001:00119eb0       _SSL_SESSION_free          0051aeb0 f   ssleay32:ssl_sess.obj
 0001:00119ff0       _SSL_CTX_flush_sessions    0051aff0 f   ssleay32:ssl_sess.obj
 0001:0011a0e0       _ssl_clear_bad_session     0051b0e0 f   ssleay32:ssl_sess.obj
 0001:0011a1e0       _SSL_get_ex_data_X509_STORE_CTX_idx 0051b1e0 f   ssleay32:ssl_cert.obj
 0001:0011a290       _ssl_cert_new              0051b290 f   ssleay32:ssl_cert.obj
 0001:0011a2f0       _ssl_cert_dup              0051b2f0 f   ssleay32:ssl_cert.obj
 0001:0011a560       _ssl_cert_free             0051b560 f   ssleay32:ssl_cert.obj
 0001:0011a600       _ssl_cert_inst             0051b600 f   ssleay32:ssl_cert.obj
 0001:0011a6a0       _ssl_sess_cert_new         0051b6a0 f   ssleay32:ssl_cert.obj
 0001:0011a700       _ssl_sess_cert_free        0051b700 f   ssleay32:ssl_cert.obj
 0001:0011a7a0       _ssl_set_peer_cert_type    0051b7a0 f   ssleay32:ssl_cert.obj
 0001:0011a7c0       _ssl_verify_cert_chain     0051b7c0 f   ssleay32:ssl_cert.obj
 0001:0011a980       _SSL_get_client_CA_list    0051b980 f   ssleay32:ssl_cert.obj
 0001:0011a9d0       _ssl3_read_n               0051b9d0 f   ssleay32:s3_pkt.obj
 0001:0011ac40       _ssl3_write_bytes          0051bc40 f   ssleay32:s3_pkt.obj
 0001:0011b050       _ssl3_write_pending        0051c050 f   ssleay32:s3_pkt.obj
 0001:0011b1a0       _ssl3_read_bytes           0051c1a0 f   ssleay32:s3_pkt.obj
 0001:0011bf50       _ssl3_do_change_cipher_spec 0051cf50 f   ssleay32:s3_pkt.obj
 0001:0011c030       _ssl3_send_alert           0051d030 f   ssleay32:s3_pkt.obj
 0001:0011c0d0       _ssl3_dispatch_alert       0051d0d0 f   ssleay32:s3_pkt.obj
 0001:0011c1a0       _tls1_default_timeout      0051d1a0 f   ssleay32:s3_lib.obj
 0001:0011c1a0       _ssl3_default_timeout      0051d1a0 f   ssleay32:s3_lib.obj
 0001:0011c1b0       _ssl3_num_ciphers          0051d1b0 f   ssleay32:s3_lib.obj
 0001:0011c1c0       _ssl3_get_cipher           0051d1c0 f   ssleay32:s3_lib.obj
 0001:0011c1e0       _ssl3_pending              0051d1e0 f   ssleay32:s3_lib.obj
 0001:0011c210       _ssl3_new                  0051d210 f   ssleay32:s3_lib.obj
 0001:0011c280       _ssl3_free                 0051d280 f   ssleay32:s3_lib.obj
 0001:0011c380       _ssl3_clear                0051d380 f   ssleay32:s3_lib.obj
 0001:0011c4e0       _ssl3_ctrl                 0051d4e0 f   ssleay32:s3_lib.obj
 0001:0011c9c0       _ssl3_callback_ctrl        0051d9c0 f   ssleay32:s3_lib.obj
 0001:0011cab0       _ssl3_ctx_ctrl             0051dab0 f   ssleay32:s3_lib.obj
 0001:0011ce70       _ssl3_ctx_callback_ctrl    0051de70 f   ssleay32:s3_lib.obj
 0001:0011cf60       _ssl3_get_cipher_by_char   0051df60 f   ssleay32:s3_lib.obj
 0001:0011cfb0       _ssl3_put_cipher_by_char   0051dfb0 f   ssleay32:s3_lib.obj
 0001:0011cff0       _ssl3_shutdown             0051dff0 f   ssleay32:s3_lib.obj
 0001:0011d0b0       _ssl3_write                0051e0b0 f   ssleay32:s3_lib.obj
 0001:0011d1b0       _ssl3_read                 0051e1b0 f   ssleay32:s3_lib.obj
 0001:0011d290       _ssl3_peek                 0051e290 f   ssleay32:s3_lib.obj
 0001:0011d370       _ssl3_renegotiate          0051e370 f   ssleay32:s3_lib.obj
 0001:0011d3a0       _ssl3_renegotiate_check    0051e3a0 f   ssleay32:s3_lib.obj
 0001:0011d420       _ssl23_num_ciphers         0051e420 f   ssleay32:s23_lib.obj
 0001:0011d440       _ssl23_get_cipher          0051e440 f   ssleay32:s23_lib.obj
 0001:0011d470       _ssl23_get_cipher_by_char  0051e470 f   ssleay32:s23_lib.obj
 0001:0011d4a0       _ssl23_put_cipher_by_char  0051e4a0 f   ssleay32:s23_lib.obj
 0001:0011d4d0       _ssl23_read                0051e4d0 f   ssleay32:s23_lib.obj
 0001:0011d550       _ssl23_peek                0051e550 f   ssleay32:s23_lib.obj
 0001:0011d5d0       _ssl23_write               0051e5d0 f   ssleay32:s23_lib.obj
 0001:0011d650       _ssl3_do_write             0051e650 f   ssleay32:s3_both.obj
 0001:0011d6f0       _ssl3_send_finished        0051e6f0 f   ssleay32:s3_both.obj
 0001:0011d830       _ssl3_get_finished         0051e830 f   ssleay32:s3_both.obj
 0001:0011d9a0       _ssl3_send_change_cipher_spec 0051e9a0 f   ssleay32:s3_both.obj
 0001:0011d9e0       _ssl3_output_cert_chain    0051e9e0 f   ssleay32:s3_both.obj
 0001:0011dcf0       _ssl3_get_message          0051ecf0 f   ssleay32:s3_both.obj
 0001:0011dfd0       _ssl_cert_type             0051efd0 f   ssleay32:s3_both.obj
 0001:0011e060       _ssl_verify_alarm_type     0051f060 f   ssleay32:s3_both.obj
 0001:0011e120       _ssl3_setup_read_buffer    0051f120 f   ssleay32:s3_both.obj
 0001:0011e270       _ssl3_setup_write_buffer   0051f270 f   ssleay32:s3_both.obj
 0001:0011e3a0       _ssl3_setup_buffers        0051f3a0 f   ssleay32:s3_both.obj
 0001:0011e3d0       _ssl3_release_write_buffer 0051f3d0 f   ssleay32:s3_both.obj
 0001:0011e490       _ssl3_release_read_buffer  0051f490 f   ssleay32:s3_both.obj
 0001:0011e550       _tls1_new                  0051f550 f   ssleay32:t1_lib.obj
 0001:0011e580       _tls1_free                 0051f580 f   ssleay32:t1_lib.obj
 0001:0011e5b0       _tls1_clear                0051f5b0 f   ssleay32:t1_lib.obj
 0001:0011e5d0       _tls1_ec_curve_id2nid      0051f5d0 f   ssleay32:t1_lib.obj
 0001:0011e5f0       _ssl_add_clienthello_tlsext 0051f5f0 f   ssleay32:t1_lib.obj
 0001:0011ec70       _ssl_parse_serverhello_tlsext 0051fc70 f   ssleay32:t1_lib.obj
 0001:0011f000       _ssl_prepare_clienthello_tlsext 00520000 f   ssleay32:t1_lib.obj
 0001:0011f140       _ssl_check_serverhello_tlsext 00520140 f   ssleay32:t1_lib.obj
 0001:0011f310       _TLSv1_client_method       00520310 f   ssleay32:t1_clnt.obj
 0001:0011f340       _SSLv3_client_method       00520340 f   ssleay32:s3_clnt.obj
 0001:0011f350       _ssl3_connect              00520350 f   ssleay32:s3_clnt.obj
 0001:0011fc40       _ssl3_client_hello         00520c40 f   ssleay32:s3_clnt.obj
 0001:0011feb0       _ssl3_get_server_hello     00520eb0 f   ssleay32:s3_clnt.obj
 0001:00120430       _ssl3_get_server_certificate 00521430 f   ssleay32:s3_clnt.obj
 0001:00120860       _ssl3_get_key_exchange     00521860 f   ssleay32:s3_clnt.obj
 0001:00121430       _ssl3_get_certificate_request 00522430 f   ssleay32:s3_clnt.obj
 0001:00121740       _ssl3_get_new_session_ticket 00522740 f   ssleay32:s3_clnt.obj
 0001:00121950       _ssl3_get_cert_status      00522950 f   ssleay32:s3_clnt.obj
 0001:00121ab0       _ssl3_send_client_key_exchange 00522ab0 f   ssleay32:s3_clnt.obj
 0001:001225d0       _ssl3_send_client_verify   005235d0 f   ssleay32:s3_clnt.obj
 0001:00122840       _ssl3_send_client_certificate 00523840 f   ssleay32:s3_clnt.obj
 0001:00122a20       _ssl3_check_cert_and_algorithm 00523a20 f   ssleay32:s3_clnt.obj
 0001:00122d10       _SSLv2_client_method       00523d10 f   ssleay32:s2_clnt.obj
 0001:00122d20       _ssl2_connect              00523d20 f   ssleay32:s2_clnt.obj
 0001:00124130       _ssl2_set_certificate      00525130 f   ssleay32:s2_clnt.obj
 0001:00124360       _ssl23_default_timeout     00525360 f   ssleay32:s2_lib.obj
 0001:00124360       _ssl2_default_timeout      00525360 f   ssleay32:s2_lib.obj
 0001:00124370       _ssl2_num_ciphers          00525370 f   ssleay32:s2_lib.obj
 0001:00124380       _ssl2_get_cipher           00525380 f   ssleay32:s2_lib.obj
 0001:001243a0       _ssl2_pending              005253a0 f   ssleay32:s2_lib.obj
 0001:001243d0       _ssl2_new                  005253d0 f   ssleay32:s2_lib.obj
 0001:001244b0       _ssl2_free                 005254b0 f   ssleay32:s2_lib.obj
 0001:00124500       _ssl2_clear                00525500 f   ssleay32:s2_lib.obj
 0001:00124550       _ssl2_ctrl                 00525550 f   ssleay32:s2_lib.obj
 0001:00124570       _ssl2_ctx_callback_ctrl    00525570 f   ssleay32:s2_lib.obj
 0001:00124570       _ssl2_ctx_ctrl             00525570 f   ssleay32:s2_lib.obj
 0001:00124570       _ssl2_callback_ctrl        00525570 f   ssleay32:s2_lib.obj
 0001:00124570       _jpeg_mem_init             00525570 f   ssleay32:s2_lib.obj
 0001:00124580       _ssl2_get_cipher_by_char   00525580 f   ssleay32:s2_lib.obj
 0001:001245d0       _ssl2_put_cipher_by_char   005255d0 f   ssleay32:s2_lib.obj
 0001:00124610       _ssl2_generate_key_material 00525610 f   ssleay32:s2_lib.obj
 0001:001247b0       _ssl2_return_error         005257b0 f   ssleay32:s2_lib.obj
 0001:001247e0       _ssl2_write_error          005257e0 f   ssleay32:s2_lib.obj
 0001:00124890       _ssl2_shutdown             00525890 f   ssleay32:s2_lib.obj
 0001:001248b0       _ssl23_write_bytes         005258b0 f   ssleay32:s23_pkt.obj
 0001:00124930       _ssl23_read_bytes          00525930 f   ssleay32:s23_pkt.obj
 0001:001249b0       _ssl3_change_cipher_state  005259b0 f   ssleay32:s3_enc.obj
 0001:00124e40       _ssl3_setup_key_block      00525e40 f   ssleay32:s3_enc.obj
 0001:001251d0       _ssl3_cleanup_key_block    005261d0 f   ssleay32:s3_enc.obj
 0001:00125230       _ssl3_enc                  00526230 f   ssleay32:s3_enc.obj
 0001:001253b0       _ssl3_init_finished_mac    005263b0 f   ssleay32:s3_enc.obj
 0001:00125450       _ssl3_free_digest_list     00526450 f   ssleay32:s3_enc.obj
 0001:001254b0       _ssl3_finish_mac           005264b0 f   ssleay32:s3_enc.obj
 0001:00125510       _ssl3_digest_cached_records 00526510 f   ssleay32:s3_enc.obj
 0001:001256b0       _ssl3_cert_verify_mac      005266b0 f   ssleay32:s3_enc.obj
 0001:001256d0       _ssl3_final_finish_mac     005266d0 f   ssleay32:s3_enc.obj
 0001:001258c0       _n_ssl3_mac                005268c0 f   ssleay32:s3_enc.obj
 0001:00125a50       _ssl3_generate_master_secret 00526a50 f   ssleay32:s3_enc.obj
 0001:00125b80       _ssl3_alert_code           00526b80 f   ssleay32:s3_enc.obj
 0001:00125cb0       _ERR_load_SSL_strings      00526cb0 f   ssleay32:ssl_err.obj
 0001:00125ce0       _tls1_change_cipher_state  00526ce0 f   ssleay32:t1_enc.obj
 0001:00126590       _tls1_setup_key_block      00527590 f   ssleay32:t1_enc.obj
 0001:00126780       _tls1_enc                  00527780 f   ssleay32:t1_enc.obj
 0001:00126a30       _tls1_cert_verify_mac      00527a30 f   ssleay32:t1_enc.obj
 0001:00126b10       _tls1_final_finish_mac     00527b10 f   ssleay32:t1_enc.obj
 0001:00126c70       _tls1_mac                  00527c70 f   ssleay32:t1_enc.obj
 0001:00126e50       _tls1_generate_master_secret 00527e50 f   ssleay32:t1_enc.obj
 0001:00126ec0       _tls1_alert_code           00527ec0 f   ssleay32:t1_enc.obj
 0001:001270a0       _ssl_add_clienthello_renegotiate_ext 005280a0 f   ssleay32:t1_reneg.obj
 0001:00127130       _ssl_parse_serverhello_renegotiate_ext 00528130 f   ssleay32:t1_reneg.obj
 0001:001272d0       _SSL_use_certificate       005282d0 f   ssleay32:ssl_rsa.obj
 0001:00127430       _SSL_use_PrivateKey        00528430 f   ssleay32:ssl_rsa.obj
 0001:001275d0       _ssl2_read                 005285d0 f   ssleay32:s2_pkt.obj
 0001:00127950       _ssl2_peek                 00528950 f   ssleay32:s2_pkt.obj
 0001:00127b40       _ssl2_write                00528b40 f   ssleay32:s2_pkt.obj
 0001:00127fa0       _ssl2_part_read            00528fa0 f   ssleay32:s2_pkt.obj
 0001:00128060       _ssl2_do_write             00529060 f   ssleay32:s2_pkt.obj
 0001:001280d0       _ssl2_enc_init             005290d0 f   ssleay32:s2_enc.obj
 0001:001282d0       _ssl2_enc                  005292d0 f   ssleay32:s2_enc.obj
 0001:00128330       _ssl2_mac                  00529330 f   ssleay32:s2_enc.obj
 0001:00128400       _SSLeay_version            00529400 f   libeay32:cversion.obj
 0001:001284a0       _ERR_get_implementation    005294a0 f   libeay32:err.obj
 0001:00128c00       _ERR_load_ERR_strings      00529c00 f   libeay32:err.obj
 0001:00128df0       _ERR_load_strings          00529df0 f   libeay32:err.obj
 0001:00129040       _ERR_unload_strings        0052a040 f   libeay32:err.obj
 0001:00129080       _ERR_free_strings          0052a080 f   libeay32:err.obj
 0001:001290d0       _ERR_put_error             0052a0d0 f   libeay32:err.obj
 0001:001291d0       _ERR_clear_error           0052a1d0 f   libeay32:err.obj
 0001:00129250       _ERR_get_error             0052a250 f   libeay32:err.obj
 0001:00129270       _ERR_get_error_line_data   0052a270 f   libeay32:err.obj
 0001:001292a0       _ERR_peek_error            0052a2a0 f   libeay32:err.obj
 0001:001292c0       _ERR_peek_last_error       0052a2c0 f   libeay32:err.obj
 0001:00129430       _ERR_error_string_n        0052a430 f   libeay32:err.obj
 0001:001296c0       _ERR_error_string          0052a6c0 f   libeay32:err.obj
 0001:001296f0       _ERR_func_error_string     0052a6f0 f   libeay32:err.obj
 0001:00129780       _ERR_remove_state          0052a780 f   libeay32:err.obj
 0001:00129800       _ERR_get_state             0052a800 f   libeay32:err.obj
 0001:001299a0       _ERR_get_next_error_library 0052a9a0 f   libeay32:err.obj
 0001:001299f0       _ERR_add_error_data        0052a9f0 f   libeay32:err.obj
 0001:00129b10       _sk_set_cmp_func           0052ab10 f   libeay32:stack.obj
 0001:00129b30       _sk_dup                    0052ab30 f   libeay32:stack.obj
 0001:00129c10       _sk_new_null               0052ac10 f   libeay32:stack.obj
 0001:00129c90       _sk_new                    0052ac90 f   libeay32:stack.obj
 0001:00129d10       _sk_insert                 0052ad10 f   libeay32:stack.obj
 0001:00129dc0       _sk_delete_ptr             0052adc0 f   libeay32:stack.obj
 0001:00129e20       _sk_delete                 0052ae20 f   libeay32:stack.obj
 0001:00129e70       _sk_find                   0052ae70 f   libeay32:stack.obj
 0001:00129f10       _sk_push                   0052af10 f   libeay32:stack.obj
 0001:00129f30       _sk_pop                    0052af30 f   libeay32:stack.obj
 0001:00129f60       _sk_zero                   0052af60 f   libeay32:stack.obj
 0001:00129f80       _sk_pop_free               0052af80 f   libeay32:stack.obj
 0001:00129fd0       _sk_free                   0052afd0 f   libeay32:stack.obj
 0001:0012a000       _sk_num                    0052b000 f   libeay32:stack.obj
 0001:0012a020       _sk_value                  0052b020 f   libeay32:stack.obj
 0001:0012a050       _sk_set                    0052b050 f   libeay32:stack.obj
 0001:0012a080       _sk_sort                   0052b080 f   libeay32:stack.obj
 0001:0012a0c0       _sk_is_sorted              0052b0c0 f   libeay32:stack.obj
 0001:0012a0e0       _CRYPTO_get_ex_data_implementation 0052b0e0 f   libeay32:ex_data.obj
 0001:0012a9c0       _CRYPTO_cleanup_all_ex_data 0052b9c0 f   libeay32:ex_data.obj
 0001:0012aa10       _CRYPTO_get_ex_new_index   0052ba10 f   libeay32:ex_data.obj
 0001:0012aa80       _CRYPTO_new_ex_data        0052ba80 f   libeay32:ex_data.obj
 0001:0012aaf0       _CRYPTO_free_ex_data       0052baf0 f   libeay32:ex_data.obj
 0001:0012ab60       _CRYPTO_set_ex_data        0052bb60 f   libeay32:ex_data.obj
 0001:0012abf0       _CRYPTO_get_ex_data        0052bbf0 f   libeay32:ex_data.obj
 0001:0012ac30       _EVP_add_cipher            0052bc30 f   libeay32:names.obj
 0001:0012ac80       _EVP_add_digest            0052bc80 f   libeay32:names.obj
 0001:0012ad30       _EVP_get_cipherbyname      0052bd30 f   libeay32:names.obj
 0001:0012ad50       _EVP_get_digestbyname      0052bd50 f   libeay32:names.obj
 0001:0012ad70       _EVP_cleanup               0052bd70 f   libeay32:names.obj
 0001:0012adb0       _ENGINE_new                0052bdb0 f   libeay32:eng_lib.obj
 0001:0012ae10       _engine_set_all_null       0052be10 f   libeay32:eng_lib.obj
 0001:0012ae50       _engine_free_util          0052be50 f   libeay32:eng_lib.obj
 0001:0012aee0       _ENGINE_free               0052bee0 f   libeay32:eng_lib.obj
 0001:0012af60       _engine_cleanup_add_first  0052bf60 f   libeay32:eng_lib.obj
 0001:0012afc0       _engine_cleanup_add_last   0052bfc0 f   libeay32:eng_lib.obj
 0001:0012b020       _ENGINE_cleanup            0052c020 f   libeay32:eng_lib.obj
 0001:0012b070       _ENGINE_get_ex_new_index   0052c070 f   libeay32:eng_lib.obj
 0001:0012b0a0       _ENGINE_set_ex_data        0052c0a0 f   libeay32:eng_lib.obj
 0001:0012b0c0       _ENGINE_get_ex_data        0052c0c0 f   libeay32:eng_lib.obj
 0001:0012b0e0       _ENGINE_set_id             0052c0e0 f   libeay32:eng_lib.obj
 0001:0012b120       _ENGINE_set_name           0052c120 f   libeay32:eng_lib.obj
 0001:0012b160       _ENGINE_set_destroy_function 0052c160 f   libeay32:eng_lib.obj
 0001:0012b180       _ENGINE_set_init_function  0052c180 f   libeay32:eng_lib.obj
 0001:0012b1a0       _ENGINE_set_finish_function 0052c1a0 f   libeay32:eng_lib.obj
 0001:0012b1c0       _ENGINE_set_ctrl_function  0052c1c0 f   libeay32:eng_lib.obj
 0001:0012b1e0       _ENGINE_set_flags          0052c1e0 f   libeay32:eng_lib.obj
 0001:0012b200       _ENGINE_set_cmd_defns      0052c200 f   libeay32:eng_lib.obj
 0001:0012b220       _ENGINE_get_static_state   0052c220 f   libeay32:eng_lib.obj
 0001:0012b230       _CONF_modules_unload       0052c230 f   libeay32:conf_mod.obj
 0001:0012b350       _CONF_modules_free         0052c350 f   libeay32:conf_mod.obj
 0001:0012b4d0       _CONF_parse_list           0052c4d0 f   libeay32:conf_mod.obj
 0001:0012b5c0       _X509_verify_cert_error_string 0052c5c0 f   libeay32:x509_txt.obj
 0001:0012b850       _RAND_set_rand_method      0052c850 f   libeay32:rand_lib.obj
 0001:0012b890       _RAND_seed                 0052c890 f   libeay32:rand_lib.obj
 0001:0012b8f0       _RAND_add                  0052c8f0 f   libeay32:rand_lib.obj
 0001:0012b960       _RAND_bytes                0052c960 f   libeay32:rand_lib.obj
 0001:0012b9d0       _RAND_pseudo_bytes         0052c9d0 f   libeay32:rand_lib.obj
 0001:0012ba40       _RAND_status               0052ca40 f   libeay32:rand_lib.obj
 0001:0012baa0       _ENGINE_load_builtin_engines 0052caa0 f   libeay32:eng_all.obj
 0001:0012bae0       _ERR_load_crypto_strings   0052cae0 f   libeay32:err_all.obj
 0001:0012bb80       _X509_CINF_it              0052cb80 f   libeay32:x_x509.obj
 0001:0012bca0       _X509_it                   0052cca0 f   libeay32:x_x509.obj
 0001:0012bcb0       _d2i_X509                  0052ccb0 f   libeay32:x_x509.obj
 0001:0012bcd0       _i2d_X509                  0052ccd0 f   libeay32:x_x509.obj
 0001:0012bcf0       _X509_free                 0052ccf0 f   libeay32:x_x509.obj
 0001:0012bd10       _X509_get_ex_new_index     0052cd10 f   libeay32:x_x509.obj
 0001:0012bd40       _X509_set_ex_data          0052cd40 f   libeay32:x_x509.obj
 0001:0012bd60       _X509_get_ex_data          0052cd60 f   libeay32:x_x509.obj
 0001:0012bd80       _d2i_X509_AUX              0052cd80 f   libeay32:x_x509.obj
 0001:0012bdf0       _X509_subject_name_cmp     0052cdf0 f   libeay32:x509_cmp.obj
 0001:0012be80       _X509_CRL_cmp              0052ce80 f   libeay32:x509_cmp.obj
 0001:0012bf10       _X509_CRL_match            0052cf10 f   libeay32:x509_cmp.obj
 0001:0012bf40       _X509_get_issuer_name      0052cf40 f   libeay32:x509_cmp.obj
 0001:0012bf50       _X509_get_subject_name     0052cf50 f   libeay32:x509_cmp.obj
 0001:0012bf60       _X509_get_serialNumber     0052cf60 f   libeay32:x509_cmp.obj
 0001:0012bf60       _EVP_CIPHER_CTX_block_size 0052cf60 f   libeay32:x509_cmp.obj
 0001:0012bf70       _X509_cmp                  0052cf70 f   libeay32:x509_cmp.obj
 0001:0012bfb0       _X509_NAME_cmp             0052cfb0 f   libeay32:x509_cmp.obj
 0001:0012c030       _X509_NAME_hash            0052d030 f   libeay32:x509_cmp.obj
 0001:0012c0b0       _X509_get_pubkey           0052d0b0 f   libeay32:x509_cmp.obj
 0001:0012c0e0       _X509_check_private_key    0052d0e0 f   libeay32:x509_cmp.obj
 0001:0012c1e0       _CRYPTO_get_mem_functions  0052d1e0 f   libeay32:mem.obj
 0001:0012c240       _CRYPTO_free_locked        0052d240 f   libeay32:mem.obj
 0001:0012c280       _CRYPTO_malloc             0052d280 f   libeay32:mem.obj
 0001:0012c2f0       _CRYPTO_realloc            0052d2f0 f   libeay32:mem.obj
 0001:0012c3c0       _CRYPTO_realloc_clean      0052d3c0 f   libeay32:mem.obj
 0001:0012c4c0       _CRYPTO_free               0052d4c0 f   libeay32:mem.obj
 0001:0012c500       _X509_NAME_oneline         0052d500 f   libeay32:x509_obj.obj
 0001:0012c800       _MD5_Update                0052d800 f   libeay32:md5_dgst.obj
 0001:0012c930       _MD5_Final                 0052d930 f   libeay32:md5_dgst.obj
 0001:0012ca70       _MD5_Init                  0052da70 f   libeay32:md5_dgst.obj
 0001:0012cab0       _SHA1_Update               0052dab0 f   libeay32:sha1dgst.obj
 0001:0012cbe0       _SHA1_Final                0052dbe0 f   libeay32:sha1dgst.obj
 0001:0012cd40       _SHA1_Init                 0052dd40 f   libeay32:sha1dgst.obj
 0001:0012cd80       _SHA224_Init               0052dd80 f   libeay32:sha256.obj
 0001:0012cde0       _SHA256_Init               0052dde0 f   libeay32:sha256.obj
 0001:0012ce40       _SHA224_Update             0052de40 f   libeay32:sha256.obj
 0001:0012ce60       _SHA224_Final              0052de60 f   libeay32:sha256.obj
 0001:0012ce80       _SHA256_Update             0052de80 f   libeay32:sha256.obj
 0001:0012cfb0       _SHA256_Final              0052dfb0 f   libeay32:sha256.obj
 0001:0012d140       _SHA384_Init               0052e140 f   libeay32:sha512.obj
 0001:0012d1e0       _SHA512_Init               0052e1e0 f   libeay32:sha512.obj
 0001:0012d280       _SHA512_Final              0052e280 f   libeay32:sha512.obj
 0001:0012d550       _SHA384_Final              0052e550 f   libeay32:sha512.obj
 0001:0012d570       _SHA512_Update             0052e570 f   libeay32:sha512.obj
 0001:0012d6b0       _SHA384_Update             0052e6b0 f   libeay32:sha512.obj
 0001:0012d6d0       _EVP_sha1                  0052e6d0 f   libeay32:m_sha1.obj
 0001:0012d760       _EVP_sha256                0052e760 f   libeay32:m_sha1.obj
 0001:0012d7f0       _HMAC_Init_ex              0052e7f0 f   libeay32:hmac.obj
 0001:0012d9d0       _HMAC_Update               0052e9d0 f   libeay32:hmac.obj
 0001:0012d9f0       _HMAC_Final                0052e9f0 f   libeay32:hmac.obj
 0001:0012da70       _HMAC_CTX_init             0052ea70 f   libeay32:hmac.obj
 0001:0012daa0       _HMAC_CTX_copy             0052eaa0 f   libeay32:hmac.obj
 0001:0012db20       _HMAC_CTX_cleanup          0052eb20 f   libeay32:hmac.obj
 0001:0012db60       _HMAC                      0052eb60 f   libeay32:hmac.obj
 0001:0012dd30       _EVP_md5                   0052ed30 f   libeay32:m_md5.obj
 0001:0012dd40       _engine_unlocked_init      0052ed40 f   libeay32:eng_init.obj
 0001:0012dd80       _engine_unlocked_finish    0052ed80 f   libeay32:eng_init.obj
 0001:0012de20       _ENGINE_init               0052ee20 f   libeay32:eng_init.obj
 0001:0012deb0       _ENGINE_finish             0052eeb0 f   libeay32:eng_init.obj
 0001:0012dfa0       _EVP_PKEY_asn1_find        0052efa0 f   libeay32:ameth_lib.obj
 0001:0012e080       _EVP_PKEY_asn1_find_str    0052f080 f   libeay32:ameth_lib.obj
 0001:0012e190       _EVP_PKEY_asn1_get0_info   0052f190 f   libeay32:ameth_lib.obj
 0001:0012e1e0       _EVP_PKEY_asn1_new         0052f1e0 f   libeay32:ameth_lib.obj
 0001:0012e2d0       _EVP_PKEY_asn1_free        0052f2d0 f   libeay32:ameth_lib.obj
 0001:0012e310       _EVP_PKEY_asn1_set_public  0052f310 f   libeay32:ameth_lib.obj
 0001:0012e340       _EVP_PKEY_asn1_set_private 0052f340 f   libeay32:ameth_lib.obj
 0001:0012e360       _EVP_PKEY_asn1_set_param   0052f360 f   libeay32:ameth_lib.obj
 0001:0012e390       _EVP_PKEY_asn1_set_free    0052f390 f   libeay32:ameth_lib.obj
 0001:0012e3a0       _EVP_PKEY_asn1_set_ctrl    0052f3a0 f   libeay32:ameth_lib.obj
 0001:0012e3b0       _CRYPTO_get_new_dynlockid  0052f3b0 f   libeay32:cryptlib.obj
 0001:0012e570       _CRYPTO_destroy_dynlockid  0052f570 f   libeay32:cryptlib.obj
 0001:0012e670       _CRYPTO_get_dynlock_create_callback 0052f670 f   libeay32:cryptlib.obj
 0001:0012e680       _CRYPTO_get_dynlock_lock_callback 0052f680 f   libeay32:cryptlib.obj
 0001:0012e690       _CRYPTO_get_dynlock_destroy_callback 0052f690 f   libeay32:cryptlib.obj
 0001:0012e6a0       _CRYPTO_get_locking_callback 0052f6a0 f   libeay32:cryptlib.obj
 0001:0012e6b0       _CRYPTO_get_add_lock_callback 0052f6b0 f   libeay32:cryptlib.obj
 0001:0012e6c0       _CRYPTO_THREADID_current   0052f6c0 f   libeay32:cryptlib.obj
 0001:0012e710       _CRYPTO_THREADID_cmp       0052f710 f   libeay32:cryptlib.obj
 0001:0012e730       _CRYPTO_THREADID_cpy       0052f730 f   libeay32:cryptlib.obj
 0001:0012e750       _EVP_CIPHER_block_size     0052f750 f   libeay32:cryptlib.obj
 0001:0012e750       _CRYPTO_THREADID_hash      0052f750 f   libeay32:cryptlib.obj
 0001:0012e750       _EC_GROUP_get0_generator   0052f750 f   libeay32:cryptlib.obj
 0001:0012e760       _CRYPTO_lock               0052f760 f   libeay32:cryptlib.obj
 0001:0012e860       _CRYPTO_add_lock           0052f860 f   libeay32:cryptlib.obj
 0001:0012ea70       _OPENSSL_cpuid_setup       0052fa70 f   libeay32:cryptlib.obj
 0001:0012eac0       _OPENSSL_isservice         0052fac0 f   libeay32:cryptlib.obj
 0001:0012eb80       _OPENSSL_showfatal         0052fb80 f   libeay32:cryptlib.obj
 0001:0012ed00       _OpenSSLDie                0052fd00 f   libeay32:cryptlib.obj
 0001:0012ed30       _EVP_CIPHER_param_to_asn1  0052fd30 f   libeay32:evp_lib.obj
 0001:0012ed50       _EVP_CIPHER_asn1_to_param  0052fd50 f   libeay32:evp_lib.obj
 0001:0012ed70       _EVP_CIPHER_get_asn1_iv    0052fd70 f   libeay32:evp_lib.obj
 0001:0012ede0       _EVP_CIPHER_set_asn1_iv    0052fde0 f   libeay32:evp_lib.obj
 0001:0012ee30       _EVP_CIPHER_type           0052fe30 f   libeay32:evp_lib.obj
 0001:0012ef60       _EVP_Cipher                0052ff60 f   libeay32:evp_lib.obj
 0001:0012ef80       _EVP_CIPHER_CTX_flags      0052ff80 f   libeay32:evp_lib.obj
 0001:0012ef90       _EVP_CIPHER_CTX_iv_length  0052ff90 f   libeay32:evp_lib.obj
 0001:0012efa0       _EVP_CIPHER_CTX_key_length 0052ffa0 f   libeay32:evp_lib.obj
 0001:0012efb0       _EVP_MD_block_size         0052ffb0 f   libeay32:evp_lib.obj
 0001:0012efb0       _EC_GROUP_get_seed_len     0052ffb0 f   libeay32:evp_lib.obj
 0001:0012efc0       _EVP_MD_size               0052ffc0 f   libeay32:evp_lib.obj
 0001:0012f000       _EVP_MD_CTX_set_flags      00530000 f   libeay32:evp_lib.obj
 0001:0012f010       _EVP_MD_CTX_clear_flags    00530010 f   libeay32:evp_lib.obj
 0001:0012f020       _EVP_MD_CTX_test_flags     00530020 f   libeay32:evp_lib.obj
 0001:0012f030       _EVP_enc_null              00530030 f   libeay32:e_null.obj
 0001:0012f280       _COMP_zlib                 00530280 f   libeay32:c_zlib.obj
 0001:0012f330       _BIO_f_zlib                00530330 f   libeay32:c_zlib.obj
 0001:0012fa10       _CRYPTO_mem_ctrl           00530a10 f   libeay32:mem_dbg.obj
 0001:0012fb80       _CRYPTO_push_info_         00530b80 f   libeay32:mem_dbg.obj
 0001:0012fd20       _CRYPTO_pop_info           00530d20 f   libeay32:mem_dbg.obj
 0001:0012fe40       _BIO_printf                00530e40 f   libeay32:b_print.obj
 0001:00130c10       _BIO_vprintf               00531c10 f   libeay32:b_print.obj
 0001:00130cc0       _BIO_snprintf              00531cc0 f   libeay32:b_print.obj
 0001:00130d20       _EVP_MD_CTX_init           00531d20 f   libeay32:digest.obj
 0001:00130d40       _EVP_MD_CTX_create         00531d40 f   libeay32:digest.obj
 0001:00130d70       _EVP_DigestInit            00531d70 f   libeay32:digest.obj
 0001:00130da0       _EVP_DigestInit_ex         00531da0 f   libeay32:digest.obj
 0001:00130f40       _EVP_DigestUpdate          00531f40 f   libeay32:digest.obj
 0001:00130f60       _EVP_DigestFinal           00531f60 f   libeay32:digest.obj
 0001:00131070       _EVP_DigestFinal_ex        00532070 f   libeay32:digest.obj
 0001:001310f0       _EVP_MD_CTX_copy           005320f0 f   libeay32:digest.obj
 0001:00131120       _EVP_MD_CTX_copy_ex        00532120 f   libeay32:digest.obj
 0001:001313a0       _EVP_Digest                005323a0 f   libeay32:digest.obj
 0001:00131520       _EVP_MD_CTX_destroy        00532520 f   libeay32:digest.obj
 0001:001315d0       _EVP_MD_CTX_cleanup        005325d0 f   libeay32:digest.obj
 0001:00131670       _COMP_CTX_new              00532670 f   libeay32:comp_lib.obj
 0001:001316d0       _COMP_CTX_free             005326d0 f   libeay32:comp_lib.obj
 0001:00131700       _COMP_compress_block       00532700 f   libeay32:comp_lib.obj
 0001:00131750       _COMP_expand_block         00532750 f   libeay32:comp_lib.obj
 0001:001317a0       _EVP_CIPHER_CTX_init       005327a0 f   libeay32:evp_enc.obj
 0001:001317c0       _EVP_CipherInit_ex         005327c0 f   libeay32:evp_enc.obj
 0001:00131b10       _EVP_CipherUpdate          00532b10 f   libeay32:evp_enc.obj
 0001:00131b50       _EVP_CipherFinal_ex        00532b50 f   libeay32:evp_enc.obj
 0001:00131b80       _EVP_EncryptInit_ex        00532b80 f   libeay32:evp_enc.obj
 0001:00131bb0       _EVP_DecryptInit_ex        00532bb0 f   libeay32:evp_enc.obj
 0001:00131be0       _EVP_EncryptUpdate         00532be0 f   libeay32:evp_enc.obj
 0001:00131d90       _EVP_EncryptFinal_ex       00532d90 f   libeay32:evp_enc.obj
 0001:00131e60       _EVP_DecryptUpdate         00532e60 f   libeay32:evp_enc.obj
 0001:00131f90       _EVP_DecryptFinal_ex       00532f90 f   libeay32:evp_enc.obj
 0001:001320c0       _EVP_CIPHER_CTX_cleanup    005330c0 f   libeay32:evp_enc.obj
 0001:00132130       _EVP_CIPHER_CTX_set_key_length 00533130 f   libeay32:evp_enc.obj
 0001:00132200       _EVP_CIPHER_CTX_ctrl       00533200 f   libeay32:evp_enc.obj
 0001:00132290       _EVP_CIPHER_CTX_rand_key   00533290 f   libeay32:evp_enc.obj
 0001:00132340       _BUF_MEM_new               00533340 f   libeay32:buffer.obj
 0001:00132380       _BUF_MEM_free              00533380 f   libeay32:buffer.obj
 0001:001323c0       _BUF_MEM_grow              005333c0 f   libeay32:buffer.obj
 0001:00132470       _BUF_MEM_grow_clean        00533470 f   libeay32:buffer.obj
 0001:00132540       _BUF_strdup                00533540 f   libeay32:buffer.obj
 0001:001325c0       _BUF_memdup                005335c0 f   libeay32:buffer.obj
 0001:00132620       _BUF_strlcpy               00533620 f   libeay32:buffer.obj
 0001:00132660       _BUF_strlcat               00533660 f   libeay32:buffer.obj
 0001:001326c0       _X509_VERIFY_PARAM_new     005336c0 f   libeay32:x509_vpm.obj
 0001:00132720       _X509_VERIFY_PARAM_free    00533720 f   libeay32:x509_vpm.obj
 0001:00132770       _X509_VERIFY_PARAM_inherit 00533770 f   libeay32:x509_vpm.obj
 0001:001328f0       _X509_VERIFY_PARAM_set1    005338f0 f   libeay32:x509_vpm.obj
 0001:00132920       _X509_VERIFY_PARAM_lookup  00533920 f   libeay32:x509_vpm.obj
 0001:001329d0       _lh_new                    005339d0 f   libeay32:lhash.obj
 0001:00132aa0       _lh_free                   00533aa0 f   libeay32:lhash.obj
 0001:00132af0       _lh_insert                 00533af0 f   libeay32:lhash.obj
 0001:00132c70       _lh_delete                 00533c70 f   libeay32:lhash.obj
 0001:00132d90       _lh_retrieve               00533d90 f   libeay32:lhash.obj
 0001:00132dd0       _lh_doall                  00533dd0 f   libeay32:lhash.obj
 0001:00132e10       _lh_doall_arg              00533e10 f   libeay32:lhash.obj
 0001:00132f10       _lh_strhash                00533f10 f   libeay32:lhash.obj
 0001:00132f80       _lh_num_items              00533f80 f   libeay32:lhash.obj
 0001:00132fa0       _X509_NAME_ENTRY_it        00533fa0 f   libeay32:x_name.obj
 0001:00132fb0       _X509_NAME_ENTRY_new       00533fb0 f   libeay32:x_name.obj
 0001:00132fc0       _X509_NAME_ENTRY_free      00533fc0 f   libeay32:x_name.obj
 0001:00132fe0       _X509_NAME_ENTRY_dup       00533fe0 f   libeay32:x_name.obj
 0001:00133000       _X509_NAME_ENTRIES_it      00534000 f   libeay32:x_name.obj
 0001:00133010       _X509_NAME_it              00534010 f   libeay32:x_name.obj
 0001:00133020       _d2i_X509_NAME             00534020 f   libeay32:x_name.obj
 0001:00133040       _i2d_X509_NAME             00534040 f   libeay32:x_name.obj
 0001:00133060       _X509_NAME_new             00534060 f   libeay32:x_name.obj
 0001:00133070       _X509_NAME_free            00534070 f   libeay32:x_name.obj
 0001:00133090       _X509_NAME_dup             00534090 f   libeay32:x_name.obj
 0001:001338f0       _OCSP_SIGNATURE_it         005348f0 f   libeay32:ocsp_asn.obj
 0001:00133900       _OCSP_CERTID_it            00534900 f   libeay32:ocsp_asn.obj
 0001:00133910       _OCSP_ONEREQ_it            00534910 f   libeay32:ocsp_asn.obj
 0001:00133920       _OCSP_REQINFO_it           00534920 f   libeay32:ocsp_asn.obj
 0001:00133930       _OCSP_RESPBYTES_it         00534930 f   libeay32:ocsp_asn.obj
 0001:00133940       _OCSP_RESPID_it            00534940 f   libeay32:ocsp_asn.obj
 0001:00133950       _i2d_OCSP_RESPID           00534950 f   libeay32:ocsp_asn.obj
 0001:00133970       _OCSP_RESPID_free          00534970 f   libeay32:ocsp_asn.obj
 0001:00133990       _OCSP_REVOKEDINFO_it       00534990 f   libeay32:ocsp_asn.obj
 0001:001339a0       _OCSP_CERTSTATUS_it        005349a0 f   libeay32:ocsp_asn.obj
 0001:001339b0       _OCSP_SINGLERESP_it        005349b0 f   libeay32:ocsp_asn.obj
 0001:001339c0       _OCSP_RESPDATA_it          005349c0 f   libeay32:ocsp_asn.obj
 0001:001339d0       _OCSP_CRLID_it             005349d0 f   libeay32:ocsp_asn.obj
 0001:001339e0       _OCSP_SERVICELOC_it        005349e0 f   libeay32:ocsp_asn.obj
 0001:001339f0       _X509_EXTENSION_it         005349f0 f   libeay32:x_exten.obj
 0001:00133a00       _X509_EXTENSION_free       00534a00 f   libeay32:x_exten.obj
 0001:00133a20       _i2d_X509_EXTENSIONS       00534a20 f   libeay32:x_exten.obj
 0001:00133a40       _BIO_new                   00534a40 f   libeay32:bio_lib.obj
 0001:00133af0       _BIO_free                  00534af0 f   libeay32:bio_lib.obj
 0001:00133b70       _BIO_clear_flags           00534b70 f   libeay32:bio_lib.obj
 0001:00133b80       _BIO_test_flags            00534b80 f   libeay32:bio_lib.obj
 0001:00133b90       _BIO_set_flags             00534b90 f   libeay32:bio_lib.obj
 0001:00133ba0       _BIO_read                  00534ba0 f   libeay32:bio_lib.obj
 0001:00133c50       _BIO_write                 00534c50 f   libeay32:bio_lib.obj
 0001:00133d00       _BIO_puts                  00534d00 f   libeay32:bio_lib.obj
 0001:00133da0       _BIO_gets                  00534da0 f   libeay32:bio_lib.obj
 0001:00133e40       _BIO_indent                00534e40 f   libeay32:bio_lib.obj
 0001:00133e90       _BIO_int_ctrl              00534e90 f   libeay32:bio_lib.obj
 0001:00133f30       _BIO_ctrl                  00534f30 f   libeay32:bio_lib.obj
 0001:00133fd0       _BIO_callback_ctrl         00534fd0 f   libeay32:bio_lib.obj
 0001:00134060       _BIO_push                  00535060 f   libeay32:bio_lib.obj
 0001:00134110       _BIO_pop                   00535110 f   libeay32:bio_lib.obj
 0001:001341c0       _BIO_find_type             005351c0 f   libeay32:bio_lib.obj
 0001:00134200       _BIO_next                  00535200 f   libeay32:bio_lib.obj
 0001:00134220       _BIO_free_all              00535220 f   libeay32:bio_lib.obj
 0001:001342b0       _BIO_copy_next_retry       005352b0 f   libeay32:bio_lib.obj
 0001:001342e0       _BIO_s_socket              005352e0 f   libeay32:bss_sock.obj
 0001:00134610       _X509_LOOKUP_ctrl          00535610 f   libeay32:x509_lu.obj
 0001:00134650       _X509_STORE_new            00535650 f   libeay32:x509_lu.obj
 0001:00134750       _X509_STORE_free           00535750 f   libeay32:x509_lu.obj
 0001:00134860       _X509_STORE_add_lookup     00535860 f   libeay32:x509_lu.obj
 0001:00134920       _X509_STORE_get_by_subject 00535920 f   libeay32:x509_lu.obj
 0001:00134a50       _X509_STORE_add_cert       00535a50 f   libeay32:x509_lu.obj
 0001:00134b80       _X509_STORE_add_crl        00535b80 f   libeay32:x509_lu.obj
 0001:00134da0       _X509_STORE_get1_certs     00535da0 f   libeay32:x509_lu.obj
 0001:00134f50       _X509_STORE_get1_crls      00535f50 f   libeay32:x509_lu.obj
 0001:001350f0       _X509_OBJECT_retrieve_match 005360f0 f   libeay32:x509_lu.obj
 0001:001351f0       _X509_STORE_CTX_get1_issuer 005361f0 f   libeay32:x509_lu.obj
 0001:001353f0       _check_defer               005363f0 f   libeay32:obj_dat.obj
 0001:00135420       _OBJ_cleanup               00536420 f   libeay32:obj_dat.obj
 0001:001354f0       _OBJ_nid2obj               005364f0 f   libeay32:obj_dat.obj
 0001:00135590       _OBJ_nid2sn                00536590 f   libeay32:obj_dat.obj
 0001:00135630       _OBJ_nid2ln                00536630 f   libeay32:obj_dat.obj
 0001:001356d0       _OBJ_obj2nid               005366d0 f   libeay32:obj_dat.obj
 0001:001357a0       _OBJ_txt2obj               005367a0 f   libeay32:obj_dat.obj
 0001:00135a60       _OBJ_obj2txt               00536a60 f   libeay32:obj_dat.obj
 0001:00135e80       _OBJ_txt2nid               00536e80 f   libeay32:obj_dat.obj
 0001:00135f50       _OBJ_ln2nid                00536f50 f   libeay32:obj_dat.obj
 0001:00135fe0       _OBJ_sn2nid                00536fe0 f   libeay32:obj_dat.obj
 0001:00136070       _OBJ_bsearch_              00537070 f   libeay32:obj_dat.obj
 0001:001360a0       _OBJ_bsearch_ex_           005370a0 f   libeay32:obj_dat.obj
 0001:00136150       _EVP_PKEY_bits             00537150 f   libeay32:p_lib.obj
 0001:00136180       _EVP_PKEY_size             00537180 f   libeay32:p_lib.obj
 0001:001361b0       _EVP_PKEY_copy_parameters  005371b0 f   libeay32:p_lib.obj
 0001:00136230       _EVP_PKEY_missing_parameters 00537230 f   libeay32:p_lib.obj
 0001:00136250       _EVP_PKEY_cmp_parameters   00537250 f   libeay32:p_lib.obj
 0001:00136290       _EVP_PKEY_cmp              00537290 f   libeay32:p_lib.obj
 0001:001362e0       _EVP_PKEY_new              005372e0 f   libeay32:p_lib.obj
 0001:00136340       _EVP_PKEY_set_type         00537340 f   libeay32:p_lib.obj
 0001:00136470       _EVP_PKEY_assign           00537470 f   libeay32:p_lib.obj
 0001:001364b0       _EVP_PKEY_get0             005374b0 f   libeay32:p_lib.obj
 0001:001364c0       _EVP_PKEY_type             005374c0 f   libeay32:p_lib.obj
 0001:00136500       _EVP_PKEY_base_id          00537500 f   libeay32:p_lib.obj
 0001:00136540       _EVP_PKEY_free             00537540 f   libeay32:p_lib.obj
 0001:001365c0       _EVP_PKEY_print_public     005375c0 f   libeay32:p_lib.obj
 0001:00136630       _EVP_PKEY_get_default_digest_nid 00537630 f   libeay32:p_lib.obj
 0001:00136660       _X509_check_purpose        00537660 f   libeay32:v3_purp.obj
 0001:00136cf0       _X509_check_ca             00537cf0 f   libeay32:v3_purp.obj
 0001:00137290       _X509_check_issued         00538290 f   libeay32:v3_purp.obj
 0001:00137320       _X509_check_akid           00538320 f   libeay32:v3_purp.obj
 0001:001373f0       _DH_new                    005383f0 f   libeay32:dh_lib.obj
 0001:00137400       _DH_new_method             00538400 f   libeay32:dh_lib.obj
 0001:00137560       _DH_free                   00538560 f   libeay32:dh_lib.obj
 0001:00137650       _DH_size                   00538650 f   libeay32:dh_lib.obj
 0001:00137670       _RSA_new                   00538670 f   libeay32:rsa_lib.obj
 0001:00137680       _RSA_new_method            00538680 f   libeay32:rsa_lib.obj
 0001:00137820       _RSA_free                  00538820 f   libeay32:rsa_lib.obj
 0001:00137940       _RSA_up_ref                00538940 f   libeay32:rsa_lib.obj
 0001:00137970       _RSA_get_ex_new_index      00538970 f   libeay32:rsa_lib.obj
 0001:001379a0       _RSA_set_ex_data           005389a0 f   libeay32:rsa_lib.obj
 0001:001379c0       _RSA_get_ex_data           005389c0 f   libeay32:rsa_lib.obj
 0001:001379e0       _RSA_size                  005389e0 f   libeay32:rsa_lib.obj
 0001:00137a00       _RSA_public_encrypt        00538a00 f   libeay32:rsa_lib.obj
 0001:00137a30       _RSA_private_encrypt       00538a30 f   libeay32:rsa_lib.obj
 0001:00137a60       _RSA_private_decrypt       00538a60 f   libeay32:rsa_lib.obj
 0001:00137a90       _RSA_public_decrypt        00538a90 f   libeay32:rsa_lib.obj
 0001:00137ac0       _RSA_flags                 00538ac0 f   libeay32:rsa_lib.obj
 0001:00137ae0       _RSA_setup_blinding        00538ae0 f   libeay32:rsa_lib.obj
 0001:00137d20       _BIO_f_buffer              00538d20 f   libeay32:bf_buff.obj
 0001:001386a0       _X509_STORE_load_locations 005396a0 f   libeay32:x509_d2.obj
 0001:001387a0       _EVP_ecdsa                 005397a0 f   libeay32:m_ecdsa.obj
 0001:001387b0       _EVP_dss1                  005397b0 f   libeay32:m_dss1.obj
 0001:001388b0       _OBJ_NAME_get              005398b0 f   libeay32:o_names.obj
 0001:00138990       _OBJ_NAME_add              00539990 f   libeay32:o_names.obj
 0001:00138a80       _OBJ_NAME_cleanup          00539a80 f   libeay32:o_names.obj
 0001:00138dc0       _EVP_camellia_128_cbc      00539dc0 f   libeay32:e_camellia.obj
 0001:00138f40       _EVP_camellia_256_cbc      00539f40 f   libeay32:e_camellia.obj
 0001:001391f0       _EVP_aes_128_cbc           0053a1f0 f   libeay32:e_aes.obj
 0001:001392e0       _EVP_aes_192_cbc           0053a2e0 f   libeay32:e_aes.obj
 0001:00139410       _EVP_aes_256_cbc           0053a410 f   libeay32:e_aes.obj
 0001:00139780       _EVP_rc2_cbc               0053a780 f   libeay32:e_rc2.obj
 0001:001399b0       _EVP_rc4                   0053a9b0 f   libeay32:e_rc4.obj
 0001:00139c10       _EVP_idea_cbc              0053ac10 f   libeay32:e_idea.obj
 0001:0013a080       _EVP_des_ede3_cbc          0053b080 f   libeay32:e_des3.obj
 0001:0013a570       _EVP_des_cbc               0053b570 f   libeay32:e_des.obj
 0001:0013a600       _OPENSSL_ia32_cpuid        0053b600     libeay32:x86cpuid.obj
 0001:0013a750       _OPENSSL_rdtsc             0053b750     libeay32:x86cpuid.obj
 0001:0013a770       _OPENSSL_instrument_halt   0053b770     libeay32:x86cpuid.obj
 0001:0013a7c0       _OPENSSL_far_spin          0053b7c0     libeay32:x86cpuid.obj
 0001:0013a810       _OPENSSL_wipe_cpu          0053b810     libeay32:x86cpuid.obj
 0001:0013a870       _OPENSSL_atomic_add        0053b870     libeay32:x86cpuid.obj
 0001:0013a890       _OPENSSL_indirect_call     0053b890     libeay32:x86cpuid.obj
 0001:0013a8d0       _OPENSSL_cleanse           0053b8d0     libeay32:x86cpuid.obj
 0001:0013a940       _ENGINE_set_load_privkey_function 0053b940 f   libeay32:eng_pkey.obj
 0001:0013a960       _ENGINE_set_load_pubkey_function 0053b960 f   libeay32:eng_pkey.obj
 0001:0013a980       _ENGINE_set_load_ssl_client_cert_function 0053b980 f   libeay32:eng_pkey.obj
 0001:0013a9a0       _ENGINE_load_ssl_client_cert 0053b9a0 f   libeay32:eng_pkey.obj
 0001:0013aa70       _PEM_ASN1_read_bio         0053ba70 f   libeay32:pem_oth.obj
 0001:0013ab00       _PEM_dek_info              0053bb00 f   libeay32:pem_lib.obj
 0001:0013abb0       _PEM_bytes_read_bio        0053bbb0 f   libeay32:pem_lib.obj
 0001:0013b2d0       _PEM_ASN1_write_bio        0053c2d0 f   libeay32:pem_lib.obj
 0001:0013b710       _PEM_do_header             0053c710 f   libeay32:pem_lib.obj
 0001:0013b940       _PEM_get_EVP_CIPHER_INFO   0053c940 f   libeay32:pem_lib.obj
 0001:0013bb70       _PEM_write_bio             0053cb70 f   libeay32:pem_lib.obj
 0001:0013bd90       _PEM_read_bio              0053cd90 f   libeay32:pem_lib.obj
 0001:0013c330       _X509_verify_cert          0053d330 f   libeay32:x509_vfy.obj
 0001:0013cd10       _X509_cmp_time             0053dd10 f   libeay32:x509_vfy.obj
 0001:0013cf40       _X509_gmtime_adj           0053df40 f   libeay32:x509_vfy.obj
 0001:0013cfc0       _X509_get_pubkey_parameters 0053dfc0 f   libeay32:x509_vfy.obj
 0001:0013d0c0       _X509_STORE_CTX_get_ex_new_index 0053e0c0 f   libeay32:x509_vfy.obj
 0001:0013d0f0       _X509_STORE_CTX_set_ex_data 0053e0f0 f   libeay32:x509_vfy.obj
 0001:0013d110       _X509_STORE_CTX_init       0053e110 f   libeay32:x509_vfy.obj
 0001:0013e280       _X509_STORE_CTX_cleanup    0053f280 f   libeay32:x509_vfy.obj
 0001:0013e300       _X509_STORE_CTX_set_verify_cb 0053f300 f   libeay32:x509_vfy.obj
 0001:0013e310       _X509_STORE_CTX_set_default 0053f310 f   libeay32:x509_vfy.obj
 0001:0013e340       _EC_KEY_new                0053f340 f   libeay32:ec_key.obj
 0001:0013e3a0       _EC_KEY_free               0053f3a0 f   libeay32:ec_key.obj
 0001:0013e420       _EC_KEY_copy               0053f420 f   libeay32:ec_key.obj
 0001:0013e580       _EC_KEY_dup                0053f580 f   libeay32:ec_key.obj
 0001:0013e670       _EC_KEY_up_ref             0053f670 f   libeay32:ec_key.obj
 0001:0013e6a0       _EC_KEY_generate_key       0053f6a0 f   libeay32:ec_key.obj
 0001:0013e800       _EC_KEY_get0_group         0053f800 f   libeay32:ec_key.obj
 0001:0013e810       _EC_KEY_set_group          0053f810 f   libeay32:ec_key.obj
 0001:0013e850       _EC_KEY_set_private_key    0053f850 f   libeay32:ec_key.obj
 0001:0013e890       _EC_KEY_get0_public_key    0053f890 f   libeay32:ec_key.obj
 0001:0013e8a0       _EC_KEY_set_public_key     0053f8a0 f   libeay32:ec_key.obj
 0001:0013e8e0       _EC_KEY_get_conv_form      0053f8e0 f   libeay32:ec_key.obj
 0001:0013e8f0       _EC_KEY_get_key_method_data 0053f8f0 f   libeay32:ec_key.obj
 0001:0013e910       _EC_KEY_insert_key_method_data 0053f910 f   libeay32:ec_key.obj
 0001:0013e980       _BN_value_one              0053f980 f   libeay32:bn_lib.obj
 0001:0013e990       _BN_num_bits_word          0053f990 f   libeay32:bn_lib.obj
 0001:0013e9f0       _BN_num_bits               0053f9f0 f   libeay32:bn_lib.obj
 0001:0013ea80       _BN_clear_free             0053fa80 f   libeay32:bn_lib.obj
 0001:0013eae0       _BN_free                   0053fae0 f   libeay32:bn_lib.obj
 0001:0013eb30       _BN_init                   0053fb30 f   libeay32:bn_lib.obj
 0001:0013eb50       _BN_new                    0053fb50 f   libeay32:bn_lib.obj
 0001:0013ecb0       _bn_expand2                0053fcb0 f   libeay32:bn_lib.obj
 0001:0013ed00       _BN_dup                    0053fd00 f   libeay32:bn_lib.obj
 0001:0013edc0       _BN_copy                   0053fdc0 f   libeay32:bn_lib.obj
 0001:0013ee90       _BN_clear                  0053fe90 f   libeay32:bn_lib.obj
 0001:0013eed0       _BN_set_word               0053fed0 f   libeay32:bn_lib.obj
 0001:0013ef40       _BN_bin2bn                 0053ff40 f   libeay32:bn_lib.obj
 0001:0013f0e0       _BN_bn2bin                 005400e0 f   libeay32:bn_lib.obj
 0001:0013f1b0       _BN_ucmp                   005401b0 f   libeay32:bn_lib.obj
 0001:0013f200       _BN_cmp                    00540200 f   libeay32:bn_lib.obj
 0001:0013f2a0       _BN_set_bit                005402a0 f   libeay32:bn_lib.obj
 0001:0013f360       _BN_is_bit_set             00540360 f   libeay32:bn_lib.obj
 0001:0013f3b0       _BN_mask_bits              005403b0 f   libeay32:bn_lib.obj
 0001:0013f430       _BN_set_negative           00540430 f   libeay32:bn_lib.obj
 0001:0013f460       _bn_cmp_words              00540460 f   libeay32:bn_lib.obj
 0001:0013f4b0       _bn_cmp_part_words         005404b0 f   libeay32:bn_lib.obj
 0001:0013f5a0       _d2i_DHparams              005405a0 f   libeay32:dh_asn1.obj
 0001:0013f5c0       _i2d_DHparams              005405c0 f   libeay32:dh_asn1.obj
 0001:0013f5e0       _DHparams_dup              005405e0 f   libeay32:dh_asn1.obj
 0001:0013f600       _PEM_write_bio_X509        00540600 f   libeay32:pem_x509.obj
 0001:0013f630       _BIO_new_file              00540630 f   libeay32:bss_file.obj
 0001:0013f710       _BIO_new_fp                00540710 f   libeay32:bss_file.obj
 0001:0013f750       _BIO_s_file                00540750 f   libeay32:bss_file.obj
 0001:0013fc70       _DH_generate_key           00540c70 f   libeay32:dh_key.obj
 0001:0013fc90       _DH_compute_key            00540c90 f   libeay32:dh_key.obj
 0001:0013fcb0       _DH_OpenSSL                00540cb0 f   libeay32:dh_key.obj
 0001:00140080       _d2i_RSAPrivateKey         00541080 f   libeay32:rsa_asn1.obj
 0001:001400a0       _i2d_RSAPrivateKey         005410a0 f   libeay32:rsa_asn1.obj
 0001:001400c0       _d2i_RSAPublicKey          005410c0 f   libeay32:rsa_asn1.obj
 0001:001400e0       _i2d_RSAPublicKey          005410e0 f   libeay32:rsa_asn1.obj
 0001:00140100       _RSAPrivateKey_dup         00541100 f   libeay32:rsa_asn1.obj
 0001:00140120       _EC_GROUP_new              00541120 f   libeay32:ec_lib.obj
 0001:00140200       _EC_GROUP_free             00541200 f   libeay32:ec_lib.obj
 0001:001402a0       _EC_GROUP_clear_free       005412a0 f   libeay32:ec_lib.obj
 0001:00140380       _EC_GROUP_copy             00541380 f   libeay32:ec_lib.obj
 0001:001406a0       _EC_GROUP_dup              005416a0 f   libeay32:ec_lib.obj
 0001:00140770       _EC_METHOD_get_field_type  00541770 f   libeay32:ec_lib.obj
 0001:00140780       _EC_GROUP_set_generator    00541780 f   libeay32:ec_lib.obj
 0001:00140930       _EC_GROUP_get_order        00541930 f   libeay32:ec_lib.obj
 0001:00140960       _EC_GROUP_get_cofactor     00541960 f   libeay32:ec_lib.obj
 0001:00140990       _EC_GROUP_set_curve_name   00541990 f   libeay32:ec_lib.obj
 0001:001409a0       _EC_GROUP_get_curve_name   005419a0 f   libeay32:ec_lib.obj
 0001:001409b0       _EC_GROUP_set_asn1_flag    005419b0 f   libeay32:ec_lib.obj
 0001:001409c0       _EC_GROUP_set_point_conversion_form 005419c0 f   libeay32:ec_lib.obj
 0001:001409d0       _EC_GROUP_get_point_conversion_form 005419d0 f   libeay32:ec_lib.obj
 0001:001409e0       _EC_GROUP_set_seed         005419e0 f   libeay32:ec_lib.obj
 0001:00140a60       _EC_GROUP_get0_seed        00541a60 f   libeay32:ec_lib.obj
 0001:00140a70       _EC_GROUP_set_curve_GFp    00541a70 f   libeay32:ec_lib.obj
 0001:00140ac0       _EC_GROUP_get_curve_GFp    00541ac0 f   libeay32:ec_lib.obj
 0001:00140b10       _EC_GROUP_set_curve_GF2m   00541b10 f   libeay32:ec_lib.obj
 0001:00140b60       _EC_GROUP_get_curve_GF2m   00541b60 f   libeay32:ec_lib.obj
 0001:00140bb0       _EC_GROUP_get_degree       00541bb0 f   libeay32:ec_lib.obj
 0001:00140bf0       _EC_GROUP_cmp              00541bf0 f   libeay32:ec_lib.obj
 0001:00140ea0       _EC_EX_DATA_set_data       00541ea0 f   libeay32:ec_lib.obj
 0001:00140f50       _EC_EX_DATA_get_data       00541f50 f   libeay32:ec_lib.obj
 0001:00140f90       _EC_EX_DATA_free_data      00541f90 f   libeay32:ec_lib.obj
 0001:00140ff0       _EC_EX_DATA_free_all_data  00541ff0 f   libeay32:ec_lib.obj
 0001:00141030       _EC_POINT_new              00542030 f   libeay32:ec_lib.obj
 0001:001410e0       _EC_POINT_free             005420e0 f   libeay32:ec_lib.obj
 0001:00141110       _EC_POINT_clear_free       00542110 f   libeay32:ec_lib.obj
 0001:00141150       _EC_POINT_copy             00542150 f   libeay32:ec_lib.obj
 0001:001411c0       _EC_POINT_dup              005421c0 f   libeay32:ec_lib.obj
 0001:001412f0       _EC_POINT_set_to_infinity  005422f0 f   libeay32:ec_lib.obj
 0001:00141350       _EC_POINT_set_Jprojective_coordinates_GFp 00542350 f   libeay32:ec_lib.obj
 0001:001413c0       _EC_POINT_set_affine_coordinates_GFp 005423c0 f   libeay32:ec_lib.obj
 0001:00141430       _EC_POINT_set_affine_coordinates_GF2m 00542430 f   libeay32:ec_lib.obj
 0001:00141490       _EC_POINT_get_affine_coordinates_GFp 00542490 f   libeay32:ec_lib.obj
 0001:00141500       _EC_POINT_get_affine_coordinates_GF2m 00542500 f   libeay32:ec_lib.obj
 0001:00141560       _EC_POINT_set_compressed_coordinates_GFp 00542560 f   libeay32:ec_lib.obj
 0001:001415d0       _EC_POINT_set_compressed_coordinates_GF2m 005425d0 f   libeay32:ec_lib.obj
 0001:00141630       _EC_POINT_point2oct        00542630 f   libeay32:ec_lib.obj
 0001:001416a0       _EC_POINT_oct2point        005426a0 f   libeay32:ec_lib.obj
 0001:00141710       _EC_POINT_add              00542710 f   libeay32:ec_lib.obj
 0001:00141790       _EC_POINT_dbl              00542790 f   libeay32:ec_lib.obj
 0001:00141810       _EC_POINT_invert           00542810 f   libeay32:ec_lib.obj
 0001:00141870       _EC_POINT_is_at_infinity   00542870 f   libeay32:ec_lib.obj
 0001:001418d0       _EC_POINT_is_on_curve      005428d0 f   libeay32:ec_lib.obj
 0001:00141940       _EC_POINT_cmp              00542940 f   libeay32:ec_lib.obj
 0001:001419c0       _EC_POINT_make_affine      005429c0 f   libeay32:ec_lib.obj
 0001:00141a30       _EC_POINTs_make_affine     00542a30 f   libeay32:ec_lib.obj
 0001:00141ab0       _EC_POINT_mul              00542ab0 f   libeay32:ec_lib.obj
 0001:00141b30       _EC_GROUP_have_precompute_mult 00542b30 f   libeay32:ec_lib.obj
 0001:00141b60       _EVP_VerifyFinal           00542b60 f   libeay32:p_verify.obj
 0001:00141ca0       _RSA_sign                  00542ca0 f   libeay32:rsa_sign.obj
 0001:00141e90       _int_rsa_verify            00542e90 f   libeay32:rsa_sign.obj
 0001:00142160       _RSA_verify                00543160 f   libeay32:rsa_sign.obj
 0001:001421c0       _BN_CTX_new                005431c0 f   libeay32:bn_ctx.obj
 0001:00142220       _BN_CTX_free               00543220 f   libeay32:bn_ctx.obj
 0001:00142290       _BN_CTX_start              00543290 f   libeay32:bn_ctx.obj
 0001:00142380       _BN_CTX_end                00543380 f   libeay32:bn_ctx.obj
 0001:001423f0       _BN_CTX_get                005433f0 f   libeay32:bn_ctx.obj
 0001:00142510       _EC_GROUP_new_by_curve_name 00543510 f   libeay32:ec_curve.obj
 0001:00142850       _EVP_PKEY_meth_new         00543850 f   libeay32:pmeth_lib.obj
 0001:001428d0       _EVP_PKEY_meth_free        005438d0 f   libeay32:pmeth_lib.obj
 0001:001428f0       _EVP_PKEY_CTX_new          005438f0 f   libeay32:pmeth_lib.obj
 0001:00142af0       _EVP_PKEY_CTX_new_id       00543af0 f   libeay32:pmeth_lib.obj
 0001:00142b10       _EVP_PKEY_CTX_dup          00543b10 f   libeay32:pmeth_lib.obj
 0001:00142c60       _EVP_PKEY_CTX_free         00543c60 f   libeay32:pmeth_lib.obj
 0001:00142cc0       _EVP_PKEY_CTX_ctrl         00543cc0 f   libeay32:pmeth_lib.obj
 0001:00142da0       _EVP_PKEY_CTX_set_data     00543da0 f   libeay32:pmeth_lib.obj
 0001:00142db0       _EVP_PKEY_meth_set_init    00543db0 f   libeay32:pmeth_lib.obj
 0001:00142dc0       _EVP_PKEY_meth_set_copy    00543dc0 f   libeay32:pmeth_lib.obj
 0001:00142dd0       _EC_KEY_set_enc_flags      00543dd0 f   libeay32:pmeth_lib.obj
 0001:00142dd0       _EVP_PKEY_meth_set_cleanup 00543dd0 f   libeay32:pmeth_lib.obj
 0001:00142de0       _EVP_PKEY_meth_set_paramgen 00543de0 f   libeay32:pmeth_lib.obj
 0001:00142e00       _EVP_PKEY_meth_set_keygen  00543e00 f   libeay32:pmeth_lib.obj
 0001:00142e20       _EVP_PKEY_meth_set_sign    00543e20 f   libeay32:pmeth_lib.obj
 0001:00142e40       _EVP_PKEY_meth_set_verify  00543e40 f   libeay32:pmeth_lib.obj
 0001:00142e60       _EVP_PKEY_meth_set_signctx 00543e60 f   libeay32:pmeth_lib.obj
 0001:00142e80       _EVP_PKEY_meth_set_encrypt 00543e80 f   libeay32:pmeth_lib.obj
 0001:00142ea0       _EVP_PKEY_meth_set_decrypt 00543ea0 f   libeay32:pmeth_lib.obj
 0001:00142ec0       _EVP_PKEY_meth_set_derive  00543ec0 f   libeay32:pmeth_lib.obj
 0001:00142ee0       _EVP_PKEY_meth_set_ctrl    00543ee0 f   libeay32:pmeth_lib.obj
 0001:00142f00       _EVP_PKEY_sign_init        00543f00 f   libeay32:pmeth_fn.obj
 0001:00142f70       _EVP_PKEY_sign             00543f70 f   libeay32:pmeth_fn.obj
 0001:00143050       _EVP_PKEY_verify_init      00544050 f   libeay32:pmeth_fn.obj
 0001:001430c0       _EVP_PKEY_verify           005440c0 f   libeay32:pmeth_fn.obj
 0001:00143140       _EVP_PKEY_encrypt_init     00544140 f   libeay32:pmeth_fn.obj
 0001:001431b0       _EVP_PKEY_encrypt          005441b0 f   libeay32:pmeth_fn.obj
 0001:001432a0       _EVP_PKEY_derive_set_peer  005442a0 f   libeay32:pmeth_fn.obj
 0001:00143420       _ECDH_compute_key          00544420 f   libeay32:ech_key.obj
 0001:00143460       _ECDSA_sign                00544460 f   libeay32:ecs_sign.obj
 0001:001434e0       _ECDSA_sign_setup          005444e0 f   libeay32:ecs_sign.obj
 0001:00143510       _DSA_sign                  00544510 f   libeay32:dsa_sign.obj
 0001:00143570       _DSA_sign_setup            00544570 f   libeay32:dsa_sign.obj
 0001:00143590       _X509_certificate_type     00544590 f   libeay32:x509type.obj
 0001:00143680       _EVP_SignFinal             00544680 f   libeay32:p_sign.obj
 0001:001437e0       _BIO_s_mem                 005447e0 f   libeay32:bss_mem.obj
 0001:001437f0       _BIO_new_mem_buf           005447f0 f   libeay32:bss_mem.obj
 0001:00143d80       _ASN1_const_check_infinite_end 00544d80 f   libeay32:asn1_lib.obj
 0001:00143dc0       _ASN1_get_object           00544dc0 f   libeay32:asn1_lib.obj
 0001:00143f40       _ASN1_put_object           00544f40 f   libeay32:asn1_lib.obj
 0001:00144020       _ASN1_put_eoc              00545020 f   libeay32:asn1_lib.obj
 0001:00144040       _ASN1_object_size          00545040 f   libeay32:asn1_lib.obj
 0001:00144080       _asn1_GetSequence          00545080 f   libeay32:asn1_lib.obj
 0001:00144120       _ASN1_STRING_dup           00545120 f   libeay32:asn1_lib.obj
 0001:001441e0       _ASN1_STRING_set           005451e0 f   libeay32:asn1_lib.obj
 0001:001442b0       _ASN1_STRING_set0          005452b0 f   libeay32:asn1_lib.obj
 0001:001442f0       _ASN1_STRING_new           005452f0 f   libeay32:asn1_lib.obj
 0001:00144350       _ASN1_STRING_type_new      00545350 f   libeay32:asn1_lib.obj
 0001:001443a0       _ASN1_STRING_free          005453a0 f   libeay32:asn1_lib.obj
 0001:001443d0       _ASN1_STRING_cmp           005453d0 f   libeay32:asn1_lib.obj
 0001:00144410       _ASN1_INTEGER_it           00545410 f   libeay32:tasn_typ.obj
 0001:00144420       _d2i_ASN1_INTEGER          00545420 f   libeay32:tasn_typ.obj
 0001:00144440       _i2d_ASN1_INTEGER          00545440 f   libeay32:tasn_typ.obj
 0001:00144460       _ASN1_INTEGER_new          00545460 f   libeay32:tasn_typ.obj
 0001:00144470       _ASN1_INTEGER_free         00545470 f   libeay32:tasn_typ.obj
 0001:00144490       _ASN1_ENUMERATED_it        00545490 f   libeay32:tasn_typ.obj
 0001:001444a0       _d2i_ASN1_ENUMERATED       005454a0 f   libeay32:tasn_typ.obj
 0001:001444c0       _ASN1_ENUMERATED_free      005454c0 f   libeay32:tasn_typ.obj
 0001:001444e0       _ASN1_BIT_STRING_it        005454e0 f   libeay32:tasn_typ.obj
 0001:001444f0       _i2d_ASN1_BIT_STRING       005454f0 f   libeay32:tasn_typ.obj
 0001:00144510       _ASN1_BIT_STRING_new       00545510 f   libeay32:tasn_typ.obj
 0001:00144520       _ASN1_BIT_STRING_free      00545520 f   libeay32:tasn_typ.obj
 0001:00144540       _ASN1_OCTET_STRING_it      00545540 f   libeay32:tasn_typ.obj
 0001:00144550       _d2i_ASN1_OCTET_STRING     00545550 f   libeay32:tasn_typ.obj
 0001:00144570       _i2d_ASN1_OCTET_STRING     00545570 f   libeay32:tasn_typ.obj
 0001:00144590       _ASN1_OCTET_STRING_new     00545590 f   libeay32:tasn_typ.obj
 0001:001445a0       _ASN1_OCTET_STRING_free    005455a0 f   libeay32:tasn_typ.obj
 0001:001445c0       _ASN1_NULL_it              005455c0 f   libeay32:tasn_typ.obj
 0001:001445d0       _ASN1_NULL_new             005455d0 f   libeay32:tasn_typ.obj
 0001:001445e0       _ASN1_OBJECT_it            005455e0 f   libeay32:tasn_typ.obj
 0001:001445f0       _ASN1_UTF8STRING_it        005455f0 f   libeay32:tasn_typ.obj
 0001:00144600       _ASN1_IA5STRING_it         00545600 f   libeay32:tasn_typ.obj
 0001:00144610       _ASN1_GENERALIZEDTIME_it   00545610 f   libeay32:tasn_typ.obj
 0001:00144620       _ASN1_ANY_it               00545620 f   libeay32:tasn_typ.obj
 0001:00144630       _ASN1_SEQUENCE_it          00545630 f   libeay32:tasn_typ.obj
 0001:00144640       _d2i_ASN1_TYPE             00545640 f   libeay32:tasn_typ.obj
 0001:00144660       _i2d_ASN1_TYPE             00545660 f   libeay32:tasn_typ.obj
 0001:00144680       _ASN1_TYPE_new             00545680 f   libeay32:tasn_typ.obj
 0001:00144690       _ASN1_TYPE_free            00545690 f   libeay32:tasn_typ.obj
 0001:001446b0       _ASN1_PRINTABLE_it         005456b0 f   libeay32:tasn_typ.obj
 0001:001446c0       _DISPLAYTEXT_it            005456c0 f   libeay32:tasn_typ.obj
 0001:001446d0       _DIRECTORYSTRING_it        005456d0 f   libeay32:tasn_typ.obj
 0001:001446e0       _ASN1_BOOLEAN_it           005456e0 f   libeay32:tasn_typ.obj
 0001:001446f0       _ASN1_FBOOLEAN_it          005456f0 f   libeay32:tasn_typ.obj
 0001:00144700       _ASN1_OCTET_STRING_NDEF_it 00545700 f   libeay32:tasn_typ.obj
 0001:00144710       _d2i_ASN1_SEQUENCE_ANY     00545710 f   libeay32:tasn_typ.obj
 0001:00144730       _i2d_ASN1_SEQUENCE_ANY     00545730 f   libeay32:tasn_typ.obj
 0001:00144750       _i2d_ASN1_SET_ANY          00545750 f   libeay32:tasn_typ.obj
 0001:00144770       _ASN1_INTEGER_cmp          00545770 f   libeay32:a_int.obj
 0001:001447b0       _i2c_ASN1_INTEGER          005457b0 f   libeay32:a_int.obj
 0001:00144900       _c2i_ASN1_INTEGER          00545900 f   libeay32:a_int.obj
 0001:00144a80       _ASN1_INTEGER_set          00545a80 f   libeay32:a_int.obj
 0001:00144b40       _ASN1_INTEGER_get          00545b40 f   libeay32:a_int.obj
 0001:00144bb0       _BN_to_ASN1_INTEGER        00545bb0 f   libeay32:a_int.obj
 0001:00144c90       _ASN1_INTEGER_to_BN        00545c90 f   libeay32:a_int.obj
 0001:00144cf0       _EVP_DigestSignInit        00545cf0 f   libeay32:m_sigver.obj
 0001:00144e70       _EVP_DigestSignFinal       00545e70 f   libeay32:m_sigver.obj
 0001:00144f80       _evp_pkey_set_cb_translate 00545f80 f   libeay32:pmeth_gn.obj
 0001:00144fd0       _EVP_PKEY_new_mac_key      00545fd0 f   libeay32:pmeth_gn.obj
 0001:001450f0       _X509_verify               005460f0 f   libeay32:x_all.obj
 0001:00145120       _d2i_X509_bio              00546120 f   libeay32:x_all.obj
 0001:00145140       _d2i_X509_CRL_bio          00546140 f   libeay32:x_all.obj
 0001:00145160       _X509_digest               00546160 f   libeay32:x_all.obj
 0001:00145190       _X509_CRL_digest           00546190 f   libeay32:x_all.obj
 0001:001451c0       _PEM_read_bio_X509_CRL     005461c0 f   libeay32:pem_all.obj
 0001:001451f0       _d2i_PrivateKey            005461f0 f   libeay32:d2i_pr.obj
 0001:00145310       _PEM_read_bio_X509_AUX     00546310 f   libeay32:pem_xaux.obj
 0001:00145340       _OBJ_find_sigid_algs       00546340 f   libeay32:obj_xref.obj
 0001:001453e0       _OBJ_find_sigid_by_algs    005463e0 f   libeay32:obj_xref.obj
 0001:001454a0       _OBJ_sigid_free            005464a0 f   libeay32:obj_xref.obj
 0001:00145500       _EVP_PBE_find              00546500 f   libeay32:evp_pbe.obj
 0001:001455a0       _EVP_PBE_cleanup           005465a0 f   libeay32:evp_pbe.obj
 0001:001455c0       _ENGINE_get_pkey_asn1_meth_engine 005465c0 f   libeay32:tb_asnmth.obj
 0001:001455e0       _ENGINE_get_pkey_asn1_meth 005465e0 f   libeay32:tb_asnmth.obj
 0001:00145630       _ENGINE_set_pkey_asn1_meths 00546630 f   libeay32:tb_asnmth.obj
 0001:00145650       _engine_pkey_asn1_meths_free 00546650 f   libeay32:tb_asnmth.obj
 0001:001456b0       _ENGINE_pkey_asn1_find_str 005466b0 f   libeay32:tb_asnmth.obj
 0001:00145800       _ENGINE_register_pkey_meths 00546800 f   libeay32:tb_pkmeth.obj
 0001:00145860       _ENGINE_get_pkey_meth_engine 00546860 f   libeay32:tb_pkmeth.obj
 0001:00145880       _ENGINE_get_pkey_meth      00546880 f   libeay32:tb_pkmeth.obj
 0001:001458d0       _ENGINE_set_pkey_meths     005468d0 f   libeay32:tb_pkmeth.obj
 0001:001458f0       _engine_pkey_meths_free    005468f0 f   libeay32:tb_pkmeth.obj
 0001:00145950       _DSO_new                   00546950 f   libeay32:dso_lib.obj
 0001:00145960       _DSO_new_method            00546960 f   libeay32:dso_lib.obj
 0001:00145a20       _DSO_free                  00546a20 f   libeay32:dso_lib.obj
 0001:00145b10       _DSO_load                  00546b10 f   libeay32:dso_lib.obj
 0001:00145cb0       _DSO_bind_func             00546cb0 f   libeay32:dso_lib.obj
 0001:00145d30       _DSO_merge                 00546d30 f   libeay32:dso_lib.obj
 0001:00145d90       _DSO_convert_filename      00546d90 f   libeay32:dso_lib.obj
 0001:00145e70       _CONF_get_section          00546e70 f   libeay32:conf_lib.obj
 0001:00145f10       _CONF_get_string           00546f10 f   libeay32:conf_lib.obj
 0001:00145ff0       _CONF_free                 00546ff0 f   libeay32:conf_lib.obj
 0001:00146040       _NCONF_get_section         00547040 f   libeay32:conf_lib.obj
 0001:001460a0       _NCONF_get_string          005470a0 f   libeay32:conf_lib.obj
 0001:00146120       _X509_get_default_cert_dir 00547120 f   libeay32:x509_def.obj
 0001:00146130       _X509_get_default_cert_file 00547130 f   libeay32:x509_def.obj
 0001:00146140       _X509_get_default_cert_dir_env 00547140 f   libeay32:x509_def.obj
 0001:00146150       _X509_get_default_cert_file_env 00547150 f   libeay32:x509_def.obj
 0001:00146160       _RAND_SSLeay               00547160 f   libeay32:md_rand.obj
 0001:001469a0       _ENGINE_get_default_RAND   005479a0 f   libeay32:tb_rand.obj
 0001:001469c0       _ENGINE_get_RAND           005479c0 f   libeay32:tb_rand.obj
 0001:001469d0       _ENGINE_set_RAND           005479d0 f   libeay32:tb_rand.obj
 0001:001469f0       _ENGINE_load_capi          005479f0 f   libeay32:e_capi.obj
 0001:00148580       _capi_cert_get_fname       00549580 f   libeay32:e_capi.obj
 0001:001487a0       _capi_dump_cert            005497a0 f   libeay32:e_capi.obj
 0001:00148d70       _capi_list_certs           00549d70 f   libeay32:e_capi.obj
 0001:00149c40       _ENGINE_load_gost          0054ac40 f   libeay32:gost_eng.obj
 0001:0014a100       _ENGINE_load_padlock       0054b100 f   libeay32:e_padlock.obj
 0001:0014ad60       _ENGINE_load_ubsec         0054bd60 f   libeay32:e_ubsec.obj
 0001:0014c2f0       _ENGINE_load_sureware      0054d2f0 f   libeay32:e_sureware.obj
 0001:0014deb0       _ENGINE_load_nuron         0054eeb0 f   libeay32:e_nuron.obj
 0001:0014e380       _ENGINE_load_chil          0054f380 f   libeay32:e_chil.obj
 0001:0014fb60       _ENGINE_load_cswift        00550b60 f   libeay32:e_cswift.obj
 0001:001513f0       _ENGINE_load_atalla        005523f0 f   libeay32:e_atalla.obj
 0001:00151e00       _ENGINE_load_aep           00552e00 f   libeay32:e_aep.obj
 0001:00152d20       _ENGINE_load_4758cca       00553d20 f   libeay32:e_4758cca.obj
 0001:00153ff0       _ENGINE_load_dynamic       00554ff0 f   libeay32:eng_dyn.obj
 0001:001547f0       _ERR_load_CMS_strings      005557f0 f   libeay32:cms_err.obj
 0001:00154820       _ERR_load_UI_strings       00555820 f   libeay32:ui_err.obj
 0001:00154850       _ERR_load_OCSP_strings     00555850 f   libeay32:ocsp_err.obj
 0001:00154880       _ERR_load_ENGINE_strings   00555880 f   libeay32:eng_err.obj
 0001:001548b0       _ERR_load_TS_strings       005558b0 f   libeay32:ts_err.obj
 0001:001548e0       _ERR_load_DSO_strings      005558e0 f   libeay32:dso_err.obj
 0001:00154910       _ERR_load_RAND_strings     00555910 f   libeay32:rand_err.obj
 0001:00154940       _ERR_load_PKCS12_strings   00555940 f   libeay32:pk12err.obj
 0001:00154970       _ERR_load_X509V3_strings   00555970 f   libeay32:v3err.obj
 0001:001549a0       _ERR_load_PKCS7_strings    005559a0 f   libeay32:pkcs7err.obj
 0001:001549d0       _ERR_load_BIO_strings      005559d0 f   libeay32:bio_err.obj
 0001:00154a00       _ERR_load_ECDH_strings     00555a00 f   libeay32:ech_err.obj
 0001:00154a30       _ERR_load_ECDSA_strings    00555a30 f   libeay32:ecs_err.obj
 0001:00154a60       _ERR_load_EC_strings       00555a60 f   libeay32:ec_err.obj
 0001:00154a90       _ERR_load_COMP_strings     00555a90 f   libeay32:comp_err.obj
 0001:00154ac0       _ERR_load_CRYPTO_strings   00555ac0 f   libeay32:cpt_err.obj
 0001:00154af0       _ERR_load_CONF_strings     00555af0 f   libeay32:conf_err.obj
 0001:00154b20       _ERR_load_ASN1_strings     00555b20 f   libeay32:asn1_err.obj
 0001:00154b50       _ERR_load_X509_strings     00555b50 f   libeay32:x509_err.obj
 0001:00154b80       _ERR_load_DSA_strings      00555b80 f   libeay32:dsa_err.obj
 0001:00154bb0       _ERR_load_PEM_strings      00555bb0 f   libeay32:pem_err.obj
 0001:00154be0       _ERR_load_OBJ_strings      00555be0 f   libeay32:obj_err.obj
 0001:00154c10       _ERR_load_BUF_strings      00555c10 f   libeay32:buf_err.obj
 0001:00154c40       _ERR_load_EVP_strings      00555c40 f   libeay32:evp_err.obj
 0001:00154c70       _ERR_load_DH_strings       00555c70 f   libeay32:dh_err.obj
 0001:00154ca0       _ERR_load_RSA_strings      00555ca0 f   libeay32:rsa_err.obj
 0001:00154cd0       _ERR_load_BN_strings       00555cd0 f   libeay32:bn_err.obj
 0001:00154d30       _X509_PUBKEY_it            00555d30 f   libeay32:x_pubkey.obj
 0001:00154d40       _X509_PUBKEY_set           00555d40 f   libeay32:x_pubkey.obj
 0001:00154de0       _X509_PUBKEY_get           00555de0 f   libeay32:x_pubkey.obj
 0001:00154ee0       _X509_PUBKEY_set0_param    00555ee0 f   libeay32:x_pubkey.obj
 0001:00154f50       _X509_PUBKEY_get0_param    00555f50 f   libeay32:x_pubkey.obj
 0001:00154f90       _X509_VAL_it               00555f90 f   libeay32:x_val.obj
 0001:00154fa0       _X509_ALGOR_it             00555fa0 f   libeay32:x_algor.obj
 0001:00154fb0       _X509_ALGOR_new            00555fb0 f   libeay32:x_algor.obj
 0001:00154fc0       _X509_ALGOR_free           00555fc0 f   libeay32:x_algor.obj
 0001:00154fe0       _X509_ALGOR_set0           00555fe0 f   libeay32:x_algor.obj
 0001:00155070       _X509_ALGOR_get0           00556070 f   libeay32:x_algor.obj
 0001:001550b0       _ASN1_tag2bit              005560b0 f   libeay32:tasn_dec.obj
 0001:001550d0       _ASN1_item_d2i             005560d0 f   libeay32:tasn_dec.obj
 0001:00155120       _ASN1_item_ex_d2i          00556120 f   libeay32:tasn_dec.obj
 0001:00156000       _asn1_ex_c2i               00557000 f   libeay32:tasn_dec.obj
 0001:00156680       _ASN1_item_i2d             00557680 f   libeay32:tasn_enc.obj
 0001:00156720       _ASN1_item_ex_i2d          00557720 f   libeay32:tasn_enc.obj
 0001:00156fe0       _asn1_ex_i2c               00557fe0 f   libeay32:tasn_enc.obj
 0001:00157180       _ASN1_item_new             00558180 f   libeay32:tasn_new.obj
 0001:001571c0       _ASN1_item_ex_new          005581c0 f   libeay32:tasn_new.obj
 0001:00157770       _ASN1_primitive_new        00558770 f   libeay32:tasn_new.obj
 0001:00157880       _ASN1_item_free            00558880 f   libeay32:tasn_fre.obj
 0001:001578a0       _ASN1_item_ex_free         005588a0 f   libeay32:tasn_fre.obj
 0001:00157c50       _ASN1_template_free        00558c50 f   libeay32:tasn_fre.obj
 0001:00157cd0       _ASN1_primitive_free       00558cd0 f   libeay32:tasn_fre.obj
 0001:00157dd0       _ASRange_it                00558dd0 f   libeay32:v3_asid.obj
 0001:00157de0       _ASIdOrRange_it            00558de0 f   libeay32:v3_asid.obj
 0001:00157df0       _ASIdentifierChoice_it     00558df0 f   libeay32:v3_asid.obj
 0001:00157e00       _ASIdentifiers_it          00558e00 f   libeay32:v3_asid.obj
 0001:00157e10       _ASIdentifiers_free        00558e10 f   libeay32:v3_asid.obj
 0001:00157ff0       _v3_asid_add_id_or_range   00558ff0 f   libeay32:v3_asid.obj
 0001:00158b70       _v3_asid_validate_path     00559b70 f   libeay32:v3_asid.obj
 0001:00159280       _IPAddressRange_it         0055a280 f   libeay32:v3_addr.obj
 0001:00159290       _IPAddressOrRange_it       0055a290 f   libeay32:v3_addr.obj
 0001:001592a0       _IPAddressChoice_it        0055a2a0 f   libeay32:v3_addr.obj
 0001:001592b0       _IPAddressFamily_it        0055a2b0 f   libeay32:v3_addr.obj
 0001:001592c0       _IPAddrBlocks_it           0055a2c0 f   libeay32:v3_addr.obj
 0001:001592d0       _IPAddressFamily_free      0055a2d0 f   libeay32:v3_addr.obj
 0001:00159f90       _v3_addr_is_canonical      0055af90 f   libeay32:v3_addr.obj
 0001:0015afa0       _v3_addr_validate_path     0055bfa0 f   libeay32:v3_addr.obj
 0001:0015b440       _GENERAL_SUBTREE_it        0055c440 f   libeay32:v3_ncons.obj
 0001:0015b450       _NAME_CONSTRAINTS_it       0055c450 f   libeay32:v3_ncons.obj
 0001:0015b460       _NAME_CONSTRAINTS_free     0055c460 f   libeay32:v3_ncons.obj
 0001:0015b920       _NAME_CONSTRAINTS_check    0055c920 f   libeay32:v3_ncons.obj
 0001:0015bfc0       _OTHERNAME_it              0055cfc0 f   libeay32:v3_genn.obj
 0001:0015bfd0       _OTHERNAME_new             0055cfd0 f   libeay32:v3_genn.obj
 0001:0015bfe0       _EDIPARTYNAME_it           0055cfe0 f   libeay32:v3_genn.obj
 0001:0015bff0       _GENERAL_NAME_it           0055cff0 f   libeay32:v3_genn.obj
 0001:0015c000       _GENERAL_NAME_new          0055d000 f   libeay32:v3_genn.obj
 0001:0015c010       _GENERAL_NAME_free         0055d010 f   libeay32:v3_genn.obj
 0001:0015c030       _GENERAL_NAMES_it          0055d030 f   libeay32:v3_genn.obj
 0001:0015c040       _GENERAL_NAMES_new         0055d040 f   libeay32:v3_genn.obj
 0001:0015c050       _GENERAL_NAMES_free        0055d050 f   libeay32:v3_genn.obj
 0001:0015c070       _GENERAL_NAME_cmp          0055d070 f   libeay32:v3_genn.obj
 0001:0015c170       _policy_cache_free         0055d170 f   libeay32:pcy_cache.obj
 0001:0015c1b0       _policy_cache_set          0055d1b0 f   libeay32:pcy_cache.obj
 0001:0015c4c0       _policy_cache_find_data    0055d4c0 f   libeay32:pcy_cache.obj
 0001:0015cc70       _DIST_POINT_NAME_it        0055dc70 f   libeay32:v3_crld.obj
 0001:0015cc80       _DIST_POINT_it             0055dc80 f   libeay32:v3_crld.obj
 0001:0015cc90       _DIST_POINT_free           0055dc90 f   libeay32:v3_crld.obj
 0001:0015ccb0       _CRL_DIST_POINTS_it        0055dcb0 f   libeay32:v3_crld.obj
 0001:0015ccc0       _CRL_DIST_POINTS_free      0055dcc0 f   libeay32:v3_crld.obj
 0001:0015cce0       _ISSUING_DIST_POINT_it     0055dce0 f   libeay32:v3_crld.obj
 0001:0015ccf0       _ISSUING_DIST_POINT_free   0055dcf0 f   libeay32:v3_crld.obj
 0001:0015d420       _DIST_POINT_set_dpname     0055e420 f   libeay32:v3_crld.obj
 0001:0015d4d0       _AUTHORITY_KEYID_it        0055e4d0 f   libeay32:v3_akeya.obj
 0001:0015d4e0       _AUTHORITY_KEYID_new       0055e4e0 f   libeay32:v3_akeya.obj
 0001:0015d4f0       _AUTHORITY_KEYID_free      0055e4f0 f   libeay32:v3_akeya.obj
 0001:0015d510       _d2i_X509_CERT_AUX         0055e510 f   libeay32:x_x509a.obj
 0001:0015d530       _X509_CERT_AUX_free        0055e530 f   libeay32:x_x509a.obj
 0001:0015d550       _ASN1_item_dup             0055e550 f   libeay32:a_dup.obj
 0001:0015d5d0       _i2d_ASN1_OBJECT           0055e5d0 f   libeay32:a_object.obj
 0001:0015d660       _a2d_ASN1_OBJECT           0055e660 f   libeay32:a_object.obj
 0001:0015d9e0       _i2t_ASN1_OBJECT           0055e9e0 f   libeay32:a_object.obj
 0001:0015da00       _i2a_ASN1_OBJECT           0055ea00 f   libeay32:a_object.obj
 0001:0015dae0       _d2i_ASN1_OBJECT           0055eae0 f   libeay32:a_object.obj
 0001:0015db70       _c2i_ASN1_OBJECT           0055eb70 f   libeay32:a_object.obj
 0001:0015dd50       _ASN1_OBJECT_new           0055ed50 f   libeay32:a_object.obj
 0001:0015dda0       _ASN1_OBJECT_free          0055eda0 f   libeay32:a_object.obj
 0001:0015de40       _md5_block_asm_data_order  0055ee40     libeay32:md5-586.obj
 0001:0015e500       _sha1_block_data_order     0055f500     libeay32:sha1-586.obj
 0001:0015f500       _sha256_block_data_order   00560500     libeay32:sha256-586.obj
 0001:0015f940       _sha512_block_data_order   00560940     libeay32:sha512-586.obj
 0001:00163000       _ASN1_TYPE_set_octetstring 00564000 f   libeay32:evp_asn1.obj
 0001:00163050       _ASN1_TYPE_get_octetstring 00564050 f   libeay32:evp_asn1.obj
 0001:001630b0       _ASN1_TYPE_set_int_octetstring 005640b0 f   libeay32:evp_asn1.obj
 0001:001631a0       _ASN1_TYPE_get_int_octetstring 005641a0 f   libeay32:evp_asn1.obj
 0001:00163310       _ENGINE_register_digests   00564310 f   libeay32:tb_digest.obj
 0001:00163370       _ENGINE_get_digest_engine  00564370 f   libeay32:tb_digest.obj
 0001:00163390       _ENGINE_get_digest         00564390 f   libeay32:tb_digest.obj
 0001:001633e0       _ENGINE_set_digests        005643e0 f   libeay32:tb_digest.obj
 0001:00163400       _ENGINE_register_ciphers   00564400 f   libeay32:tb_cipher.obj
 0001:00163460       _ENGINE_get_cipher_engine  00564460 f   libeay32:tb_cipher.obj
 0001:00163480       _ENGINE_get_cipher         00564480 f   libeay32:tb_cipher.obj
 0001:001634d0       _ENGINE_set_ciphers        005644d0 f   libeay32:tb_cipher.obj
 0001:001634f0       _OBJ_dup                   005644f0 f   libeay32:obj_lib.obj
 0001:001636b0       _OBJ_cmp                   005646b0 f   libeay32:obj_lib.obj
 0001:001636e0       _X509_check_trust          005646e0 f   libeay32:x509_trs.obj
 0001:00163a70       _X509_NAME_print_ex        00564a70 f   libeay32:a_strex.obj
 0001:00164400       _ASN1_STRING_to_UTF8       00565400 f   libeay32:a_strex.obj
 0001:00164470       _ACCESS_DESCRIPTION_it     00565470 f   libeay32:v3_info.obj
 0001:00164480       _ACCESS_DESCRIPTION_free   00565480 f   libeay32:v3_info.obj
 0001:001644a0       _AUTHORITY_INFO_ACCESS_it  005654a0 f   libeay32:v3_info.obj
 0001:001647b0       _X509_REVOKED_it           005657b0 f   libeay32:x_crl.obj
 0001:001647f0       _X509_CRL_INFO_it          005657f0 f   libeay32:x_crl.obj
 0001:00164be0       _X509_CRL_it               00565be0 f   libeay32:x_crl.obj
 0001:00164bf0       _d2i_X509_CRL              00565bf0 f   libeay32:x_crl.obj
 0001:00164c10       _X509_CRL_free             00565c10 f   libeay32:x_crl.obj
 0001:00164c50       _X509_CRL_verify           00565c50 f   libeay32:x_crl.obj
 0001:00164c70       _X509_CRL_get0_by_cert     00565c70 f   libeay32:x_crl.obj
 0001:00164e60       _BN_bn2dec                 00565e60 f   libeay32:bn_print.obj
 0001:00165030       _BN_hex2bn                 00566030 f   libeay32:bn_print.obj
 0001:001651b0       _BN_dec2bn                 005661b0 f   libeay32:bn_print.obj
 0001:00165300       _BN_asc2bn                 00566300 f   libeay32:bn_print.obj
 0001:00165370       _BN_print                  00566370 f   libeay32:bn_print.obj
 0001:00165420       _BN_mod_word               00566420 f   libeay32:bn_word.obj
 0001:00165480       _BN_div_word               00566480 f   libeay32:bn_word.obj
 0001:00165540       _BN_add_word               00566540 f   libeay32:bn_word.obj
 0001:00165600       _BN_sub_word               00566600 f   libeay32:bn_word.obj
 0001:001656d0       _BN_mul_word               005666d0 f   libeay32:bn_word.obj
 0001:00165750       _BN_lshift1                00566750 f   libeay32:bn_shift.obj
 0001:00165800       _BN_rshift1                00566800 f   libeay32:bn_shift.obj
 0001:001658b0       _BN_lshift                 005668b0 f   libeay32:bn_shift.obj
 0001:001659f0       _BN_rshift                 005669f0 f   libeay32:bn_shift.obj
 0001:00165b30       _DSA_get_default_method    00566b30 f   libeay32:dsa_lib.obj
 0001:00165b50       _DSA_new                   00566b50 f   libeay32:dsa_lib.obj
 0001:00165b60       _DSA_new_method            00566b60 f   libeay32:dsa_lib.obj
 0001:00165cc0       _DSA_free                  00566cc0 f   libeay32:dsa_lib.obj
 0001:00165da0       _DSA_size                  00566da0 f   libeay32:dsa_lib.obj
 0001:00165e00       _DSA_get_ex_new_index      00566e00 f   libeay32:dsa_lib.obj
 0001:00165e30       _DSA_set_ex_data           00566e30 f   libeay32:dsa_lib.obj
 0001:00165e50       _DSA_get_ex_data           00566e50 f   libeay32:dsa_lib.obj
 0001:00165e70       _X509_ATTRIBUTE_SET_it     00566e70 f   libeay32:x_attrib.obj
 0001:00165e80       _X509_ATTRIBUTE_it         00566e80 f   libeay32:x_attrib.obj
 0001:00165e90       _X509_ATTRIBUTE_new        00566e90 f   libeay32:x_attrib.obj
 0001:00165ea0       _X509_ATTRIBUTE_free       00566ea0 f   libeay32:x_attrib.obj
 0001:00165ec0       _X509_ATTRIBUTE_dup        00566ec0 f   libeay32:x_attrib.obj
 0001:00165ee0       _X509_ATTRIBUTE_create     00566ee0 f   libeay32:x_attrib.obj
 0001:00165f80       _X509v3_get_ext_count      00566f80 f   libeay32:x509_v3.obj
 0001:00165fa0       _X509v3_get_ext_by_NID     00566fa0 f   libeay32:x509_v3.obj
 0001:00165fa0       _X509at_get_attr_by_NID    00566fa0 f   libeay32:x509_v3.obj
 0001:00166010       _X509v3_get_ext            00567010 f   libeay32:x509_v3.obj
 0001:00166050       _X509_EXTENSION_get_critical 00567050 f   libeay32:x509_v3.obj
 0001:00166070       _X509_CRL_get_ext_by_NID   00567070 f   libeay32:x509_ext.obj
 0001:00166090       _X509_CRL_get_ext          00567090 f   libeay32:x509_ext.obj
 0001:001660b0       _X509_CRL_get_ext_d2i      005670b0 f   libeay32:x509_ext.obj
 0001:001660e0       _X509_get_ext_count        005670e0 f   libeay32:x509_ext.obj
 0001:00166100       _X509_get_ext_by_NID       00567100 f   libeay32:x509_ext.obj
 0001:00166120       _X509_get_ext              00567120 f   libeay32:x509_ext.obj
 0001:00166140       _X509_get_ext_d2i          00567140 f   libeay32:x509_ext.obj
 0001:00166170       _X509_REVOKED_get_ext_d2i  00567170 f   libeay32:x509_ext.obj
 0001:00166190       _PROXY_POLICY_it           00567190 f   libeay32:v3_pcia.obj
 0001:001661a0       _PROXY_CERT_INFO_EXTENSION_it 005671a0 f   libeay32:v3_pcia.obj
 0001:001661b0       _PROXY_CERT_INFO_EXTENSION_new 005671b0 f   libeay32:v3_pcia.obj
 0001:001661c0       _PROXY_CERT_INFO_EXTENSION_free 005671c0 f   libeay32:v3_pcia.obj
 0001:001661e0       _BASIC_CONSTRAINTS_it      005671e0 f   libeay32:v3_bcons.obj
 0001:001661f0       _BASIC_CONSTRAINTS_free    005671f0 f   libeay32:v3_bcons.obj
 0001:001663d0       _ASN1_OCTET_STRING_dup     005673d0 f   libeay32:a_octet.obj
 0001:001663f0       _ASN1_OCTET_STRING_cmp     005673f0 f   libeay32:a_octet.obj
 0001:00166410       _ASN1_OCTET_STRING_set     00567410 f   libeay32:a_octet.obj
 0001:00166410       _ASN1_BIT_STRING_set       00567410 f   libeay32:a_octet.obj
 0001:00166430       _ENGINE_get_default_DH     00567430 f   libeay32:tb_dh.obj
 0001:00166450       _ENGINE_get_DH             00567450 f   libeay32:tb_dh.obj
 0001:00166450       _EC_KEY_get_enc_flags      00567450 f   libeay32:tb_dh.obj
 0001:00166460       _ENGINE_set_DH             00567460 f   libeay32:tb_dh.obj
 0001:00166480       _RSA_PKCS1_SSLeay          00567480 f   libeay32:rsa_eay.obj
 0001:00167850       _ENGINE_get_default_RSA    00568850 f   libeay32:tb_rsa.obj
 0001:00167870       _EVP_CIPHER_key_length     00568870 f   libeay32:tb_rsa.obj
 0001:00167870       _EVP_PKEY_CTX_get0_pkey    00568870 f   libeay32:tb_rsa.obj
 0001:00167870       _ENGINE_get_RSA            00568870 f   libeay32:tb_rsa.obj
 0001:00167870       _ASN1_STRING_data          00568870 f   libeay32:tb_rsa.obj
 0001:00167880       _ENGINE_set_RSA            00568880 f   libeay32:tb_rsa.obj
 0001:001678a0       _BN_BLINDING_new           005688a0 f   libeay32:bn_blind.obj
 0001:001679a0       _BN_BLINDING_free          005689a0 f   libeay32:bn_blind.obj
 0001:00167a00       _BN_BLINDING_update        00568a00 f   libeay32:bn_blind.obj
 0001:00167ac0       _BN_BLINDING_convert_ex    00568ac0 f   libeay32:bn_blind.obj
 0001:00167b40       _BN_BLINDING_invert_ex     00568b40 f   libeay32:bn_blind.obj
 0001:00167bc0       _BN_BLINDING_thread_id     00568bc0 f   libeay32:bn_blind.obj
 0001:00167bd0       _BN_BLINDING_create_param  00568bd0 f   libeay32:bn_blind.obj
 0001:00167d90       _BN_gcd                    00568d90 f   libeay32:bn_gcd.obj
 0001:00167f00       _BN_mod_inverse            00568f00 f   libeay32:bn_gcd.obj
 0001:001687e0       _bn_mul_recursive          005697e0 f   libeay32:bn_mul.obj
 0001:00168c10       _bn_mul_part_recursive     00569c10 f   libeay32:bn_mul.obj
 0001:00169040       _BN_mul                    0056a040 f   libeay32:bn_mul.obj
 0001:00169320       _bn_mul_normal             0056a320 f   libeay32:bn_mul.obj
 0001:00169440       _BN_add                    0056a440 f   libeay32:bn_add.obj
 0001:001694e0       _BN_uadd                   0056a4e0 f   libeay32:bn_add.obj
 0001:001695c0       _BN_usub                   0056a5c0 f   libeay32:bn_add.obj
 0001:00169730       _BN_sub                    0056a730 f   libeay32:bn_add.obj
 0001:00169810       _X509_LOOKUP_hash_dir      0056a810 f   libeay32:by_dir.obj
 0001:00169f80       _X509_LOOKUP_file          0056af80 f   libeay32:by_file.obj
 0001:0016a030       _X509_load_cert_file       0056b030 f   libeay32:by_file.obj
 0001:0016a1a0       _X509_load_crl_file        0056b1a0 f   libeay32:by_file.obj
 0001:0016a310       _X509_load_cert_crl_file   0056b310 f   libeay32:by_file.obj
 0001:0016a420       _ECDSA_verify              0056b420 f   libeay32:ecs_vrf.obj
 0001:0016a4b0       _DSA_verify                0056b4b0 f   libeay32:dsa_vrf.obj
 0001:0016a540       _Camellia_EncryptBlock_Rounds 0056b540     libeay32:cmll-x86.obj
 0001:0016a5d0       _Camellia_EncryptBlock     0056b5d0     libeay32:cmll-x86.obj
 0001:0016a5f0       _Camellia_encrypt          0056b5f0     libeay32:cmll-x86.obj
 0001:0016a990       _Camellia_DecryptBlock_Rounds 0056b990     libeay32:cmll-x86.obj
 0001:0016aa20       _Camellia_DecryptBlock     0056ba20     libeay32:cmll-x86.obj
 0001:0016aa40       _Camellia_decrypt          0056ba40     libeay32:cmll-x86.obj
 0001:0016ade0       _Camellia_Ekeygen          0056bde0     libeay32:cmll-x86.obj
 0001:0016b760       _Camellia_set_key          0056c760     libeay32:cmll-x86.obj
 0001:0016c840       _Camellia_cbc_encrypt      0056d840     libeay32:cmll-x86.obj
 0001:0016cbc0       _Camellia_cfb128_encrypt   0056dbc0 f   libeay32:cmll_cfb.obj
 0001:0016cbf0       _Camellia_cfb1_encrypt     0056dbf0 f   libeay32:cmll_cfb.obj
 0001:0016cc20       _Camellia_cfb8_encrypt     0056dc20 f   libeay32:cmll_cfb.obj
 0001:0016cc50       _Camellia_ecb_encrypt      0056dc50 f   libeay32:cmll_ecb.obj
 0001:0016cc80       _Camellia_ofb128_encrypt   0056dc80 f   libeay32:cmll_ofb.obj
 0001:0016e0c0       _AES_encrypt               0056f0c0     libeay32:aes-586.obj
 0001:0016f740       _AES_decrypt               00570740     libeay32:aes-586.obj
 0001:0016f800       _AES_cbc_encrypt           00570800     libeay32:aes-586.obj
 0001:001701a0       _AES_set_encrypt_key       005711a0     libeay32:aes-586.obj
 0001:001701b0       _AES_set_decrypt_key       005711b0     libeay32:aes-586.obj
 0001:001704a0       _AES_cfb128_encrypt        005714a0 f   libeay32:aes_cfb.obj
 0001:001704d0       _AES_cfb1_encrypt          005714d0 f   libeay32:aes_cfb.obj
 0001:00170500       _AES_cfb8_encrypt          00571500 f   libeay32:aes_cfb.obj
 0001:00170530       _AES_ecb_encrypt           00571530 f   libeay32:aes_ecb.obj
 0001:00170560       _AES_ofb128_encrypt        00571560 f   libeay32:aes_ofb.obj
 0001:00170590       _RC2_cbc_encrypt           00571590 f   libeay32:rc2_cbc.obj
 0001:00170ac0       _RC2_encrypt               00571ac0 f   libeay32:rc2_cbc.obj
 0001:00170c20       _RC2_decrypt               00571c20 f   libeay32:rc2_cbc.obj
 0001:00170da0       _RC2_cfb64_encrypt         00571da0 f   libeay32:rc2cfb64.obj
 0001:00170f80       _RC2_ecb_encrypt           00571f80 f   libeay32:rc2_ecb.obj
 0001:00171040       _RC2_ofb64_encrypt         00572040 f   libeay32:rc2ofb64.obj
 0001:001711c0       _RC2_set_key               005721c0 f   libeay32:rc2_skey.obj
 0001:001712c0       _RC4                       005722c0     libeay32:rc4-586.obj
 0001:00171450       _RC4_set_key               00572450     libeay32:rc4-586.obj
 0001:00171520       _RC4_options               00572520     libeay32:rc4-586.obj
 0001:001715c0       _idea_ecb_encrypt          005725c0 f   libeay32:i_ecb.obj
 0001:00171670       _idea_cbc_encrypt          00572670 f   libeay32:i_cbc.obj
 0001:00171bb0       _idea_encrypt              00572bb0 f   libeay32:i_cbc.obj
 0001:001724c0       _idea_ofb64_encrypt        005734c0 f   libeay32:i_ofb64.obj
 0001:00172650       _idea_cfb64_encrypt        00573650 f   libeay32:i_cfb64.obj
 0001:00172840       _idea_set_encrypt_key      00573840 f   libeay32:i_skey.obj
 0001:00172a00       _idea_set_decrypt_key      00573a00 f   libeay32:i_skey.obj
 0001:00172b60       _DES_ecb3_encrypt          00573b60 f   libeay32:ecb3_enc.obj
 0001:00172c30       _DES_ede3_ofb64_encrypt    00573c30 f   libeay32:ofb64ede.obj
 0001:00173c00       _DES_encrypt1              00574c00     libeay32:des-586.obj
 0001:00173d00       _DES_encrypt2              00574d00     libeay32:des-586.obj
 0001:00173d60       _DES_encrypt3              00574d60     libeay32:des-586.obj
 0001:00173e90       _DES_decrypt3              00574e90     libeay32:des-586.obj
 0001:00173fc0       _DES_ncbc_encrypt          00574fc0     libeay32:des-586.obj
 0001:00174200       _DES_ede3_cbc_encrypt      00575200     libeay32:des-586.obj
 0001:00174440       _DES_SPtrans               00575440     libeay32:des-586.obj
 0001:00174c40       _DES_ede3_cfb64_encrypt    00575c40 f   libeay32:cfb64ede.obj
 0001:00174e30       _DES_ede3_cfb_encrypt      00575e30 f   libeay32:cfb64ede.obj
 0001:00175430       _DES_set_odd_parity        00576430 f   libeay32:set_key.obj
 0001:00175450       _DES_set_key_unchecked     00576450 f   libeay32:set_key.obj
 0001:001756d0       _DES_ecb_encrypt           005766d0 f   libeay32:ecb_enc.obj
 0001:00175780       _DES_ofb64_encrypt         00576780 f   libeay32:ofb64enc.obj
 0001:00175910       _DES_cfb64_encrypt         00576910 f   libeay32:cfb64enc.obj
 0001:00175af0       _DES_cfb_encrypt           00576af0 f   libeay32:cfb_enc.obj
 0001:00175f80       _EVP_get_pw_prompt         00576f80 f   libeay32:evp_key.obj
 0001:00175f90       _EVP_read_pw_string        00576f90 f   libeay32:evp_key.obj
 0001:00176050       _EVP_BytesToKey            00577050 f   libeay32:evp_key.obj
 0001:00176220       _EVP_EncodeInit            00577220 f   libeay32:encode.obj
 0001:00176240       _EVP_EncodeUpdate          00577240 f   libeay32:encode.obj
 0001:00176390       _EVP_EncodeFinal           00577390 f   libeay32:encode.obj
 0001:001763e0       _EVP_EncodeBlock           005773e0 f   libeay32:encode.obj
 0001:001764d0       _EVP_DecodeInit            005774d0 f   libeay32:encode.obj
 0001:001764f0       _EVP_DecodeUpdate          005774f0 f   libeay32:encode.obj
 0001:00176700       _EVP_DecodeBlock           00577700 f   libeay32:encode.obj
 0001:00176830       _EVP_DecodeFinal           00577830 f   libeay32:encode.obj
 0001:00176880       _ASN1_TIME_it              00577880 f   libeay32:a_time.obj
 0001:00176890       _ASN1_TIME_free            00577890 f   libeay32:a_time.obj
 0001:001768b0       _ASN1_TIME_adj             005778b0 f   libeay32:a_time.obj
 0001:00176960       _ASN1_TIME_check           00577960 f   libeay32:a_time.obj
 0001:00176990       _ASN1_GENERALIZEDTIME_check 00577990 f   libeay32:a_gentm.obj
 0001:00176af0       _ASN1_GENERALIZEDTIME_adj  00577af0 f   libeay32:a_gentm.obj
 0001:00176c10       _ASN1_UTCTIME_check        00577c10 f   libeay32:a_utctm.obj
 0001:00176d40       _ASN1_UTCTIME_adj          00577d40 f   libeay32:a_utctm.obj
 0001:00176e60       _X509_policy_tree_free     00577e60 f   libeay32:pcy_tree.obj
 0001:00176f20       _X509_policy_check         00577f20 f   libeay32:pcy_tree.obj
 0001:00177a30       _BN_rand                   00578a30 f   libeay32:bn_rand.obj
 0001:00177c00       _BN_pseudo_rand            00578c00 f   libeay32:bn_rand.obj
 0001:00177c20       _BN_rand_range             00578c20 f   libeay32:bn_rand.obj
 0001:00177df0       _BN_pseudo_rand_range      00578df0 f   libeay32:bn_rand.obj
 0001:00177e10       _LONG_it                   00578e10 f   libeay32:x_long.obj
 0001:00177e20       _ZLONG_it                  00578e20 f   libeay32:x_long.obj
 0001:00177fb0       _BIGNUM_it                 00578fb0 f   libeay32:x_bignum.obj
 0001:00177fc0       _CBIGNUM_it                00578fc0 f   libeay32:x_bignum.obj
 0001:00178100       _BN_mod_mul_montgomery     00579100 f   libeay32:bn_mont.obj
 0001:00178550       _BN_from_montgomery        00579550 f   libeay32:bn_mont.obj
 0001:001785b0       _BN_MONT_CTX_new           005795b0 f   libeay32:bn_mont.obj
 0001:00178610       _BN_MONT_CTX_free          00579610 f   libeay32:bn_mont.obj
 0001:00178650       _BN_MONT_CTX_set           00579650 f   libeay32:bn_mont.obj
 0001:00178850       _BN_MONT_CTX_copy          00579850 f   libeay32:bn_mont.obj
 0001:001788c0       _BN_MONT_CTX_set_locked    005798c0 f   libeay32:bn_mont.obj
 0001:00178a20       _DH_check_pub_key          00579a20 f   libeay32:dh_check.obj
 0001:00178aa0       _BN_mod_exp                00579aa0 f   libeay32:bn_exp.obj
 0001:00178b30       _BN_mod_exp_recp           00579b30 f   libeay32:bn_exp.obj
 0001:00178e70       _BN_mod_exp_mont           00579e70 f   libeay32:bn_exp.obj
 0001:00179250       _BN_mod_exp_mont_consttime 0057a250 f   libeay32:bn_exp.obj
